###############################################################################
#                                                                             #
# IAR ELF Linker V6.30.6.53336/W32 for ARM              26/Jun/2013  09:52:10 #
# Copyright 2007-2012 IAR Systems AB.                                         #
#                                                                             #
#    Output file  =  D:\Firmware\my-project-hihack\trunk\ my-project-hihack   #
#                    --username kaiser.ren@gmail.com\phone_simulate\build\ewa #
#                    rm_630\sam3s\Exe\sam3s.out                               #
#    Map file     =  D:\Firmware\my-project-hihack\trunk\ my-project-hihack   #
#                    --username kaiser.ren@gmail.com\phone_simulate\build\ewa #
#                    rm_630\sam3s\List\sam3s.map                              #
#    Command line =  "D:\Firmware\my-project-hihack\trunk\ my-project-hihack  #
#                    --username kaiser.ren@gmail.com\phone_simulate\build\ewa #
#                    rm_630\sam3s\Obj\decode.o" "D:\Firmware\my-project-hihac #
#                    k\trunk\ my-project-hihack --username                    #
#                    kaiser.ren@gmail.com\phone_simulate\build\ewarm_630\sam3 #
#                    s\Obj\encode.o" "D:\Firmware\my-project-hihack\trunk\    #
#                    my-project-hihack --username                             #
#                    kaiser.ren@gmail.com\phone_simulate\build\ewarm_630\sam3 #
#                    s\Obj\main.o" "D:\Firmware\my-project-hihack\trunk\      #
#                    my-project-hihack --username                             #
#                    kaiser.ren@gmail.com\phone_simulate\libboard_sam3s-ek\li #
#                    b\libboard_sam3s_ek_ewarm_dbg.a"                         #
#                    "D:\Firmware\my-project-hihack\trunk\ my-project-hihack  #
#                    --username kaiser.ren@gmail.com\phone_simulate\libchip_s #
#                    am3s\lib\libchip_sam3s4_ewarm_dbg.a" --redirect          #
#                    _Printf=_PrintfSmall --redirect _Scanf=_ScanfSmall -o    #
#                    "D:\Firmware\my-project-hihack\trunk\ my-project-hihack  #
#                    --username kaiser.ren@gmail.com\phone_simulate\build\ewa #
#                    rm_630\sam3s\Exe\sam3s.out" --map                        #
#                    "D:\Firmware\my-project-hihack\trunk\ my-project-hihack  #
#                    --username kaiser.ren@gmail.com\phone_simulate\build\ewa #
#                    rm_630\sam3s\List\sam3s.map" --config                    #
#                    "D:\Firmware\my-project-hihack\trunk\ my-project-hihack  #
#                    --username kaiser.ren@gmail.com\phone_simulate\build\ewa #
#                    rm_630/../../resource/sam3s4c/flash.icf" --entry         #
#                    __iar_program_start --vfe                                #
#                                                                             #
#                                                                             #
###############################################################################

*******************************************************************************
*** RUNTIME MODEL ATTRIBUTES
***

CppFlavor       = *
__SystemLibrary = DLib


*******************************************************************************
*** PLACEMENT SUMMARY
***

"A1":  place at 0x00400000 { ro section .vectors };
"P1":  place in [from 0x00400000 to 0x0043ffff] { ro };
"P2":  place in [from 0x20000000 to 0x2000bfff] { rw, block CSTACK, block HEAP };

  Section          Kind        Address    Size  Object
  -------          ----        -------    ----  ------
"A1":                                     0xd0
  .vectors                  0x00400000    0xd0  <Block>
    .vectors       const    0x00400000    0xd0  board_cstartup_iar.o [4]
                          - 0x004000d0    0xd0

"P1":                                   0x1fb8
  SOFTPACK         ro code  0x004000d0   0x69c  encode.o [1]
  SAM3S-EK         ro code  0x0040076c    0xb4  uart_console.o [4]
  SAM3S4           ro code  0x00400820    0xcc  dacc.o [5]
  SAM3S4           ro code  0x004008ec   0x1ae  pio.o [5]
  .text            ro code  0x00400a9a    0x66  xassert.o [3]
  SAM3S4           ro code  0x00400b00    0x6c  pmc.o [5]
  .text            ro code  0x00400b6c    0xa0  xreportassert.o [3]
  .text            ro code  0x00400c0c     0x6  abort.o [3]
  SAM3S4           ro code  0x00400c12    0x4a  exceptions.o [5]
  .text            ro code  0x00400c5c     0xc  XXexit.o [6]
  .text            ro code  0x00400c68   0x4a4  xprintfsmall.o [3]
  .text            ro code  0x0040110c    0x16  strchr.o [6]
  .text            ro code  0x00401122    0x22  zero_init3.o [6]
  .text            ro code  0x00401144    0x36  strlen.o [6]
  .text            ro code  0x0040117c    0x58  memchr.o [6]
  SOFTPACK         ro code  0x004011d4   0x3c0  main.o [1]
  .text            ro code  0x00401594    0x24  printf.o [3]
  SAM3S4           ro code  0x004015b8     0x8  wdt.o [5]
  SAM3S-EK         ro code  0x004015c0    0x9c  led.o [4]
  SOFTPACK         ro code  0x0040165c   0x364  decode.o [1]
  SAM3S-EK         ro code  0x004019c0   0x15c  board_lowlevel.o [4]
  .rodata          const    0x00401b1c    0xc8  main.o [1]
  .rodata          const    0x00401be4    0x80  pmc.o [5]
  .rodata          const    0x00401c64    0x80  dacc.o [5]
  .rodata          const    0x00401ce4    0x48  main.o [1]
  SAM3S-EK         ro code  0x00401d2c    0x38  board_cstartup_iar.o [4]
  .rodata          const    0x00401d64    0x34  main.o [1]
  .text            ro code  0x00401d98    0x2c  data_init3.o [6]
  .rodata          const    0x00401dc4    0x28  main.o [1]
  .rodata          const    0x00401dec    0x28  main.o [1]
  .rodata          const    0x00401e14    0x24  main.o [1]
  .rodata          const    0x00401e38    0x24  main.o [1]
  .rodata          const    0x00401e5c    0x24  main.o [1]
  .rodata          const    0x00401e80    0x24  led.o [4]
  .iar.init_table  const    0x00401ea4    0x10  - Linker created -
  .rodata          const    0x00401eb4    0x20  main.o [1]
  .rodata          const    0x00401ed4    0x20  main.o [1]
  .rodata          const    0x00401ef4    0x20  main.o [1]
  .rodata          const    0x00401f14    0x20  dacc.o [5]
  .rodata          const    0x00401f34    0x1c  main.o [1]
  .rodata          const    0x00401f50    0x1c  main.o [1]
  .rodata          const    0x00401f6c    0x1c  main.o [1]
  .rodata          const    0x00401f88    0x18  main.o [1]
  .rodata          const    0x00401fa0    0x18  main.o [1]
  .rodata          const    0x00401fb8    0x18  main.o [1]
  .rodata          const    0x00401fd0    0x18  main.o [1]
  .text            ro code  0x00401fe8    0x16  cmain.o [6]
  .text            ro code  0x00401ffe     0x4  exit.o [3]
  .text            ro code  0x00402004     0xa  cexit.o [6]
  .text            ro code  0x0040200e    0x16  xprout.o [3]
  .rodata          const    0x00402024     0xc  decode.o [1]
  .rodata          const    0x00402030     0xc  main.o [1]
  .rodata          const    0x0040203c     0xc  main.o [1]
  .rodata          const    0x00402048     0xc  main.o [1]
  .rodata          const    0x00402054     0xc  main.o [1]
  .rodata          const    0x00402060     0xc  pmc.o [5]
  .rodata          const    0x0040206c     0xc  uart_console.o [4]
  .text            ro code  0x00402078     0xc  cstartup_M.o [6]
  .rodata          const    0x00402084     0x4  led.o [4]
  .rodata          const    0x00402088     0x0  bwt_init3c.o [6]
                          - 0x00402088  0x1fb8

"P2", part 1 of 2:                        0xf0
  .bss             zero     0x20000000    0xcc  main.o [1]
  .bss             zero     0x200000cc     0x8  encode.o [1]
  .bss             zero     0x200000d4     0x4  decode.o [1]
  .bss             zero     0x200000d8     0x4  decode.o [1]
  .bss             zero     0x200000dc     0x4  decode.o [1]
  .bss             zero     0x200000e0     0x4  decode.o [1]
  .bss             zero     0x200000e4     0x2  encode.o [1]
  .bss             zero     0x200000e6     0x2  encode.o [1]
  .bss             zero     0x200000e8     0x1  decode.o [1]
  .bss             zero     0x200000e9     0x1  decode.o [1]
  .bss             zero     0x200000ea     0x1  encode.o [1]
  .bss             zero     0x200000eb     0x1  encode.o [1]
  .bss             zero     0x200000ec     0x1  encode.o [1]
  .bss             zero     0x200000ed     0x1  encode.o [1]
  .bss             zero     0x200000ee     0x1  uart_console.o [4]
                          - 0x200000ef    0xef

"P2", part 2 of 2:                      0x3000
  CSTACK                    0x200000f0  0x3000  <Block>
    CSTACK         uninit   0x200000f0  0x3000  <Block tail>
                          - 0x200030f0  0x3000


*******************************************************************************
*** INIT TABLE
***

          Address     Size
          -------     ----
Zero (__iar_zero_init3)
    1 destination range, total size 0xef:
          0x20000000  0xef



*******************************************************************************
*** MODULE SUMMARY
***

    Module                ro code  ro data  rw data
    ------                -------  -------  -------
D:\Firmware\my-project-hihack\trunk\ my-project-hihack --username kaiser.ren@gmail.com\phone_simulate\build\ewarm_630\sam3s\Obj: [1]
    decode.o                  868       12       18
    encode.o                1 692                16
    main.o                    960      836      204
    -----------------------------------------------
    Total:                  3 520      848      238

command line: [2]
    -----------------------------------------------
    Total:

dl7M_tln.a: [3]
    abort.o                     6
    exit.o                      4
    printf.o                   36
    xassert.o                 102
    xprintfsmall.o          1 188
    xprout.o                   22
    xreportassert.o           160
    -----------------------------------------------
    Total:                  1 518

libboard_sam3s_ek_ewarm_dbg.a: [4]
    board_cstartup_iar.o       56      208
    board_lowlevel.o          348
    led.o                     156       40
    uart_console.o            180       12        1
    -----------------------------------------------
    Total:                    740      260        1

libchip_sam3s4_ewarm_dbg.a: [5]
    dacc.o                    204      160
    exceptions.o               74
    pio.o                     430
    pmc.o                     108      140
    wdt.o                       8
    -----------------------------------------------
    Total:                    824      300

rt7M_tl.a: [6]
    XXexit.o                   12
    bwt_init3c.o
    cexit.o                    10
    cmain.o                    22
    cstartup_M.o               12
    data_init3.o               44
    memchr.o                   88
    strchr.o                   22
    strlen.o                   54
    zero_init3.o               34
    -----------------------------------------------
    Total:                    298

    Gaps                        4
    Linker created                      16   12 288
---------------------------------------------------
    Grand Total:            6 904    1 424   12 527


*******************************************************************************
*** ENTRY LIST
***

Entry                      Address   Size  Type      Object
-----                      -------   ----  ----      ------
.vectors$$Base          0x00400000          --   Gb  - Linker created -
.vectors$$Limit         0x004000d0          --   Gb  - Linker created -
?main                   0x00401fe9         Code  Gb  cmain.o [6]
ACC_IrqHandler          0x00400c59    0x2  Code  Wk  exceptions.o [5]
ADC_IrqHandler          0x00400c53    0x2  Code  Wk  exceptions.o [5]
BusFault_Handler        0x00400c1b    0x2  Code  Wk  exceptions.o [5]
CRCCU_IrqHandler        0x00400c57    0x2  Code  Wk  exceptions.o [5]
CSTACK$$Base            0x200000f0          --   Gb  - Linker created -
CSTACK$$Limit           0x200030f0          --   Gb  - Linker created -
DACC_Initialize         0x00400821   0xae  Code  Gb  dacc.o [5]
DACC_SetConversionData  0x004008dd   0x10  Code  Gb  dacc.o [5]
DACC_channel_sine       0x200000ed    0x1  Data  Gb  encode.o [1]
DAC_IrqHandler          0x00400149   0x8c  Code  Gb  encode.o [1]
DebugMon_Handler        0x00400c21    0x2  Code  Wk  exceptions.o [5]
EEFC_IrqHandler         0x00400c31    0x2  Code  Wk  exceptions.o [5]
HardFault_Handler       0x00400c17    0x2  Code  Wk  exceptions.o [5]
IrqHandlerNotUsed       0x00400c13    0x2  Code  Gb  exceptions.o [5]
IsAboutFullCycle        0x00401701   0x24  Code  Lc  decode.o [1]
IsAboutHalfCycle        0x004016dd   0x24  Code  Lc  decode.o [1]
LED_Clear               0x00401619   0x3a  Code  Gb  led.o [4]
LED_Configure           0x004015c1   0x1e  Code  Gb  led.o [4]
LED_Set                 0x004015df   0x3a  Code  Gb  led.o [4]
LowLevelInit            0x004019c1  0x15c  Code  Wk  board_lowlevel.o [4]
MCI_IrqHandler          0x00400c41    0x2  Code  Wk  exceptions.o [5]
MemManage_Handler       0x00400c19    0x2  Code  Wk  exceptions.o [5]
NMI_Handler             0x00400c15    0x2  Code  Wk  exceptions.o [5]
NVIC_ClearPendingIRQ    0x00401205   0x18  Code  Lc  main.o [1]
NVIC_DisableIRQ         0x004011ed   0x18  Code  Lc  main.o [1]
NVIC_EnableIRQ          0x004000d1   0x1a  Code  Lc  encode.o [1]
NVIC_EnableIRQ          0x004011d5   0x18  Code  Lc  main.o [1]
NVIC_SetPriority        0x004000eb   0x26  Code  Lc  encode.o [1]
NVIC_SetPriority        0x0040121d   0x22  Code  Lc  main.o [1]
PIOA_IrqHandler         0x00400c37    0x2  Code  Wk  exceptions.o [5]
PIOB_IrqHandler         0x00400c39    0x2  Code  Wk  exceptions.o [5]
PIOC_IrqHandler         0x00400c3b    0x2  Code  Wk  exceptions.o [5]
PIO_Clear               0x00400a93    0x8  Code  Gb  pio.o [5]
PIO_Configure           0x004009d7   0xb4  Code  Gb  pio.o [5]
PIO_Set                 0x00400a8b    0x8  Code  Gb  pio.o [5]
PIO_SetInput            0x00400975   0x30  Code  Lc  pio.o [5]
PIO_SetOutput           0x004009a5   0x32  Code  Lc  pio.o [5]
PIO_SetPeripheralA      0x004008ed   0x26  Code  Lc  pio.o [5]
PIO_SetPeripheralB      0x00400913   0x22  Code  Lc  pio.o [5]
PIO_SetPeripheralC      0x00400935   0x22  Code  Lc  pio.o [5]
PIO_SetPeripheralD      0x00400957   0x1e  Code  Lc  pio.o [5]
PMC_EnablePeripheral    0x00400b01   0x54  Code  Gb  pmc.o [5]
PMC_IrqHandler          0x00400c2f    0x2  Code  Wk  exceptions.o [5]
PWM_IrqHandler          0x00400c55    0x2  Code  Wk  exceptions.o [5]
PendSV_Handler          0x00400c23    0x2  Code  Wk  exceptions.o [5]
RSTC_IrqHandler         0x00400c27    0x2  Code  Wk  exceptions.o [5]
RTC_IrqHandler          0x00400c29    0x2  Code  Wk  exceptions.o [5]
RTT_IrqHandler          0x00400c2b    0x2  Code  Wk  exceptions.o [5]
Region$$Table$$Base     0x00401ea4          --   Gb  - Linker created -
Region$$Table$$Limit    0x00401eb4          --   Gb  - Linker created -
SMC_IrqHandler          0x00400c35    0x2  Code  Wk  exceptions.o [5]
SPI_IrqHandler          0x00400c47    0x2  Code  Wk  exceptions.o [5]
SSC_IrqHandler          0x00400c49    0x2  Code  Wk  exceptions.o [5]
SUPC_IrqHandler         0x00400c25    0x2  Code  Wk  exceptions.o [5]
SVC_Handler             0x00400c1f    0x2  Code  Wk  exceptions.o [5]
SysTick_Config          0x00400111   0x38  Code  Lc  encode.o [1]
SysTick_Config          0x0040123f   0x32  Code  Lc  main.o [1]
SysTick_Handler         0x0040023f   0x70  Code  Gb  encode.o [1]
TC0_IrqHandler          0x004002af    0xa  Code  Gb  encode.o [1]
TC1_IrqHandler          0x00400c4b    0x2  Code  Wk  exceptions.o [5]
TC2_IrqHandler          0x0040165d   0x46  Code  Gb  decode.o [1]
TC3_IrqHandler          0x00400c4d    0x2  Code  Wk  exceptions.o [5]
TC4_IrqHandler          0x00400c4f    0x2  Code  Wk  exceptions.o [5]
TC5_IrqHandler          0x00400c51    0x2  Code  Wk  exceptions.o [5]
TWI0_IrqHandler         0x00400c43    0x2  Code  Wk  exceptions.o [5]
TWI1_IrqHandler         0x00400c45    0x2  Code  Wk  exceptions.o [5]
TcCaptureInitialize     0x004016a3   0x3a  Code  Gb  decode.o [1]
UART0_IrqHandler        0x004001d5   0x6a  Code  Gb  encode.o [1]
UART1_IrqHandler        0x00400c33    0x2  Code  Wk  exceptions.o [5]
UART_Configure          0x0040076d   0x4c  Code  Gb  uart_console.o [4]
UART_GetChar            0x004007dd   0x20  Code  Gb  uart_console.o [4]
UART_PutChar            0x004007b9   0x24  Code  Gb  uart_console.o [4]
USART0_IrqHandler       0x00400c3d    0x2  Code  Wk  exceptions.o [5]
USART1_IrqHandler       0x00400c3f    0x2  Code  Wk  exceptions.o [5]
USBD_IrqHandler         0x00400c5b    0x2  Code  Wk  exceptions.o [5]
UsageFault_Handler      0x00400c1d    0x2  Code  Wk  exceptions.o [5]
WDT_Disable             0x004015b9    0x8  Code  Gb  wdt.o [5]
WDT_IrqHandler          0x00400c2d    0x2  Code  Wk  exceptions.o [5]
_ConfigureCom           0x0040039b   0x12  Code  Gb  encode.o [1]
_DisplayMenuChoices     0x00401381   0x2e  Code  Lc  main.o [1]
_GetInputValue          0x00401271  0x110  Code  Lc  main.o [1]
_LitobSmall             0x00401035   0xd0  Code  Lc  xprintfsmall.o [3]
_PrintfSmall            0x00400c69  0x3cc  Code  Gb  xprintfsmall.o [3]
_Prout                  0x0040200f   0x16  Code  Gb  xprout.o [3]
__aeabi_assert          0x00400a9d   0x64  Code  Gb  xassert.o [3]
__cmain                 0x00401fe9         Code  Gb  cmain.o [6]
__exit                  0x00400c5d         Code  Gb  XXexit.o [6]
__iar_EmptyStepPoint    0x00400a9b    0x2  Code  Gb  xassert.o [3]
__iar_Memchr            0x0040117d         Code  Gb  memchr.o [6]
__iar_ReportAssert      0x00400b83   0x50  Code  Gb  xreportassert.o [3]
__iar_SB                0x00402088         Data  Gb  bwt_init3c.o [6]
__iar_Strchr            0x0040110d         Code  Gb  strchr.o [6]
__iar_data_init3        0x00401d99   0x2c  Code  Gb  data_init3.o [6]
__iar_program_start     0x00402079         Code  Gb  cstartup_M.o [6]
__iar_zero_init3        0x00401123   0x22  Code  Gb  zero_init3.o [6]
__low_level_init        0x00401d2d   0x38  Code  Gb  board_cstartup_iar.o [4]
__vector_table          0x00400000   0xd0  Data  Gb  board_cstartup_iar.o [4]
_call_main              0x00401ff5         Code  Gb  cmain.o [6]
_exit                   0x00402005         Code  Gb  cexit.o [6]
_main                   0x00401ffb         Code  Gb  cmain.o [6]
_ucIsConsoleInitialized
                        0x200000ee    0x1  Data  Lc  uart_console.o [4]
abort                   0x00400c0d    0x6  Code  Gb  abort.o [3]
amplitude               0x200000e6    0x2  Data  Gb  encode.o [1]
cur_edge                0x200000e9    0x1  Data  Lc  decode.o [1]
cur_stamp               0x200000d8    0x4  Data  Lc  decode.o [1]
dec                     0x200000d4    0x4  Data  Gb  decode.o [1]
dec_parser              0x00401725   0x86  Code  Lc  decode.o [1]
decode_machine          0x004017ab  0x1de  Code  Gb  decode.o [1]
edge_occur              0x200000e8    0x1  Data  Gb  decode.o [1]
enc                     0x200000cc    0x8  Data  Lc  encode.o [1]
enc_init                0x004002b9   0xe2  Code  Gb  encode.o [1]
enc_parser              0x00400405   0xbe  Code  Gb  encode.o [1]
encode_machine          0x004004c3  0x248  Code  Gb  encode.o [1]
exit                    0x00401fff    0x4  Code  Gb  exit.o [3]
frequency               0x200000e4    0x2  Data  Gb  encode.o [1]
index_sample            0x200000eb    0x1  Data  Lc  encode.o [1]
inv                     0x200000e0    0x4  Data  Lc  decode.o [1]
main                    0x004013b5  0x150  Code  Gb  main.o [1]
memchr                  0x0040117d         Code  Gb  memchr.o [6]
numLeds                 0x00402084    0x4  Data  Lc  led.o [4]
odd                     0x200000ea    0x1  Data  Lc  encode.o [1]
offset                  0x200000dc    0x4  Data  Lc  decode.o [1]
out                     0x00400b6d   0x16  Code  Lc  xreportassert.o [3]
pTcPins                 0x00402024    0xc  Data  Lc  decode.o [1]
pins                    0x00401ce4   0x48  Data  Gb  main.o [1]
pinsLeds                0x00401e80   0x24  Data  Lc  led.o [4]
printf                  0x00401595   0x24  Code  Gb  printf.o [3]
putchar                 0x00400811   0x10  Code  Wk  uart_console.o [4]
sine_data               0x00401b1c   0xc8  Data  Gb  main.o [1]
strchr                  0x0040110d         Code  Gb  strchr.o [6]
strlen                  0x00401145         Code  Gb  strlen.o [6]
ticker                  0x200000ec    0x1  Data  Lc  encode.o [1]
us1                     0x20000000   0xcc  Data  Gb  main.o [1]
us1_get_char            0x004003b5   0x50  Code  Gb  encode.o [1]
us1_get_count           0x004003ad    0x8  Code  Gb  encode.o [1]


[1] = D:\Firmware\my-project-hihack\trunk\ my-project-hihack --username kaiser.ren@gmail.com\phone_simulate\build\ewarm_630\sam3s\Obj
[2] = command line
[3] = dl7M_tln.a
[4] = libboard_sam3s_ek_ewarm_dbg.a
[5] = libchip_sam3s4_ewarm_dbg.a
[6] = rt7M_tl.a

   6 904 bytes of readonly  code memory
   1 424 bytes of readonly  data memory
  12 527 bytes of readwrite data memory

Errors: none
Warnings: none
