###############################################################################
#                                                                             #
# IAR ELF Linker V5.41.0.51741/W32 for ARM              29/Dec/2012  10:16:13 #
# Copyright (C) 2007-2009 IAR Systems AB.                                     #
#                                                                             #
#    Output file  =  D:\Firmware\my-project-hihack\trunk\ my-project-hihack   #
#                    --username kaiser.ren@gmail.com\phone_simulate\build\ewa #
#                    rm_541\flash\bin\flash.out                               #
#    Map file     =  D:\Firmware\my-project-hihack\trunk\ my-project-hihack   #
#                    --username kaiser.ren@gmail.com\phone_simulate\build\ewa #
#                    rm_541\flash\obj\flash.map                               #
#    Command line =  "D:\Firmware\my-project-hihack\trunk\ my-project-hihack  #
#                    --username kaiser.ren@gmail.com\phone_simulate\build\ewa #
#                    rm_541\flash\obj\decode.o" "D:\Firmware\my-project-hihac #
#                    k\trunk\ my-project-hihack --username                    #
#                    kaiser.ren@gmail.com\phone_simulate\build\ewarm_541\flas #
#                    h\obj\encode.o" "D:\Firmware\my-project-hihack\trunk\    #
#                    my-project-hihack --username                             #
#                    kaiser.ren@gmail.com\phone_simulate\build\ewarm_541\flas #
#                    h\obj\main.o" "D:\Firmware\my-project-hihack\trunk\      #
#                    my-project-hihack --username                             #
#                    kaiser.ren@gmail.com\phone_simulate\libboard_sam3s-ek\li #
#                    b\libboard_sam3s_ek_ewarm_dbg.a"                         #
#                    "D:\Firmware\my-project-hihack\trunk\ my-project-hihack  #
#                    --username kaiser.ren@gmail.com\phone_simulate\libchip_s #
#                    am3s\lib\libchip_sam3s4_ewarm_dbg.a" --redirect          #
#                    _Printf=_PrintfSmall --redirect _Scanf=_ScanfSmall -o    #
#                    "D:\Firmware\my-project-hihack\trunk\ my-project-hihack  #
#                    --username kaiser.ren@gmail.com\phone_simulate\build\ewa #
#                    rm_541\flash\bin\flash.out" --map                        #
#                    "D:\Firmware\my-project-hihack\trunk\ my-project-hihack  #
#                    --username kaiser.ren@gmail.com\phone_simulate\build\ewa #
#                    rm_541\flash\obj\flash.map" --config                     #
#                    "D:\Firmware\my-project-hihack\trunk\ my-project-hihack  #
#                    --username kaiser.ren@gmail.com\phone_simulate\build\ewa #
#                    rm_541/flash.icf" --remarks --entry __iar_program_start  #
#                                                                             #
#                                                                             #
###############################################################################

*******************************************************************************
*** PLACEMENT SUMMARY
***

"A1":  place at 0x00400000 { ro section .vectors };
"P1":  place in [from 0x00400000 to 0x0043ffff] { ro };
"P2":  place in [from 0x20000000 to 0x2000bfff] {
          rw, block CSTACK, block HEAP };

  Section          Kind        Address    Size  Object
  -------          ----        -------    ----  ------
"A1":                                     0xd0
  .vectors                  0x00400000    0xd0  <Block>
    .vectors       const    0x00400000    0xd0  board_cstartup_iar.o [4]
                          - 0x004000d0    0xd0

"P1":                                   0x1ef0
  SOFTPACK         ro code  0x004000d0   0x56c  encode.o [1]
  SOFTPACK         ro code  0x0040063c   0x484  main.o [1]
  .text            ro code  0x00400ac0   0x434  xprintfsmall.o [3]
  SOFTPACK         ro code  0x00400ef4   0x350  decode.o [1]
  SAM3S4           ro code  0x00401244   0x1ae  pio.o [5]
  SAM3S-EK         ro code  0x004013f4   0x15c  board_lowlevel.o [4]
  SAM3S4           ro code  0x00401550    0xcc  dacc.o [5]
  .rodata          const    0x0040161c    0xc8  main.o [1]
  SAM3S-EK         ro code  0x004016e4    0xb4  uart_console.o [4]
  SAM3S-EK         ro code  0x00401798    0x9c  led.o [4]
  .rodata          const    0x00401834    0x80  pmc.o [5]
  .rodata          const    0x004018b4    0x80  dacc.o [5]
  SAM3S4           ro code  0x00401934    0x78  usart.o [5]
  .text            ro code  0x004019ac    0x74  xreportassert.o [3]
  SAM3S4           ro code  0x00401a20    0x6c  pmc.o [5]
  .text            ro code  0x00401a8c    0x58  memchr.o [6]
  SAM3S4           ro code  0x00401ae4    0x4a  exceptions.o [5]
  .text            ro code  0x00401b2e    0x48  xassert.o [3]
  .rodata          const    0x00401b78    0x3c  main.o [1]
  SAM3S-EK         ro code  0x00401bb4    0x38  board_cstartup_iar.o [4]
  .text            ro code  0x00401bec    0x36  strlen.o [6]
  .rodata          const    0x00401c24    0x34  main.o [1]
  .rodata          const    0x00401c58    0x30  xreportassert.o [3]
  .rodata          const    0x00401c88    0x28  main.o [1]
  .rodata          const    0x00401cb0    0x28  main.o [1]
  .rodata          const    0x00401cd8    0x24  main.o [1]
  .rodata          const    0x00401cfc    0x24  main.o [1]
  .rodata          const    0x00401d20    0x24  led.o [4]
  .iar.init_table  const    0x00401d44    0x10  - Linker created -
  .rodata          const    0x00401d54    0x20  main.o [1]
  .rodata          const    0x00401d74    0x20  main.o [1]
  .rodata          const    0x00401d94    0x20  main.o [1]
  .rodata          const    0x00401db4    0x20  dacc.o [5]
  .text            ro code  0x00401dd4    0x20  printf.o [3]
  .text            ro code  0x00401df4    0x20  data_init2.o [6]
  .rodata          const    0x00401e14    0x1c  main.o [1]
  .rodata          const    0x00401e30    0x1c  main.o [1]
  .rodata          const    0x00401e4c    0x1c  main.o [1]
  .text            ro code  0x00401e68    0x1a  zero_init2.o [6]
  .rodata          const    0x00401e84    0x18  main.o [1]
  .rodata          const    0x00401e9c    0x18  main.o [1]
  .rodata          const    0x00401eb4    0x18  main.o [1]
  .rodata          const    0x00401ecc    0x18  main.o [1]
  .text            ro code  0x00401ee4    0x18  cmain.o [6]
  .text            ro code  0x00401efc    0x16  strchr.o [6]
  .text            ro code  0x00401f12    0x16  xprout.o [3]
  .rodata          const    0x00401f28     0xc  decode.o [1]
  .rodata          const    0x00401f34     0xc  main.o [1]
  .rodata          const    0x00401f40     0xc  main.o [1]
  .rodata          const    0x00401f4c     0xc  main.o [1]
  .rodata          const    0x00401f58     0xc  main.o [1]
  .rodata          const    0x00401f64     0xc  pmc.o [5]
  .rodata          const    0x00401f70     0xc  uart_console.o [4]
  .text            ro code  0x00401f7c     0xc  XXexit.o [6]
  .text            ro code  0x00401f88     0xa  cexit.o [6]
  .rodata          const    0x00401f94     0x8  main.o [1]
  .rodata          const    0x00401f9c     0x8  xprintfsmall.o [3]
  SAM3S4           ro code  0x00401fa4     0x8  wdt.o [5]
  .text            ro code  0x00401fac     0x8  abort.o [3]
  .text            ro code  0x00401fb4     0x6  exit.o [3]
  .rodata          const    0x00401fbc     0x4  led.o [4]
                          - 0x00401fc0  0x1ef0

"P2", part 1 of 2:                      0x3000
  CSTACK                    0x20000000  0x3000  <Block>
    CSTACK         uninit   0x20000000  0x3000  <Block tail>
                          - 0x20003000  0x3000

"P2", part 2 of 2:                        0x48
  .bss             zero     0x20003000    0x18  main.o [1]
  .bss             zero     0x20003018     0xc  decode.o [1]
  .bss             zero     0x20003024     0x8  encode.o [1]
  .bss             zero     0x2000302c     0x4  decode.o [1]
  .bss             zero     0x20003030     0x4  decode.o [1]
  .bss             zero     0x20003034     0x4  decode.o [1]
  .bss             zero     0x20003038     0x4  decode.o [1]
  .bss             zero     0x2000303c     0x2  main.o [1]
  .bss             zero     0x2000303e     0x2  main.o [1]
  .bss             zero     0x20003040     0x1  decode.o [1]
  .bss             zero     0x20003041     0x1  encode.o [1]
  .bss             zero     0x20003042     0x1  main.o [1]
  .bss             zero     0x20003043     0x1  main.o [1]
  .bss             zero     0x20003044     0x1  main.o [1]
  .bss             zero     0x20003045     0x1  uart_console.o [4]
                          - 0x20003046    0x46


*******************************************************************************
*** INIT TABLE
***

          Address     Size
          -------     ----
Zero (__iar_zero_init2)
    1 destination range, total size 0x46:
          0x20003000  0x46


*******************************************************************************
*** MODULE SUMMARY
***

    Module                ro code  ro data  rw data
    ------                -------  -------  -------
D:\Firmware\my-project-hihack\trunk\ my-project-hihack --username kaiser.ren@gmail.com\phone_simulate\build\ewarm_541\flash\obj: [1]
    decode.o                  848       12       29
    encode.o                1 388                 9
    main.o                  1 156      796       31
    -----------------------------------------------
    Total:                  3 392      808       69

command line: [2]
    -----------------------------------------------
    Total:

dl7M_tl_in.a: [3]
    abort.o                     8
    exit.o                      6
    printf.o                   32
    xassert.o                  72
    xprintfsmall.o          1 076        8
    xprout.o                   22
    xreportassert.o           116       48
    -----------------------------------------------
    Total:                  1 332       56

libboard_sam3s_ek_ewarm_dbg.a: [4]
    board_cstartup_iar.o       56      208
    board_lowlevel.o          348
    led.o                     156       40
    uart_console.o            180       12        1
    -----------------------------------------------
    Total:                    740      260        1

libchip_sam3s4_ewarm_dbg.a: [5]
    dacc.o                    204      160
    exceptions.o               74
    pio.o                     430
    pmc.o                     108      140
    usart.o                   120
    wdt.o                       8
    -----------------------------------------------
    Total:                    944      300

rt7M_tl.a: [6]
    XXexit.o                   12
    cexit.o                    10
    cmain.o                    24
    data_init2.o               32
    memchr.o                   88
    strchr.o                   22
    strlen.o                   54
    zero_init2.o               26
    -----------------------------------------------
    Total:                    268

    Gaps                        2       10
    Linker created                      16   12 288
---------------------------------------------------
    Grand Total:            6 678    1 450   12 358


*******************************************************************************
*** ENTRY LIST
***

Entry                      Address   Size  Type      Object
-----                      -------   ----  ----      ------
.vectors$$Base          0x00400000          --   Gb  - Linker created -
.vectors$$Limit         0x004000d0          --   Gb  - Linker created -
ACC_IrqHandler          0x00401b2b    0x2  Code  Wk  exceptions.o [5]
ADC_IrqHandler          0x00401b25    0x2  Code  Wk  exceptions.o [5]
BusFault_Handler        0x00401aed    0x2  Code  Wk  exceptions.o [5]
CRCCU_IrqHandler        0x00401b29    0x2  Code  Wk  exceptions.o [5]
CSTACK$$Base            0x20000000          --   Gb  - Linker created -
CSTACK$$Limit           0x20003000          --   Gb  - Linker created -
DACC_Initialize         0x00401551   0xae  Code  Gb  dacc.o [5]
DACC_SetConversionData  0x0040160d   0x10  Code  Gb  dacc.o [5]
DACC_channel_sine       0x20003042    0x1  Data  Gb  main.o [1]
DAC_IrqHandler          0x004000eb   0x8c  Code  Gb  encode.o [1]
DebugMon_Handler        0x00401af3    0x2  Code  Wk  exceptions.o [5]
EEFC_IrqHandler         0x00401b03    0x2  Code  Wk  exceptions.o [5]
HardFault_Handler       0x00401ae9    0x2  Code  Wk  exceptions.o [5]
IrqHandlerNotUsed       0x00401ae5    0x2  Code  Gb  exceptions.o [5]
IsAbout1000us           0x00400f8f   0x1e  Code  Lc  decode.o [1]
IsAbout500us            0x00400f71   0x1e  Code  Lc  decode.o [1]
LED_Clear               0x004017f1   0x3a  Code  Gb  led.o [4]
LED_Configure           0x00401799   0x1e  Code  Gb  led.o [4]
LED_Set                 0x004017b7   0x3a  Code  Gb  led.o [4]
LowLevelInit            0x004013f5  0x15c  Code  Wk  board_lowlevel.o [4]
MCI_IrqHandler          0x00401b13    0x2  Code  Wk  exceptions.o [5]
MemManage_Handler       0x00401aeb    0x2  Code  Wk  exceptions.o [5]
NMI_Handler             0x00401ae7    0x2  Code  Wk  exceptions.o [5]
NVIC_ClearPendingIRQ    0x00400671   0x1a  Code  Lc  main.o [1]
NVIC_DisableIRQ         0x00400657   0x1a  Code  Lc  main.o [1]
NVIC_EnableIRQ          0x004000d1   0x1a  Code  Lc  encode.o [1]
NVIC_EnableIRQ          0x0040063d   0x1a  Code  Lc  main.o [1]
NVIC_SetPriority        0x0040068b   0x26  Code  Lc  main.o [1]
PIOA_IrqHandler         0x00401b0b    0x2  Code  Wk  exceptions.o [5]
PIOB_IrqHandler         0x00401b0d    0x2  Code  Wk  exceptions.o [5]
PIOC_IrqHandler         0x00401b0f    0x2  Code  Wk  exceptions.o [5]
PIO_Clear               0x004013eb    0x8  Code  Gb  pio.o [5]
PIO_Configure           0x0040132f   0xb4  Code  Gb  pio.o [5]
PIO_Set                 0x004013e3    0x8  Code  Gb  pio.o [5]
PIO_SetInput            0x004012cd   0x30  Code  Lc  pio.o [5]
PIO_SetOutput           0x004012fd   0x32  Code  Lc  pio.o [5]
PIO_SetPeripheralA      0x00401245   0x26  Code  Lc  pio.o [5]
PIO_SetPeripheralB      0x0040126b   0x22  Code  Lc  pio.o [5]
PIO_SetPeripheralC      0x0040128d   0x22  Code  Lc  pio.o [5]
PIO_SetPeripheralD      0x004012af   0x1e  Code  Lc  pio.o [5]
PMC_EnablePeripheral    0x00401a21   0x54  Code  Gb  pmc.o [5]
PMC_IrqHandler          0x00401b01    0x2  Code  Wk  exceptions.o [5]
PWM_IrqHandler          0x00401b27    0x2  Code  Wk  exceptions.o [5]
PendSV_Handler          0x00401af5    0x2  Code  Wk  exceptions.o [5]
RSTC_IrqHandler         0x00401af9    0x2  Code  Wk  exceptions.o [5]
RTC_IrqHandler          0x00401afb    0x2  Code  Wk  exceptions.o [5]
RTT_IrqHandler          0x00401afd    0x2  Code  Wk  exceptions.o [5]
Region$$Table$$Base     0x00401d44          --   Gb  - Linker created -
Region$$Table$$Limit    0x00401d54          --   Gb  - Linker created -
SMC_IrqHandler          0x00401b09    0x2  Code  Wk  exceptions.o [5]
SPI_IrqHandler          0x00401b19    0x2  Code  Wk  exceptions.o [5]
SSC_IrqHandler          0x00401b1b    0x2  Code  Wk  exceptions.o [5]
SUPC_IrqHandler         0x00401af7    0x2  Code  Wk  exceptions.o [5]
SVC_Handler             0x00401af1    0x2  Code  Wk  exceptions.o [5]
SysTick_Config          0x004006b1   0x38  Code  Lc  main.o [1]
SysTick_Handler         0x004001e9   0x70  Code  Gb  encode.o [1]
TC0_IrqHandler          0x00400831    0x2  Code  Gb  main.o [1]
TC1_IrqHandler          0x00401b1d    0x2  Code  Wk  exceptions.o [5]
TC2_IrqHandler          0x00400ef5   0x44  Code  Gb  decode.o [1]
TC3_IrqHandler          0x00401b1f    0x2  Code  Wk  exceptions.o [5]
TC4_IrqHandler          0x00401b21    0x2  Code  Wk  exceptions.o [5]
TC5_IrqHandler          0x00401b23    0x2  Code  Wk  exceptions.o [5]
TWI0_IrqHandler         0x00401b15    0x2  Code  Wk  exceptions.o [5]
TWI1_IrqHandler         0x00401b17    0x2  Code  Wk  exceptions.o [5]
TcCaptureInitialize     0x00400f39   0x38  Code  Gb  decode.o [1]
UART0_IrqHandler        0x00401b05    0x2  Code  Wk  exceptions.o [5]
UART1_IrqHandler        0x00401b07    0x2  Code  Wk  exceptions.o [5]
UART_Configure          0x004016e5   0x4c  Code  Gb  uart_console.o [4]
UART_GetChar            0x00401755   0x20  Code  Gb  uart_console.o [4]
UART_PutChar            0x00401731   0x24  Code  Gb  uart_console.o [4]
USART0_IrqHandler       0x00401b11    0x2  Code  Wk  exceptions.o [5]
USART1_IrqHandler       0x00400177   0x72  Code  Gb  encode.o [1]
USART_Configure         0x00401935   0x42  Code  Gb  usart.o [5]
USART_GetChar           0x004019a1    0xc  Code  Gb  usart.o [5]
USART_SetReceiverEnabled
                        0x00401989   0x12  Code  Gb  usart.o [5]
USART_SetTransmitterEnabled
                        0x00401977   0x12  Code  Gb  usart.o [5]
USBD_IrqHandler         0x00401b2d    0x2  Code  Wk  exceptions.o [5]
UsageFault_Handler      0x00401aef    0x2  Code  Wk  exceptions.o [5]
WDT_Disable             0x00401fa5    0x8  Code  Gb  wdt.o [5]
WDT_IrqHandler          0x00401aff    0x2  Code  Wk  exceptions.o [5]
_ConfigureUsart         0x00400259   0x48  Code  Gb  encode.o [1]
_DisplayMenuChoices     0x004007fb   0x2e  Code  Lc  main.o [1]
_GetInputValue          0x004006e9  0x112  Code  Lc  main.o [1]
_LitobSmall             0x00400e3f   0xb6  Code  Lc  xprintfsmall.o [3]
_PrintfSmall            0x00400ac1  0x33c  Code  Gb  xprintfsmall.o [3]
_Prout                  0x00401f13   0x16  Code  Gb  xprout.o [3]
__aeabi_assert          0x00401b31   0x46  Code  Gb  xassert.o [3]
__exit                  0x00401f7d         Code  Gb  XXexit.o [6]
__iar_EmptyStepPoint    0x00401b2f    0x2  Code  Gb  xassert.o [3]
__iar_Memchr            0x00401a8d         Code  Gb  memchr.o [6]
__iar_ReportAssert      0x004019c3   0x52  Code  Gb  xreportassert.o [3]
__iar_Strchr            0x00401efd         Code  Gb  strchr.o [6]
__iar_data_init2        0x00401df5   0x20  Code  Gb  data_init2.o [6]
__iar_program_start     0x00401ee5         Code  Gb  cmain.o [6]
__iar_zero_init2        0x00401e69   0x1a  Code  Gb  zero_init2.o [6]
__low_level_init        0x00401bb5   0x38  Code  Gb  board_cstartup_iar.o [4]
__vector_table          0x00400000   0xd0  Data  Gb  board_cstartup_iar.o [4]
_exit                   0x00401f89         Code  Gb  cexit.o [6]
_main                   0x00401ef7         Code  Gb  cmain.o [6]
_ucIsConsoleInitialized
                        0x20003045    0x1  Data  Lc  uart_console.o [4]
abort                   0x00401fad    0x8  Code  Gb  abort.o [3]
amplitude               0x2000303e    0x2  Data  Gb  main.o [1]
cur_edge                0x20003040    0x1  Data  Lc  decode.o [1]
cur_stamp               0x20003030    0x4  Data  Lc  decode.o [1]
dec                     0x20003018    0xc  Data  Gb  decode.o [1]
decode_machine          0x00401031  0x1dc  Code  Gb  decode.o [1]
edge_occur              0x2000302c    0x4  Data  Gb  decode.o [1]
encode_switch           0x004003ab  0x24c  Code  Gb  encode.o [1]
exit                    0x00401fb5    0x6  Code  Gb  exit.o [3]
findParam               0x004002f5   0xb6  Code  Gb  encode.o [1]
findPhase               0x00400fad   0x84  Code  Gb  decode.o [1]
frequency               0x2000303c    0x2  Data  Gb  main.o [1]
index_sample            0x20003043    0x1  Data  Gb  main.o [1]
inv                     0x20003038    0x4  Data  Lc  decode.o [1]
main                    0x00400833  0x1e0  Code  Gb  main.o [1]
memchr                  0x00401a8d         Code  Gb  memchr.o [6]
mod                     0x20003024    0x8  Data  Gb  encode.o [1]
numLeds                 0x00401fbc    0x4  Data  Lc  led.o [4]
odd                     0x20003041    0x1  Data  Lc  encode.o [1]
offset                  0x20003034    0x4  Data  Lc  decode.o [1]
out                     0x004019ad   0x16  Code  Lc  xreportassert.o [3]
pTcPins                 0x00401f28    0xc  Data  Lc  decode.o [1]
pad                     0x00400e01   0x3e  Code  Lc  xprintfsmall.o [3]
pins                    0x00401b78   0x3c  Data  Gb  main.o [1]
pinsLeds                0x00401d20   0x24  Data  Lc  led.o [4]
printf                  0x00401dd5   0x20  Code  Gb  printf.o [3]
putchar                 0x00401789   0x10  Code  Wk  uart_console.o [4]
sine_data               0x0040161c   0xc8  Data  Gb  main.o [1]
strchr                  0x00401efd         Code  Gb  strchr.o [6]
strlen                  0x00401bed         Code  Gb  strlen.o [6]
ticker                  0x20003044    0x1  Data  Gb  main.o [1]
us1                     0x20003000   0x18  Data  Gb  main.o [1]
us1_get_char            0x004002a9   0x4c  Code  Gb  encode.o [1]
us1_get_count           0x004002a1    0x8  Code  Gb  encode.o [1]


[1] = D:\Firmware\my-project-hihack\trunk\ my-project-hihack --username kaiser.ren@gmail.com\phone_simulate\build\ewarm_541\flash\obj
[2] = command line
[3] = dl7M_tl_in.a
[4] = libboard_sam3s_ek_ewarm_dbg.a
[5] = libchip_sam3s4_ewarm_dbg.a
[6] = rt7M_tl.a

   6 678 bytes of readonly  code memory
   1 450 bytes of readonly  data memory
  12 358 bytes of readwrite data memory

Errors: none
Warnings: none
