###############################################################################
#                                                                             #
# IAR ELF Linker V6.30.6.53336/W32 for ARM              17/Jun/2013  14:11:43 #
# Copyright 2007-2012 IAR Systems AB.                                         #
#                                                                             #
#    Output file  =  D:\Firmware\my-project-hihack\trunk\ my-project-hihack   #
#                    --username kaiser.ren@gmail.com\phone_simulate\build\ewa #
#                    rm_630\sam3s\Exe\sam3s.out                               #
#    Map file     =  D:\Firmware\my-project-hihack\trunk\ my-project-hihack   #
#                    --username kaiser.ren@gmail.com\phone_simulate\build\ewa #
#                    rm_630\sam3s\List\sam3s.map                              #
#    Command line =  "D:\Firmware\my-project-hihack\trunk\ my-project-hihack  #
#                    --username kaiser.ren@gmail.com\phone_simulate\build\ewa #
#                    rm_630\sam3s\Obj\decode.o" "D:\Firmware\my-project-hihac #
#                    k\trunk\ my-project-hihack --username                    #
#                    kaiser.ren@gmail.com\phone_simulate\build\ewarm_630\sam3 #
#                    s\Obj\encode.o" "D:\Firmware\my-project-hihack\trunk\    #
#                    my-project-hihack --username                             #
#                    kaiser.ren@gmail.com\phone_simulate\build\ewarm_630\sam3 #
#                    s\Obj\main.o" "D:\Firmware\my-project-hihack\trunk\      #
#                    my-project-hihack --username                             #
#                    kaiser.ren@gmail.com\phone_simulate\libboard_sam3s-ek\li #
#                    b\libboard_sam3s_ek_ewarm_dbg.a"                         #
#                    "D:\Firmware\my-project-hihack\trunk\ my-project-hihack  #
#                    --username kaiser.ren@gmail.com\phone_simulate\libchip_s #
#                    am3s\lib\libchip_sam3s4_ewarm_dbg.a" --redirect          #
#                    _Printf=_PrintfSmall --redirect _Scanf=_ScanfSmall -o    #
#                    "D:\Firmware\my-project-hihack\trunk\ my-project-hihack  #
#                    --username kaiser.ren@gmail.com\phone_simulate\build\ewa #
#                    rm_630\sam3s\Exe\sam3s.out" --map                        #
#                    "D:\Firmware\my-project-hihack\trunk\ my-project-hihack  #
#                    --username kaiser.ren@gmail.com\phone_simulate\build\ewa #
#                    rm_630\sam3s\List\sam3s.map" --config                    #
#                    "D:\Firmware\my-project-hihack\trunk\ my-project-hihack  #
#                    --username kaiser.ren@gmail.com\phone_simulate\build\ewa #
#                    rm_630/../../resource/sam3s4c/flash.icf" --entry         #
#                    __iar_program_start --vfe                                #
#                                                                             #
#                                                                             #
###############################################################################

*******************************************************************************
*** RUNTIME MODEL ATTRIBUTES
***

CppFlavor       = *
__SystemLibrary = DLib


*******************************************************************************
*** PLACEMENT SUMMARY
***

"A1":  place at 0x00400000 { ro section .vectors };
"P1":  place in [from 0x00400000 to 0x0043ffff] { ro };
"P2":  place in [from 0x20000000 to 0x2000bfff] { rw, block CSTACK, block HEAP };

  Section          Kind        Address    Size  Object
  -------          ----        -------    ----  ------
"A1":                                     0xd0
  .vectors                  0x00400000    0xd0  <Block>
    .vectors       const    0x00400000    0xd0  board_cstartup_iar.o [4]
                          - 0x004000d0    0xd0

"P1":                                   0x1fac
  SOFTPACK         ro code  0x004000d0   0x698  encode.o [1]
  SAM3S-EK         ro code  0x00400768    0xb4  uart_console.o [4]
  SAM3S4           ro code  0x0040081c    0xcc  dacc.o [5]
  SAM3S4           ro code  0x004008e8   0x1ae  pio.o [5]
  .text            ro code  0x00400a96    0x66  xassert.o [3]
  SAM3S4           ro code  0x00400afc    0x6c  pmc.o [5]
  .text            ro code  0x00400b68    0xa0  xreportassert.o [3]
  .text            ro code  0x00400c08     0x6  abort.o [3]
  SAM3S4           ro code  0x00400c0e    0x4a  exceptions.o [5]
  .text            ro code  0x00400c58     0xc  XXexit.o [6]
  .text            ro code  0x00400c64   0x4a4  xprintfsmall.o [3]
  .text            ro code  0x00401108    0x16  strchr.o [6]
  .text            ro code  0x0040111e    0x22  zero_init3.o [6]
  .text            ro code  0x00401140    0x36  strlen.o [6]
  .text            ro code  0x00401178    0x58  memchr.o [6]
  SOFTPACK         ro code  0x004011d0   0x3b8  main.o [1]
  .text            ro code  0x00401588    0x24  printf.o [3]
  SAM3S4           ro code  0x004015ac     0x8  wdt.o [5]
  SAM3S-EK         ro code  0x004015b4    0x9c  led.o [4]
  SOFTPACK         ro code  0x00401650   0x364  decode.o [1]
  SAM3S-EK         ro code  0x004019b4   0x15c  board_lowlevel.o [4]
  .rodata          const    0x00401b10    0xc8  main.o [1]
  .rodata          const    0x00401bd8    0x80  pmc.o [5]
  .rodata          const    0x00401c58    0x80  dacc.o [5]
  .rodata          const    0x00401cd8    0x48  main.o [1]
  SAM3S-EK         ro code  0x00401d20    0x38  board_cstartup_iar.o [4]
  .rodata          const    0x00401d58    0x34  main.o [1]
  .text            ro code  0x00401d8c    0x2c  data_init3.o [6]
  .rodata          const    0x00401db8    0x28  main.o [1]
  .rodata          const    0x00401de0    0x28  main.o [1]
  .rodata          const    0x00401e08    0x24  main.o [1]
  .rodata          const    0x00401e2c    0x24  main.o [1]
  .rodata          const    0x00401e50    0x24  main.o [1]
  .rodata          const    0x00401e74    0x24  led.o [4]
  .iar.init_table  const    0x00401e98    0x10  - Linker created -
  .rodata          const    0x00401ea8    0x20  main.o [1]
  .rodata          const    0x00401ec8    0x20  main.o [1]
  .rodata          const    0x00401ee8    0x20  main.o [1]
  .rodata          const    0x00401f08    0x20  dacc.o [5]
  .rodata          const    0x00401f28    0x1c  main.o [1]
  .rodata          const    0x00401f44    0x1c  main.o [1]
  .rodata          const    0x00401f60    0x1c  main.o [1]
  .rodata          const    0x00401f7c    0x18  main.o [1]
  .rodata          const    0x00401f94    0x18  main.o [1]
  .rodata          const    0x00401fac    0x18  main.o [1]
  .rodata          const    0x00401fc4    0x18  main.o [1]
  .text            ro code  0x00401fdc    0x16  cmain.o [6]
  .text            ro code  0x00401ff2     0x4  exit.o [3]
  .text            ro code  0x00401ff8     0xa  cexit.o [6]
  .text            ro code  0x00402002    0x16  xprout.o [3]
  .rodata          const    0x00402018     0xc  decode.o [1]
  .rodata          const    0x00402024     0xc  main.o [1]
  .rodata          const    0x00402030     0xc  main.o [1]
  .rodata          const    0x0040203c     0xc  main.o [1]
  .rodata          const    0x00402048     0xc  main.o [1]
  .rodata          const    0x00402054     0xc  pmc.o [5]
  .rodata          const    0x00402060     0xc  uart_console.o [4]
  .text            ro code  0x0040206c     0xc  cstartup_M.o [6]
  .rodata          const    0x00402078     0x4  led.o [4]
  .rodata          const    0x0040207c     0x0  bwt_init3c.o [6]
                          - 0x0040207c  0x1fac

"P2", part 1 of 2:                        0xf0
  .bss             zero     0x20000000    0xcc  main.o [1]
  .bss             zero     0x200000cc     0x8  encode.o [1]
  .bss             zero     0x200000d4     0x4  decode.o [1]
  .bss             zero     0x200000d8     0x4  decode.o [1]
  .bss             zero     0x200000dc     0x4  decode.o [1]
  .bss             zero     0x200000e0     0x4  decode.o [1]
  .bss             zero     0x200000e4     0x2  encode.o [1]
  .bss             zero     0x200000e6     0x2  encode.o [1]
  .bss             zero     0x200000e8     0x1  decode.o [1]
  .bss             zero     0x200000e9     0x1  decode.o [1]
  .bss             zero     0x200000ea     0x1  encode.o [1]
  .bss             zero     0x200000eb     0x1  encode.o [1]
  .bss             zero     0x200000ec     0x1  encode.o [1]
  .bss             zero     0x200000ed     0x1  encode.o [1]
  .bss             zero     0x200000ee     0x1  uart_console.o [4]
                          - 0x200000ef    0xef

"P2", part 2 of 2:                      0x3000
  CSTACK                    0x200000f0  0x3000  <Block>
    CSTACK         uninit   0x200000f0  0x3000  <Block tail>
                          - 0x200030f0  0x3000


*******************************************************************************
*** INIT TABLE
***

          Address     Size
          -------     ----
Zero (__iar_zero_init3)
    1 destination range, total size 0xef:
          0x20000000  0xef



*******************************************************************************
*** MODULE SUMMARY
***

    Module                ro code  ro data  rw data
    ------                -------  -------  -------
D:\Firmware\my-project-hihack\trunk\ my-project-hihack --username kaiser.ren@gmail.com\phone_simulate\build\ewarm_630\sam3s\Obj: [1]
    decode.o                  868       12       18
    encode.o                1 688                16
    main.o                    952      836      204
    -----------------------------------------------
    Total:                  3 508      848      238

command line: [2]
    -----------------------------------------------
    Total:

dl7M_tln.a: [3]
    abort.o                     6
    exit.o                      4
    printf.o                   36
    xassert.o                 102
    xprintfsmall.o          1 188
    xprout.o                   22
    xreportassert.o           160
    -----------------------------------------------
    Total:                  1 518

libboard_sam3s_ek_ewarm_dbg.a: [4]
    board_cstartup_iar.o       56      208
    board_lowlevel.o          348
    led.o                     156       40
    uart_console.o            180       12        1
    -----------------------------------------------
    Total:                    740      260        1

libchip_sam3s4_ewarm_dbg.a: [5]
    dacc.o                    204      160
    exceptions.o               74
    pio.o                     430
    pmc.o                     108      140
    wdt.o                       8
    -----------------------------------------------
    Total:                    824      300

rt7M_tl.a: [6]
    XXexit.o                   12
    bwt_init3c.o
    cexit.o                    10
    cmain.o                    22
    cstartup_M.o               12
    data_init3.o               44
    memchr.o                   88
    strchr.o                   22
    strlen.o                   54
    zero_init3.o               34
    -----------------------------------------------
    Total:                    298

    Gaps                        4
    Linker created                      16   12 288
---------------------------------------------------
    Grand Total:            6 892    1 424   12 527


*******************************************************************************
*** ENTRY LIST
***

Entry                      Address   Size  Type      Object
-----                      -------   ----  ----      ------
.vectors$$Base          0x00400000          --   Gb  - Linker created -
.vectors$$Limit         0x004000d0          --   Gb  - Linker created -
?main                   0x00401fdd         Code  Gb  cmain.o [6]
ACC_IrqHandler          0x00400c55    0x2  Code  Wk  exceptions.o [5]
ADC_IrqHandler          0x00400c4f    0x2  Code  Wk  exceptions.o [5]
BusFault_Handler        0x00400c17    0x2  Code  Wk  exceptions.o [5]
CRCCU_IrqHandler        0x00400c53    0x2  Code  Wk  exceptions.o [5]
CSTACK$$Base            0x200000f0          --   Gb  - Linker created -
CSTACK$$Limit           0x200030f0          --   Gb  - Linker created -
DACC_Initialize         0x0040081d   0xae  Code  Gb  dacc.o [5]
DACC_SetConversionData  0x004008d9   0x10  Code  Gb  dacc.o [5]
DACC_channel_sine       0x200000ed    0x1  Data  Gb  encode.o [1]
DAC_IrqHandler          0x00400149   0x8c  Code  Gb  encode.o [1]
DebugMon_Handler        0x00400c1d    0x2  Code  Wk  exceptions.o [5]
EEFC_IrqHandler         0x00400c2d    0x2  Code  Wk  exceptions.o [5]
HardFault_Handler       0x00400c13    0x2  Code  Wk  exceptions.o [5]
IrqHandlerNotUsed       0x00400c0f    0x2  Code  Gb  exceptions.o [5]
IsAboutFullCycle        0x004016f5   0x24  Code  Lc  decode.o [1]
IsAboutHalfCycle        0x004016d1   0x24  Code  Lc  decode.o [1]
LED_Clear               0x0040160d   0x3a  Code  Gb  led.o [4]
LED_Configure           0x004015b5   0x1e  Code  Gb  led.o [4]
LED_Set                 0x004015d3   0x3a  Code  Gb  led.o [4]
LowLevelInit            0x004019b5  0x15c  Code  Wk  board_lowlevel.o [4]
MCI_IrqHandler          0x00400c3d    0x2  Code  Wk  exceptions.o [5]
MemManage_Handler       0x00400c15    0x2  Code  Wk  exceptions.o [5]
NMI_Handler             0x00400c11    0x2  Code  Wk  exceptions.o [5]
NVIC_ClearPendingIRQ    0x00401201   0x18  Code  Lc  main.o [1]
NVIC_DisableIRQ         0x004011e9   0x18  Code  Lc  main.o [1]
NVIC_EnableIRQ          0x004000d1   0x1a  Code  Lc  encode.o [1]
NVIC_EnableIRQ          0x004011d1   0x18  Code  Lc  main.o [1]
NVIC_SetPriority        0x004000eb   0x26  Code  Lc  encode.o [1]
NVIC_SetPriority        0x00401219   0x22  Code  Lc  main.o [1]
PIOA_IrqHandler         0x00400c33    0x2  Code  Wk  exceptions.o [5]
PIOB_IrqHandler         0x00400c35    0x2  Code  Wk  exceptions.o [5]
PIOC_IrqHandler         0x00400c37    0x2  Code  Wk  exceptions.o [5]
PIO_Clear               0x00400a8f    0x8  Code  Gb  pio.o [5]
PIO_Configure           0x004009d3   0xb4  Code  Gb  pio.o [5]
PIO_Set                 0x00400a87    0x8  Code  Gb  pio.o [5]
PIO_SetInput            0x00400971   0x30  Code  Lc  pio.o [5]
PIO_SetOutput           0x004009a1   0x32  Code  Lc  pio.o [5]
PIO_SetPeripheralA      0x004008e9   0x26  Code  Lc  pio.o [5]
PIO_SetPeripheralB      0x0040090f   0x22  Code  Lc  pio.o [5]
PIO_SetPeripheralC      0x00400931   0x22  Code  Lc  pio.o [5]
PIO_SetPeripheralD      0x00400953   0x1e  Code  Lc  pio.o [5]
PMC_EnablePeripheral    0x00400afd   0x54  Code  Gb  pmc.o [5]
PMC_IrqHandler          0x00400c2b    0x2  Code  Wk  exceptions.o [5]
PWM_IrqHandler          0x00400c51    0x2  Code  Wk  exceptions.o [5]
PendSV_Handler          0x00400c1f    0x2  Code  Wk  exceptions.o [5]
RSTC_IrqHandler         0x00400c23    0x2  Code  Wk  exceptions.o [5]
RTC_IrqHandler          0x00400c25    0x2  Code  Wk  exceptions.o [5]
RTT_IrqHandler          0x00400c27    0x2  Code  Wk  exceptions.o [5]
Region$$Table$$Base     0x00401e98          --   Gb  - Linker created -
Region$$Table$$Limit    0x00401ea8          --   Gb  - Linker created -
SMC_IrqHandler          0x00400c31    0x2  Code  Wk  exceptions.o [5]
SPI_IrqHandler          0x00400c43    0x2  Code  Wk  exceptions.o [5]
SSC_IrqHandler          0x00400c45    0x2  Code  Wk  exceptions.o [5]
SUPC_IrqHandler         0x00400c21    0x2  Code  Wk  exceptions.o [5]
SVC_Handler             0x00400c1b    0x2  Code  Wk  exceptions.o [5]
SysTick_Config          0x00400111   0x38  Code  Lc  encode.o [1]
SysTick_Config          0x0040123b   0x32  Code  Lc  main.o [1]
SysTick_Handler         0x0040023f   0x70  Code  Gb  encode.o [1]
TC0_IrqHandler          0x004002af    0xa  Code  Gb  encode.o [1]
TC1_IrqHandler          0x00400c47    0x2  Code  Wk  exceptions.o [5]
TC2_IrqHandler          0x00401651   0x46  Code  Gb  decode.o [1]
TC3_IrqHandler          0x00400c49    0x2  Code  Wk  exceptions.o [5]
TC4_IrqHandler          0x00400c4b    0x2  Code  Wk  exceptions.o [5]
TC5_IrqHandler          0x00400c4d    0x2  Code  Wk  exceptions.o [5]
TWI0_IrqHandler         0x00400c3f    0x2  Code  Wk  exceptions.o [5]
TWI1_IrqHandler         0x00400c41    0x2  Code  Wk  exceptions.o [5]
TcCaptureInitialize     0x00401697   0x3a  Code  Gb  decode.o [1]
UART0_IrqHandler        0x004001d5   0x6a  Code  Gb  encode.o [1]
UART1_IrqHandler        0x00400c2f    0x2  Code  Wk  exceptions.o [5]
UART_Configure          0x00400769   0x4c  Code  Gb  uart_console.o [4]
UART_GetChar            0x004007d9   0x20  Code  Gb  uart_console.o [4]
UART_PutChar            0x004007b5   0x24  Code  Gb  uart_console.o [4]
USART0_IrqHandler       0x00400c39    0x2  Code  Wk  exceptions.o [5]
USART1_IrqHandler       0x00400c3b    0x2  Code  Wk  exceptions.o [5]
USBD_IrqHandler         0x00400c57    0x2  Code  Wk  exceptions.o [5]
UsageFault_Handler      0x00400c19    0x2  Code  Wk  exceptions.o [5]
WDT_Disable             0x004015ad    0x8  Code  Gb  wdt.o [5]
WDT_IrqHandler          0x00400c29    0x2  Code  Wk  exceptions.o [5]
_ConfigureCom           0x0040039b   0x12  Code  Gb  encode.o [1]
_DisplayMenuChoices     0x0040137d   0x2e  Code  Lc  main.o [1]
_GetInputValue          0x0040126d  0x110  Code  Lc  main.o [1]
_LitobSmall             0x00401031   0xd0  Code  Lc  xprintfsmall.o [3]
_PrintfSmall            0x00400c65  0x3cc  Code  Gb  xprintfsmall.o [3]
_Prout                  0x00402003   0x16  Code  Gb  xprout.o [3]
__aeabi_assert          0x00400a99   0x64  Code  Gb  xassert.o [3]
__cmain                 0x00401fdd         Code  Gb  cmain.o [6]
__exit                  0x00400c59         Code  Gb  XXexit.o [6]
__iar_EmptyStepPoint    0x00400a97    0x2  Code  Gb  xassert.o [3]
__iar_Memchr            0x00401179         Code  Gb  memchr.o [6]
__iar_ReportAssert      0x00400b7f   0x50  Code  Gb  xreportassert.o [3]
__iar_SB                0x0040207c         Data  Gb  bwt_init3c.o [6]
__iar_Strchr            0x00401109         Code  Gb  strchr.o [6]
__iar_data_init3        0x00401d8d   0x2c  Code  Gb  data_init3.o [6]
__iar_program_start     0x0040206d         Code  Gb  cstartup_M.o [6]
__iar_zero_init3        0x0040111f   0x22  Code  Gb  zero_init3.o [6]
__low_level_init        0x00401d21   0x38  Code  Gb  board_cstartup_iar.o [4]
__vector_table          0x00400000   0xd0  Data  Gb  board_cstartup_iar.o [4]
_call_main              0x00401fe9         Code  Gb  cmain.o [6]
_exit                   0x00401ff9         Code  Gb  cexit.o [6]
_main                   0x00401fef         Code  Gb  cmain.o [6]
_ucIsConsoleInitialized
                        0x200000ee    0x1  Data  Lc  uart_console.o [4]
abort                   0x00400c09    0x6  Code  Gb  abort.o [3]
amplitude               0x200000e6    0x2  Data  Gb  encode.o [1]
cur_edge                0x200000e9    0x1  Data  Lc  decode.o [1]
cur_stamp               0x200000d8    0x4  Data  Lc  decode.o [1]
dec                     0x200000d4    0x4  Data  Gb  decode.o [1]
dec_parser              0x00401719   0x86  Code  Lc  decode.o [1]
decode_machine          0x0040179f  0x1de  Code  Gb  decode.o [1]
edge_occur              0x200000e8    0x1  Data  Gb  decode.o [1]
enc                     0x200000cc    0x8  Data  Lc  encode.o [1]
enc_init                0x004002b9   0xe2  Code  Gb  encode.o [1]
enc_parser              0x00400401   0xbe  Code  Gb  encode.o [1]
encode_machine          0x004004bf  0x248  Code  Gb  encode.o [1]
exit                    0x00401ff3    0x4  Code  Gb  exit.o [3]
frequency               0x200000e4    0x2  Data  Gb  encode.o [1]
index_sample            0x200000eb    0x1  Data  Lc  encode.o [1]
inv                     0x200000e0    0x4  Data  Lc  decode.o [1]
main                    0x004013b1  0x146  Code  Gb  main.o [1]
memchr                  0x00401179         Code  Gb  memchr.o [6]
numLeds                 0x00402078    0x4  Data  Lc  led.o [4]
odd                     0x200000ea    0x1  Data  Lc  encode.o [1]
offset                  0x200000dc    0x4  Data  Lc  decode.o [1]
out                     0x00400b69   0x16  Code  Lc  xreportassert.o [3]
pTcPins                 0x00402018    0xc  Data  Lc  decode.o [1]
pins                    0x00401cd8   0x48  Data  Gb  main.o [1]
pinsLeds                0x00401e74   0x24  Data  Lc  led.o [4]
printf                  0x00401589   0x24  Code  Gb  printf.o [3]
putchar                 0x0040080d   0x10  Code  Wk  uart_console.o [4]
sine_data               0x00401b10   0xc8  Data  Gb  main.o [1]
strchr                  0x00401109         Code  Gb  strchr.o [6]
strlen                  0x00401141         Code  Gb  strlen.o [6]
ticker                  0x200000ec    0x1  Data  Lc  encode.o [1]
us1                     0x20000000   0xcc  Data  Gb  main.o [1]
us1_get_char            0x004003b5   0x4c  Code  Gb  encode.o [1]
us1_get_count           0x004003ad    0x8  Code  Gb  encode.o [1]


[1] = D:\Firmware\my-project-hihack\trunk\ my-project-hihack --username kaiser.ren@gmail.com\phone_simulate\build\ewarm_630\sam3s\Obj
[2] = command line
[3] = dl7M_tln.a
[4] = libboard_sam3s_ek_ewarm_dbg.a
[5] = libchip_sam3s4_ewarm_dbg.a
[6] = rt7M_tl.a

   6 892 bytes of readonly  code memory
   1 424 bytes of readonly  data memory
  12 527 bytes of readwrite data memory

Errors: none
Warnings: none
