###############################################################################
#                                                                             #
# IAR ELF Linker V6.30.6.53336/W32 for ARM              02/Jan/2013  10:50:18 #
# Copyright 2007-2012 IAR Systems AB.                                         #
#                                                                             #
#    Output file  =  D:\Firmware\my-project-hihack\trunk\ my-project-hihack   #
#                    --username kaiser.ren@gmail.com\phone_simulate\build\ewa #
#                    rm_630\sam3s\Exe\sam3s.out                               #
#    Map file     =  D:\Firmware\my-project-hihack\trunk\ my-project-hihack   #
#                    --username kaiser.ren@gmail.com\phone_simulate\build\ewa #
#                    rm_630\sam3s\List\sam3s.map                              #
#    Command line =  "D:\Firmware\my-project-hihack\trunk\ my-project-hihack  #
#                    --username kaiser.ren@gmail.com\phone_simulate\build\ewa #
#                    rm_630\sam3s\Obj\decode.o" "D:\Firmware\my-project-hihac #
#                    k\trunk\ my-project-hihack --username                    #
#                    kaiser.ren@gmail.com\phone_simulate\build\ewarm_630\sam3 #
#                    s\Obj\encode.o" "D:\Firmware\my-project-hihack\trunk\    #
#                    my-project-hihack --username                             #
#                    kaiser.ren@gmail.com\phone_simulate\build\ewarm_630\sam3 #
#                    s\Obj\main.o" "D:\Firmware\my-project-hihack\trunk\      #
#                    my-project-hihack --username                             #
#                    kaiser.ren@gmail.com\phone_simulate\libboard_sam3s-ek\li #
#                    b\libboard_sam3s_ek_ewarm_dbg.a"                         #
#                    "D:\Firmware\my-project-hihack\trunk\ my-project-hihack  #
#                    --username kaiser.ren@gmail.com\phone_simulate\libchip_s #
#                    am3s\lib\libchip_sam3s4_ewarm_dbg.a" --redirect          #
#                    _Printf=_PrintfSmall --redirect _Scanf=_ScanfSmall -o    #
#                    "D:\Firmware\my-project-hihack\trunk\ my-project-hihack  #
#                    --username kaiser.ren@gmail.com\phone_simulate\build\ewa #
#                    rm_630\sam3s\Exe\sam3s.out" --map                        #
#                    "D:\Firmware\my-project-hihack\trunk\ my-project-hihack  #
#                    --username kaiser.ren@gmail.com\phone_simulate\build\ewa #
#                    rm_630\sam3s\List\sam3s.map" --config                    #
#                    "D:\Firmware\my-project-hihack\trunk\ my-project-hihack  #
#                    --username kaiser.ren@gmail.com\phone_simulate\build\ewa #
#                    rm_630/../../resource/sam3s4c/flash.icf" --entry         #
#                    __iar_program_start --vfe                                #
#                                                                             #
#                                                                             #
###############################################################################

*******************************************************************************
*** RUNTIME MODEL ATTRIBUTES
***

CppFlavor       = *
__SystemLibrary = DLib


*******************************************************************************
*** PLACEMENT SUMMARY
***

"A1":  place at 0x00400000 { ro section .vectors };
"P1":  place in [from 0x00400000 to 0x0043ffff] { ro };
"P2":  place in [from 0x20000000 to 0x2000bfff] { rw, block CSTACK, block HEAP };

  Section          Kind        Address    Size  Object
  -------          ----        -------    ----  ------
"A1":                                     0xd0
  .vectors                  0x00400000    0xd0  <Block>
    .vectors       const    0x00400000    0xd0  board_cstartup_iar.o [4]
                          - 0x004000d0    0xd0

"P1":                                   0x1f78
  SOFTPACK         ro code  0x004000d0   0x688  encode.o [1]
  SAM3S-EK         ro code  0x00400758    0xb4  uart_console.o [4]
  SAM3S4           ro code  0x0040080c    0xcc  dacc.o [5]
  SAM3S4           ro code  0x004008d8   0x1ae  pio.o [5]
  .text            ro code  0x00400a86    0x66  xassert.o [3]
  SAM3S4           ro code  0x00400aec    0x6c  pmc.o [5]
  .text            ro code  0x00400b58    0xa0  xreportassert.o [3]
  .text            ro code  0x00400bf8     0x6  abort.o [3]
  SAM3S4           ro code  0x00400bfe    0x4a  exceptions.o [5]
  .text            ro code  0x00400c48     0xc  XXexit.o [6]
  .text            ro code  0x00400c54   0x4a4  xprintfsmall.o [3]
  .text            ro code  0x004010f8    0x16  strchr.o [6]
  .text            ro code  0x0040110e    0x22  zero_init3.o [6]
  .text            ro code  0x00401130    0x36  strlen.o [6]
  .text            ro code  0x00401168    0x58  memchr.o [6]
  SOFTPACK         ro code  0x004011c0   0x3a8  main.o [1]
  .text            ro code  0x00401568    0x24  printf.o [3]
  SAM3S4           ro code  0x0040158c     0x8  wdt.o [5]
  SAM3S-EK         ro code  0x00401594    0x9c  led.o [4]
  SOFTPACK         ro code  0x00401630   0x350  decode.o [1]
  SAM3S-EK         ro code  0x00401980   0x15c  board_lowlevel.o [4]
  .rodata          const    0x00401adc    0xc8  main.o [1]
  .rodata          const    0x00401ba4    0x80  pmc.o [5]
  .rodata          const    0x00401c24    0x80  dacc.o [5]
  .rodata          const    0x00401ca4    0x48  main.o [1]
  SAM3S-EK         ro code  0x00401cec    0x38  board_cstartup_iar.o [4]
  .rodata          const    0x00401d24    0x34  main.o [1]
  .text            ro code  0x00401d58    0x2c  data_init3.o [6]
  .rodata          const    0x00401d84    0x28  main.o [1]
  .rodata          const    0x00401dac    0x28  main.o [1]
  .rodata          const    0x00401dd4    0x24  main.o [1]
  .rodata          const    0x00401df8    0x24  main.o [1]
  .rodata          const    0x00401e1c    0x24  main.o [1]
  .rodata          const    0x00401e40    0x24  led.o [4]
  .iar.init_table  const    0x00401e64    0x10  - Linker created -
  .rodata          const    0x00401e74    0x20  main.o [1]
  .rodata          const    0x00401e94    0x20  main.o [1]
  .rodata          const    0x00401eb4    0x20  main.o [1]
  .rodata          const    0x00401ed4    0x20  dacc.o [5]
  .rodata          const    0x00401ef4    0x1c  main.o [1]
  .rodata          const    0x00401f10    0x1c  main.o [1]
  .rodata          const    0x00401f2c    0x1c  main.o [1]
  .rodata          const    0x00401f48    0x18  main.o [1]
  .rodata          const    0x00401f60    0x18  main.o [1]
  .rodata          const    0x00401f78    0x18  main.o [1]
  .rodata          const    0x00401f90    0x18  main.o [1]
  .text            ro code  0x00401fa8    0x16  cmain.o [6]
  .text            ro code  0x00401fbe     0x4  exit.o [3]
  .text            ro code  0x00401fc4     0xa  cexit.o [6]
  .text            ro code  0x00401fce    0x16  xprout.o [3]
  .rodata          const    0x00401fe4     0xc  decode.o [1]
  .rodata          const    0x00401ff0     0xc  main.o [1]
  .rodata          const    0x00401ffc     0xc  main.o [1]
  .rodata          const    0x00402008     0xc  main.o [1]
  .rodata          const    0x00402014     0xc  main.o [1]
  .rodata          const    0x00402020     0xc  pmc.o [5]
  .rodata          const    0x0040202c     0xc  uart_console.o [4]
  .text            ro code  0x00402038     0xc  cstartup_M.o [6]
  .rodata          const    0x00402044     0x4  led.o [4]
  .rodata          const    0x00402048     0x0  bwt_init3c.o [6]
                          - 0x00402048  0x1f78

"P2", part 1 of 2:                        0x40
  .bss             zero     0x20000000    0x18  main.o [1]
  .bss             zero     0x20000018     0x8  encode.o [1]
  .bss             zero     0x20000020     0x4  decode.o [1]
  .bss             zero     0x20000024     0x4  decode.o [1]
  .bss             zero     0x20000028     0x4  decode.o [1]
  .bss             zero     0x2000002c     0x4  decode.o [1]
  .bss             zero     0x20000030     0x2  encode.o [1]
  .bss             zero     0x20000032     0x2  encode.o [1]
  .bss             zero     0x20000034     0x1  decode.o [1]
  .bss             zero     0x20000035     0x1  decode.o [1]
  .bss             zero     0x20000036     0x1  encode.o [1]
  .bss             zero     0x20000037     0x1  encode.o [1]
  .bss             zero     0x20000038     0x1  encode.o [1]
  .bss             zero     0x20000039     0x1  encode.o [1]
  .bss             zero     0x2000003a     0x1  uart_console.o [4]
                          - 0x2000003b    0x3b

"P2", part 2 of 2:                      0x3000
  CSTACK                    0x20000040  0x3000  <Block>
    CSTACK         uninit   0x20000040  0x3000  <Block tail>
                          - 0x20003040  0x3000


*******************************************************************************
*** INIT TABLE
***

          Address     Size
          -------     ----
Zero (__iar_zero_init3)
    1 destination range, total size 0x3b:
          0x20000000  0x3b



*******************************************************************************
*** MODULE SUMMARY
***

    Module                ro code  ro data  rw data
    ------                -------  -------  -------
D:\Firmware\my-project-hihack\trunk\ my-project-hihack --username kaiser.ren@gmail.com\phone_simulate\build\ewarm_630\sam3s\Obj: [1]
    decode.o                  848       12       18
    encode.o                1 672                16
    main.o                    936      836       24
    -----------------------------------------------
    Total:                  3 456      848       58

command line: [2]
    -----------------------------------------------
    Total:

dl7M_tln.a: [3]
    abort.o                     6
    exit.o                      4
    printf.o                   36
    xassert.o                 102
    xprintfsmall.o          1 188
    xprout.o                   22
    xreportassert.o           160
    -----------------------------------------------
    Total:                  1 518

libboard_sam3s_ek_ewarm_dbg.a: [4]
    board_cstartup_iar.o       56      208
    board_lowlevel.o          348
    led.o                     156       40
    uart_console.o            180       12        1
    -----------------------------------------------
    Total:                    740      260        1

libchip_sam3s4_ewarm_dbg.a: [5]
    dacc.o                    204      160
    exceptions.o               74
    pio.o                     430
    pmc.o                     108      140
    wdt.o                       8
    -----------------------------------------------
    Total:                    824      300

rt7M_tl.a: [6]
    XXexit.o                   12
    bwt_init3c.o
    cexit.o                    10
    cmain.o                    22
    cstartup_M.o               12
    data_init3.o               44
    memchr.o                   88
    strchr.o                   22
    strlen.o                   54
    zero_init3.o               34
    -----------------------------------------------
    Total:                    298

    Gaps                        4
    Linker created                      16   12 288
---------------------------------------------------
    Grand Total:            6 840    1 424   12 347


*******************************************************************************
*** ENTRY LIST
***

Entry                      Address   Size  Type      Object
-----                      -------   ----  ----      ------
.vectors$$Base          0x00400000          --   Gb  - Linker created -
.vectors$$Limit         0x004000d0          --   Gb  - Linker created -
?main                   0x00401fa9         Code  Gb  cmain.o [6]
ACC_IrqHandler          0x00400c45    0x2  Code  Wk  exceptions.o [5]
ADC_IrqHandler          0x00400c3f    0x2  Code  Wk  exceptions.o [5]
BusFault_Handler        0x00400c07    0x2  Code  Wk  exceptions.o [5]
CRCCU_IrqHandler        0x00400c43    0x2  Code  Wk  exceptions.o [5]
CSTACK$$Base            0x20000040          --   Gb  - Linker created -
CSTACK$$Limit           0x20003040          --   Gb  - Linker created -
DACC_Initialize         0x0040080d   0xae  Code  Gb  dacc.o [5]
DACC_SetConversionData  0x004008c9   0x10  Code  Gb  dacc.o [5]
DACC_channel_sine       0x20000039    0x1  Data  Gb  encode.o [1]
DAC_IrqHandler          0x00400149   0x8c  Code  Gb  encode.o [1]
DacInitialize           0x004002af   0xe2  Code  Gb  encode.o [1]
DebugMon_Handler        0x00400c0d    0x2  Code  Wk  exceptions.o [5]
EEFC_IrqHandler         0x00400c1d    0x2  Code  Wk  exceptions.o [5]
HardFault_Handler       0x00400c03    0x2  Code  Wk  exceptions.o [5]
IrqHandlerNotUsed       0x00400bff    0x2  Code  Gb  exceptions.o [5]
IsAbout1000us           0x004016cb   0x1e  Code  Lc  decode.o [1]
IsAbout500us            0x004016ad   0x1e  Code  Lc  decode.o [1]
LED_Clear               0x004015ed   0x3a  Code  Gb  led.o [4]
LED_Configure           0x00401595   0x1e  Code  Gb  led.o [4]
LED_Set                 0x004015b3   0x3a  Code  Gb  led.o [4]
LowLevelInit            0x00401981  0x15c  Code  Wk  board_lowlevel.o [4]
MCI_IrqHandler          0x00400c2d    0x2  Code  Wk  exceptions.o [5]
MemManage_Handler       0x00400c05    0x2  Code  Wk  exceptions.o [5]
NMI_Handler             0x00400c01    0x2  Code  Wk  exceptions.o [5]
NVIC_ClearPendingIRQ    0x004011f1   0x18  Code  Lc  main.o [1]
NVIC_DisableIRQ         0x004011d9   0x18  Code  Lc  main.o [1]
NVIC_EnableIRQ          0x004000d1   0x1a  Code  Lc  encode.o [1]
NVIC_EnableIRQ          0x004011c1   0x18  Code  Lc  main.o [1]
NVIC_SetPriority        0x004000eb   0x26  Code  Lc  encode.o [1]
NVIC_SetPriority        0x00401209   0x22  Code  Lc  main.o [1]
PIOA_IrqHandler         0x00400c23    0x2  Code  Wk  exceptions.o [5]
PIOB_IrqHandler         0x00400c25    0x2  Code  Wk  exceptions.o [5]
PIOC_IrqHandler         0x00400c27    0x2  Code  Wk  exceptions.o [5]
PIO_Clear               0x00400a7f    0x8  Code  Gb  pio.o [5]
PIO_Configure           0x004009c3   0xb4  Code  Gb  pio.o [5]
PIO_Set                 0x00400a77    0x8  Code  Gb  pio.o [5]
PIO_SetInput            0x00400961   0x30  Code  Lc  pio.o [5]
PIO_SetOutput           0x00400991   0x32  Code  Lc  pio.o [5]
PIO_SetPeripheralA      0x004008d9   0x26  Code  Lc  pio.o [5]
PIO_SetPeripheralB      0x004008ff   0x22  Code  Lc  pio.o [5]
PIO_SetPeripheralC      0x00400921   0x22  Code  Lc  pio.o [5]
PIO_SetPeripheralD      0x00400943   0x1e  Code  Lc  pio.o [5]
PMC_EnablePeripheral    0x00400aed   0x54  Code  Gb  pmc.o [5]
PMC_IrqHandler          0x00400c1b    0x2  Code  Wk  exceptions.o [5]
PWM_IrqHandler          0x00400c41    0x2  Code  Wk  exceptions.o [5]
PendSV_Handler          0x00400c0f    0x2  Code  Wk  exceptions.o [5]
RSTC_IrqHandler         0x00400c13    0x2  Code  Wk  exceptions.o [5]
RTC_IrqHandler          0x00400c15    0x2  Code  Wk  exceptions.o [5]
RTT_IrqHandler          0x00400c17    0x2  Code  Wk  exceptions.o [5]
Region$$Table$$Base     0x00401e64          --   Gb  - Linker created -
Region$$Table$$Limit    0x00401e74          --   Gb  - Linker created -
SMC_IrqHandler          0x00400c21    0x2  Code  Wk  exceptions.o [5]
SPI_IrqHandler          0x00400c33    0x2  Code  Wk  exceptions.o [5]
SSC_IrqHandler          0x00400c35    0x2  Code  Wk  exceptions.o [5]
SUPC_IrqHandler         0x00400c11    0x2  Code  Wk  exceptions.o [5]
SVC_Handler             0x00400c0b    0x2  Code  Wk  exceptions.o [5]
SysTick_Config          0x00400111   0x38  Code  Lc  encode.o [1]
SysTick_Config          0x0040122b   0x32  Code  Lc  main.o [1]
SysTick_Handler         0x0040023f   0x70  Code  Gb  encode.o [1]
TC0_IrqHandler          0x004013a1    0x2  Code  Gb  main.o [1]
TC1_IrqHandler          0x00400c37    0x2  Code  Wk  exceptions.o [5]
TC2_IrqHandler          0x00401631   0x44  Code  Gb  decode.o [1]
TC3_IrqHandler          0x00400c39    0x2  Code  Wk  exceptions.o [5]
TC4_IrqHandler          0x00400c3b    0x2  Code  Wk  exceptions.o [5]
TC5_IrqHandler          0x00400c3d    0x2  Code  Wk  exceptions.o [5]
TWI0_IrqHandler         0x00400c2f    0x2  Code  Wk  exceptions.o [5]
TWI1_IrqHandler         0x00400c31    0x2  Code  Wk  exceptions.o [5]
TcCaptureInitialize     0x00401675   0x38  Code  Gb  decode.o [1]
UART0_IrqHandler        0x004001d5   0x6a  Code  Gb  encode.o [1]
UART1_IrqHandler        0x00400c1f    0x2  Code  Wk  exceptions.o [5]
UART_Configure          0x00400759   0x4c  Code  Gb  uart_console.o [4]
UART_GetChar            0x004007c9   0x20  Code  Gb  uart_console.o [4]
UART_PutChar            0x004007a5   0x24  Code  Gb  uart_console.o [4]
USART0_IrqHandler       0x00400c29    0x2  Code  Wk  exceptions.o [5]
USART1_IrqHandler       0x00400c2b    0x2  Code  Wk  exceptions.o [5]
USBD_IrqHandler         0x00400c47    0x2  Code  Wk  exceptions.o [5]
UsageFault_Handler      0x00400c09    0x2  Code  Wk  exceptions.o [5]
WDT_Disable             0x0040158d    0x8  Code  Gb  wdt.o [5]
WDT_IrqHandler          0x00400c19    0x2  Code  Wk  exceptions.o [5]
_ConfigureCom           0x00400391   0x12  Code  Gb  encode.o [1]
_DisplayMenuChoices     0x0040136d   0x2e  Code  Lc  main.o [1]
_GetInputValue          0x0040125d  0x110  Code  Lc  main.o [1]
_LitobSmall             0x00401021   0xd0  Code  Lc  xprintfsmall.o [3]
_PrintfSmall            0x00400c55  0x3cc  Code  Gb  xprintfsmall.o [3]
_Prout                  0x00401fcf   0x16  Code  Gb  xprout.o [3]
__aeabi_assert          0x00400a89   0x64  Code  Gb  xassert.o [3]
__cmain                 0x00401fa9         Code  Gb  cmain.o [6]
__exit                  0x00400c49         Code  Gb  XXexit.o [6]
__iar_EmptyStepPoint    0x00400a87    0x2  Code  Gb  xassert.o [3]
__iar_Memchr            0x00401169         Code  Gb  memchr.o [6]
__iar_ReportAssert      0x00400b6f   0x50  Code  Gb  xreportassert.o [3]
__iar_SB                0x00402048         Data  Gb  bwt_init3c.o [6]
__iar_Strchr            0x004010f9         Code  Gb  strchr.o [6]
__iar_data_init3        0x00401d59   0x2c  Code  Gb  data_init3.o [6]
__iar_program_start     0x00402039         Code  Gb  cstartup_M.o [6]
__iar_zero_init3        0x0040110f   0x22  Code  Gb  zero_init3.o [6]
__low_level_init        0x00401ced   0x38  Code  Gb  board_cstartup_iar.o [4]
__vector_table          0x00400000   0xd0  Data  Gb  board_cstartup_iar.o [4]
_call_main              0x00401fb5         Code  Gb  cmain.o [6]
_exit                   0x00401fc5         Code  Gb  cexit.o [6]
_main                   0x00401fbb         Code  Gb  cmain.o [6]
_ucIsConsoleInitialized
                        0x2000003a    0x1  Data  Lc  uart_console.o [4]
abort                   0x00400bf9    0x6  Code  Gb  abort.o [3]
amplitude               0x20000032    0x2  Data  Gb  encode.o [1]
cur_edge                0x20000035    0x1  Data  Lc  decode.o [1]
cur_stamp               0x20000024    0x4  Data  Lc  decode.o [1]
dec                     0x20000020    0x4  Data  Gb  decode.o [1]
decode_machine          0x0040176d  0x1da  Code  Gb  decode.o [1]
edge_occur              0x20000034    0x1  Data  Gb  decode.o [1]
enc                     0x20000018    0x8  Data  Lc  encode.o [1]
enc_parser              0x004003f7   0xbe  Code  Gb  encode.o [1]
encode_machine          0x004004b5  0x248  Code  Gb  encode.o [1]
exit                    0x00401fbf    0x4  Code  Gb  exit.o [3]
findPhase               0x004016e9   0x84  Code  Gb  decode.o [1]
frequency               0x20000030    0x2  Data  Gb  encode.o [1]
index_sample            0x20000037    0x1  Data  Lc  encode.o [1]
inv                     0x2000002c    0x4  Data  Lc  decode.o [1]
main                    0x004013a3  0x134  Code  Gb  main.o [1]
memchr                  0x00401169         Code  Gb  memchr.o [6]
numLeds                 0x00402044    0x4  Data  Lc  led.o [4]
odd                     0x20000036    0x1  Data  Lc  encode.o [1]
offset                  0x20000028    0x4  Data  Lc  decode.o [1]
out                     0x00400b59   0x16  Code  Lc  xreportassert.o [3]
pTcPins                 0x00401fe4    0xc  Data  Lc  decode.o [1]
pins                    0x00401ca4   0x48  Data  Gb  main.o [1]
pinsLeds                0x00401e40   0x24  Data  Lc  led.o [4]
printf                  0x00401569   0x24  Code  Gb  printf.o [3]
putchar                 0x004007fd   0x10  Code  Wk  uart_console.o [4]
sine_data               0x00401adc   0xc8  Data  Gb  main.o [1]
strchr                  0x004010f9         Code  Gb  strchr.o [6]
strlen                  0x00401131         Code  Gb  strlen.o [6]
ticker                  0x20000038    0x1  Data  Lc  encode.o [1]
us1                     0x20000000   0x18  Data  Gb  main.o [1]
us1_get_char            0x004003ab   0x4c  Code  Gb  encode.o [1]
us1_get_count           0x004003a3    0x8  Code  Gb  encode.o [1]


[1] = D:\Firmware\my-project-hihack\trunk\ my-project-hihack --username kaiser.ren@gmail.com\phone_simulate\build\ewarm_630\sam3s\Obj
[2] = command line
[3] = dl7M_tln.a
[4] = libboard_sam3s_ek_ewarm_dbg.a
[5] = libchip_sam3s4_ewarm_dbg.a
[6] = rt7M_tl.a

   6 840 bytes of readonly  code memory
   1 424 bytes of readonly  data memory
  12 347 bytes of readwrite data memory

Errors: none
Warnings: none
