###############################################################################
#                                                                             #
# IAR ELF Linker V6.30.6.53336/W32 for ARM              31/Jul/2013  12:51:02 #
# Copyright 2007-2012 IAR Systems AB.                                         #
#                                                                             #
#    Output file  =  D:\Firmware\my-project-hihack\trunk\ my-project-hihack   #
#                    --username kaiser.ren@gmail.com\energymicro\an\bootloade #
#                    r\iar\bootloader-tg210\Release\Exe\bootloader-tg210.out  #
#    Map file     =  D:\Firmware\my-project-hihack\trunk\ my-project-hihack   #
#                    --username kaiser.ren@gmail.com\energymicro\an\bootloade #
#                    r\iar\bootloader-tg210\Release\List\bootloader-tg210.map #
#    Command line =  "D:\Firmware\my-project-hihack\trunk\ my-project-hihack  #
#                    --username kaiser.ren@gmail.com\energymicro\an\bootloade #
#                    r\iar\bootloader-tg210\Release\Obj\autobaud.o"           #
#                    "D:\Firmware\my-project-hihack\trunk\ my-project-hihack  #
#                    --username kaiser.ren@gmail.com\energymicro\an\bootloade #
#                    r\iar\bootloader-tg210\Release\Obj\boot.o"               #
#                    "D:\Firmware\my-project-hihack\trunk\ my-project-hihack  #
#                    --username kaiser.ren@gmail.com\energymicro\an\bootloade #
#                    r\iar\bootloader-tg210\Release\Obj\bootloader.o"         #
#                    "D:\Firmware\my-project-hihack\trunk\ my-project-hihack  #
#                    --username kaiser.ren@gmail.com\energymicro\an\bootloade #
#                    r\iar\bootloader-tg210\Release\Obj\bsp_stk.o"            #
#                    "D:\Firmware\my-project-hihack\trunk\ my-project-hihack  #
#                    --username kaiser.ren@gmail.com\energymicro\an\bootloade #
#                    r\iar\bootloader-tg210\Release\Obj\bsp_stk_leds.o"       #
#                    "D:\Firmware\my-project-hihack\trunk\ my-project-hihack  #
#                    --username kaiser.ren@gmail.com\energymicro\an\bootloade #
#                    r\iar\bootloader-tg210\Release\Obj\crc.o"                #
#                    "D:\Firmware\my-project-hihack\trunk\ my-project-hihack  #
#                    --username kaiser.ren@gmail.com\energymicro\an\bootloade #
#                    r\iar\bootloader-tg210\Release\Obj\debug.o"              #
#                    "D:\Firmware\my-project-hihack\trunk\ my-project-hihack  #
#                    --username kaiser.ren@gmail.com\energymicro\an\bootloade #
#                    r\iar\bootloader-tg210\Release\Obj\debuglock.o"          #
#                    "D:\Firmware\my-project-hihack\trunk\ my-project-hihack  #
#                    --username kaiser.ren@gmail.com\energymicro\an\bootloade #
#                    r\iar\bootloader-tg210\Release\Obj\decode.o"             #
#                    "D:\Firmware\my-project-hihack\trunk\ my-project-hihack  #
#                    --username kaiser.ren@gmail.com\energymicro\an\bootloade #
#                    r\iar\bootloader-tg210\Release\Obj\em_acmp.o"            #
#                    "D:\Firmware\my-project-hihack\trunk\ my-project-hihack  #
#                    --username kaiser.ren@gmail.com\energymicro\an\bootloade #
#                    r\iar\bootloader-tg210\Release\Obj\em_cmu.o"             #
#                    "D:\Firmware\my-project-hihack\trunk\ my-project-hihack  #
#                    --username kaiser.ren@gmail.com\energymicro\an\bootloade #
#                    r\iar\bootloader-tg210\Release\Obj\em_emu.o"             #
#                    "D:\Firmware\my-project-hihack\trunk\ my-project-hihack  #
#                    --username kaiser.ren@gmail.com\energymicro\an\bootloade #
#                    r\iar\bootloader-tg210\Release\Obj\em_gpio.o"            #
#                    "D:\Firmware\my-project-hihack\trunk\ my-project-hihack  #
#                    --username kaiser.ren@gmail.com\energymicro\an\bootloade #
#                    r\iar\bootloader-tg210\Release\Obj\em_int.o"             #
#                    "D:\Firmware\my-project-hihack\trunk\ my-project-hihack  #
#                    --username kaiser.ren@gmail.com\energymicro\an\bootloade #
#                    r\iar\bootloader-tg210\Release\Obj\em_prs.o"             #
#                    "D:\Firmware\my-project-hihack\trunk\ my-project-hihack  #
#                    --username kaiser.ren@gmail.com\energymicro\an\bootloade #
#                    r\iar\bootloader-tg210\Release\Obj\em_rmu.o"             #
#                    "D:\Firmware\my-project-hihack\trunk\ my-project-hihack  #
#                    --username kaiser.ren@gmail.com\energymicro\an\bootloade #
#                    r\iar\bootloader-tg210\Release\Obj\em_timer.o"           #
#                    "D:\Firmware\my-project-hihack\trunk\ my-project-hihack  #
#                    --username kaiser.ren@gmail.com\energymicro\an\bootloade #
#                    r\iar\bootloader-tg210\Release\Obj\encode.o"             #
#                    "D:\Firmware\my-project-hihack\trunk\ my-project-hihack  #
#                    --username kaiser.ren@gmail.com\energymicro\an\bootloade #
#                    r\iar\bootloader-tg210\Release\Obj\flash.o"              #
#                    "D:\Firmware\my-project-hihack\trunk\ my-project-hihack  #
#                    --username kaiser.ren@gmail.com\energymicro\an\bootloade #
#                    r\iar\bootloader-tg210\Release\Obj\iarwrite.o"           #
#                    "D:\Firmware\my-project-hihack\trunk\ my-project-hihack  #
#                    --username kaiser.ren@gmail.com\energymicro\an\bootloade #
#                    r\iar\bootloader-tg210\Release\Obj\startup_efm32.o"      #
#                    "D:\Firmware\my-project-hihack\trunk\ my-project-hihack  #
#                    --username kaiser.ren@gmail.com\energymicro\an\bootloade #
#                    r\iar\bootloader-tg210\Release\Obj\system_efm32tg.o"     #
#                    "D:\Firmware\my-project-hihack\trunk\ my-project-hihack  #
#                    --username kaiser.ren@gmail.com\energymicro\an\bootloade #
#                    r\iar\bootloader-tg210\Release\Obj\usart.o"              #
#                    "D:\Firmware\my-project-hihack\trunk\ my-project-hihack  #
#                    --username kaiser.ren@gmail.com\energymicro\an\bootloade #
#                    r\iar\bootloader-tg210\Release\Obj\xmodem.o" --redirect  #
#                    _Printf=_PrintfFull --redirect _Scanf=_ScanfFull -o      #
#                    "D:\Firmware\my-project-hihack\trunk\ my-project-hihack  #
#                    --username kaiser.ren@gmail.com\energymicro\an\bootloade #
#                    r\iar\bootloader-tg210\Release\Exe\bootloader-tg210.out" #
#                     --map "D:\Firmware\my-project-hihack\trunk\             #
#                    my-project-hihack --username                             #
#                    kaiser.ren@gmail.com\energymicro\an\bootloader\iar\bootl #
#                    oader-tg210\Release\List\bootloader-tg210.map" --config  #
#                    "D:\Firmware\my-project-hihack\trunk\ my-project-hihack  #
#                    --username kaiser.ren@gmail.com\energymicro\an\bootloade #
#                    r\iar\..\iar_linker_files\EFM32TG210F32.icf" --entry     #
#                    __iar_program_start --inline --vfe                       #
#                                                                             #
#                                                                             #
###############################################################################

*******************************************************************************
*** RUNTIME MODEL ATTRIBUTES
***

CppFlavor       = *
__SystemLibrary = DLib


*******************************************************************************
*** PLACEMENT SUMMARY
***

"A1":  place at 0x00000000 { ro section .intvec };
"P1":  place in [from 0x00000000 to 0x00007fff] { ro };
"P2":  place in [from 0x20000000 to 0x20000fff] { rw, block CSTACK, block HEAP };

  Section            Kind        Address    Size  Object
  -------            ----        -------    ----  ------
"A1":                                        0x8
  .intvec            ro code  0x00000000     0x8  startup_efm32.o [1]
                            - 0x00000008     0x8

"P1":                                     0x12f4
  Veneer             ro code  0x00000008     0x8  - Linker created -
  Veneer             ro code  0x00000010     0x8  - Linker created -
  Veneer             ro code  0x00000018     0x8  - Linker created -
  Veneer             ro code  0x00000020     0x8  - Linker created -
  Veneer             ro code  0x00000028     0x8  - Linker created -
  Veneer             ro code  0x00000030     0x8  - Linker created -
  Veneer             ro code  0x00000038     0x8  - Linker created -
  .text              ro code  0x00000040   0xbcc  system_efm32tg.o [1]
  .text              ro code  0x00000c0c    0x56  ABImemcpy.o [4]
  .text              ro code  0x00000c62    0xa0  packbits_init3.o [4]
  .text              ro code  0x00000d02    0x22  zero_init3.o [4]
  .text              ro code  0x00000d24    0x2c  data_init3.o [4]
  .iar.init_table    const    0x00000d50    0x2c  - Linker created -
  .text              ro code  0x00000d7c    0x16  cmain.o [4]
  .text              ro code  0x00000d92     0x4  exit.o [3]
  .text              ro code  0x00000d98     0xa  cexit.o [4]
  .text              ro code  0x00000da4     0xc  XXexit.o [4]
  .text              ro code  0x00000db0     0xc  cstartup_M.o [4]
  .rodata            const    0x00000dbc     0x0  bwt_init3c.o [4]
  Initializer bytes  ro data  0x00000dbc   0x53f  <for P2 s0>
                            - 0x000012fb  0x12f3

Absolute sections, part 1 of 4:              0x4
  .rodata            const    0x000020fc     0x4  system_efm32tg.o [1]
                            - 0x00002100     0x4

Absolute sections, part 2 of 4:              0x4
  .rodata            const    0x00007ffc     0x4  system_efm32tg.o [1]
                            - 0x00008000     0x4

Absolute sections, part 3 of 4:             0xbe
  .noinit            uninit   0x20000000    0xbc  system_efm32tg.o [1]
  .noinit            uninit   0x200000bc     0x2  system_efm32tg.o [1]
                            - 0x200000be    0xbe

Absolute sections, part 4 of 4:             0x14
  .noinit            uninit   0x200000fc     0x4  system_efm32tg.o [1]
  .noinit            uninit   0x20000100    0x10  system_efm32tg.o [1]
                            - 0x20000110    0x14

"P2", part 1 of 3:                         0x668
  P2 s0                       0x20000110   0x668  <Init block>
    Veneer           inited   0x20000110     0x8  - Linker created -
    Veneer           inited   0x20000118     0x8  - Linker created -
    .textrw          inited   0x20000120   0x4fc  system_efm32tg.o [1]
    .data            inited   0x2000061c   0x144  system_efm32tg.o [1]
    .data            inited   0x20000760    0x18  system_efm32tg.o [1]
                            - 0x20000778   0x668

"P2", part 2 of 3:                         0x1c8
  .bss               zero     0x20000778    0xd8  system_efm32tg.o [1]
  .bss               zero     0x20000850    0xd8  system_efm32tg.o [1]
  .bss               zero     0x20000928    0x14  system_efm32tg.o [1]
  .bss               zero     0x2000093c     0x4  system_efm32tg.o [1]
                            - 0x20000940   0x1c8

"P2", part 3 of 3:                         0x400
  CSTACK                      0x20000940   0x400  <Block>
    CSTACK           uninit   0x20000940   0x400  <Block tail>
                            - 0x20000d40   0x400


*******************************************************************************
*** INIT TABLE
***

          Address     Size
          -------     ----
Zero (__iar_zero_init3)
    1 destination range, total size 0x1c8:
          0x20000778  0x1c8

Copy/packbits (__iar_packbits_init3)
    1 source range, total size 0x53f (81% of destination):
          0x00000dbc  0x53f
    1 destination range, total size 0x668:
          0x20000110  0x668



*******************************************************************************
*** MODULE SUMMARY
***

    Module            ro code  rw code  ro data  rw data  ro data  rw data
                                                           (abs)    (abs)
    ------            -------  -------  -------  -------  -------  -------
D:\Firmware\my-project-hihack\trunk\ my-project-hihack --username kaiser.ren@gmail.com\energymicro\an\bootloader\iar\bootloader-tg210\Release\Obj: [1]
    startup_efm32.o         8
    system_efm32tg.o    3 020    1 276    1 330      804        8      210
    ----------------------------------------------------------------------
    Total:              3 028    1 276    1 330      804        8      210

command line: [2]
    ----------------------------------------------------------------------
    Total:

dl7M_tln.a: [3]
    exit.o                  4
    ----------------------------------------------------------------------
    Total:                  4

rt7M_tl.a: [4]
    ABImemcpy.o            86
    XXexit.o               12
    bwt_init3c.o
    cexit.o                10
    cmain.o                22
    cstartup_M.o           12
    data_init3.o           44
    packbits_init3.o      160
    zero_init3.o           34
    ----------------------------------------------------------------------
    Total:                380

    Gaps                    4
    Linker created         56       16       57    1 024
--------------------------------------------------------------------------
    Grand Total:        3 472    1 292    1 387    1 828        8      210


*******************************************************************************
*** ENTRY LIST
***

Entry                    Address   Size  Type      Object
-----                    -------   ----  ----      ------
?main                 0x00000d7d         Code  Gb  cmain.o [4]
BOOT_boot             0x2000012d   0x4c  Code  Gb  system_efm32tg.o [1]
BOOT_jump             0x20000121    0xc  Code  Gb  system_efm32tg.o [1]
CMU_ClockEnable       0x0000081d   0x64  Code  Gb  system_efm32tg.o [1]
CMU_ClockSelectGet    0x00000881   0x9a  Code  Gb  system_efm32tg.o [1]
CRC_calc              0x20000257   0x30  Code  Gb  system_efm32tg.o [1]
CSTACK$$Base          0x20000940          --   Gb  - Linker created -
CSTACK$$Limit         0x20000d40          --   Gb  - Linker created -
DEBUGLOCK_startDebugInterface
                      0x20000287   0x4a  Code  Gb  system_efm32tg.o [1]
GPIO_PinModeSet       0x0000091b   0x52  Code  Gb  system_efm32tg.o [1]
HIJACKPutData         0x20000315   0x5e  Code  Gb  system_efm32tg.o [1]
INT_LockCnt           0x20000638    0x4  Data  Gb  system_efm32tg.o [1]
Region$$Table$$Base   0x00000d50          --   Gb  - Linker created -
Region$$Table$$Limit  0x00000d7c          --   Gb  - Linker created -
SystemCoreClock       0x2000093c    0x4  Data  Gb  system_efm32tg.o [1]
SystemCoreClockGet    0x00000041   0x1a  Code  Gb  system_efm32tg.o [1]
SystemHFClockGet      0x0000005b   0x96  Code  Gb  system_efm32tg.o [1]
TIMER0_IRQHandler     0x000003b9   0x36  Code  Gb  system_efm32tg.o [1]
TIMER1_IRQHandler     0x000005e1   0x2a  Code  Gb  system_efm32tg.o [1]
TIMER_Init            0x00000a51   0x8e  Code  Gb  system_efm32tg.o [1]
TIMER_InitCC          0x00000adf   0x60  Code  Gb  system_efm32tg.o [1]
TIMER_Reset           0x00000b3f   0x30  Code  Gb  system_efm32tg.o [1]
TIMER_setup           0x000003ef   0x62  Code  Gb  system_efm32tg.o [1]
USART_printHex        0x20000373   0x24  Code  Gb  system_efm32tg.o [1]
USART_printString     0x200003bf   0x16  Code  Gb  system_efm32tg.o [1]
USART_rxByte          0x20000397   0x1c  Code  Gb  system_efm32tg.o [1]
USART_txByte          0x200003b3    0xc  Code  Gb  system_efm32tg.o [1]
XMODEM_download       0x200003d5  0x1d0  Code  Gb  system_efm32tg.o [1]
_DEBUGLOCK_swData     0x20000760   0x18  Data  Gb  system_efm32tg.o [1]
__Vectors             0x00000000          --   Gb  startup_efm32.o [1]
__Vectors_End         0x00000008         Data  Gb  startup_efm32.o [1]
__Vectors_Size {Abs}  0x00000008          --   Gb  startup_efm32.o [1]
__aeabi_memcpy4       0x00000c0d         Code  Gb  ABImemcpy.o [4]
__aeabi_memcpy8       0x00000c0d         Code  Gb  ABImemcpy.o [4]
__cmain               0x00000d7d         Code  Gb  cmain.o [4]
__exit                0x00000da5         Code  Gb  XXexit.o [4]
__iar_SB              0x00000dbc         Data  Gb  bwt_init3c.o [4]
__iar_data_init3      0x00000d25   0x2c  Code  Gb  data_init3.o [4]
__iar_packbits_init3  0x00000c63   0xa0  Code  Gb  packbits_init3.o [4]
__iar_program_start   0x00000db1         Code  Gb  cstartup_M.o [4]
__iar_zero_init3      0x00000d03   0x22  Code  Gb  zero_init3.o [4]
__vector_table        0x00000000         Data  Gb  startup_efm32.o [1]
_call_main            0x00000d89         Code  Gb  cmain.o [4]
_exit                 0x00000d99         Code  Gb  cexit.o [4]
_main                 0x00000d8f         Code  Gb  cmain.o [4]
bootTagHead           0x000020fc    0x4  Data  Gb  system_efm32tg.o [1]
bootTagRam            0x200000fc    0x4  Data  Gb  system_efm32tg.o [1]
bootTagTail           0x00007ffc    0x4  Data  Gb  system_efm32tg.o [1]
bootloaderCRC         0x200000bc    0x2  Data  Gb  system_efm32tg.o [1]
commandlineLoop       0x20000179   0xd8  Code  Gb  system_efm32tg.o [1]
cur_edge              0x2000092c    0x1  Data  Gb  system_efm32tg.o [1]
cur_stamp             0x20000930    0x4  Data  Gb  system_efm32tg.o [1]
dec                   0x20000928    0x4  Data  Gb  system_efm32tg.o [1]
decBuf                0x20000778   0xd8  Data  Gb  system_efm32tg.o [1]
dec_rxByte            0x200002d1   0x44  Code  Gb  system_efm32tg.o [1]
decode_machine        0x0000050d   0xce  Code  Gb  system_efm32tg.o [1]
descr                 0x20000100   0x10  Data  Gb  system_efm32tg.o [1]
encBuf                0x20000850   0xd8  Data  Gb  system_efm32tg.o [1]
enc_delay_tmr_cnt     0x2000062c    0x4  Data  Gb  system_efm32tg.o [1]
enc_machine           0x00000681  0x126  Code  Gb  system_efm32tg.o [1]
exit                  0x00000d93    0x4  Code  Gb  exit.o [3]
findParam             0x0000063f   0x42  Code  Gb  system_efm32tg.o [1]
flashPageSize         0x20000634    0x4  Data  Gb  system_efm32tg.o [1]
main                  0x000000f1  0x2c8  Code  Gb  system_efm32tg.o [1]
rawPacket             0x20000650  0x110  Data  Gb  system_efm32tg.o [1]
readyString           0x2000063c    0xc  Data  Gb  system_efm32tg.o [1]
rxByteChannel         0x20000624    0x1  Data  Gb  system_efm32tg.o [1]
sys_tick              0x20000628    0x4  Data  Gb  system_efm32tg.o [1]
ticker                0x20000630    0x4  Data  Gb  system_efm32tg.o [1]
unknownString         0x20000648    0x8  Data  Gb  system_efm32tg.o [1]
vectorTable           0x20000000   0xbc  Data  Gb  system_efm32tg.o [1]


[1] = D:\Firmware\my-project-hihack\trunk\ my-project-hihack --username kaiser.ren@gmail.com\energymicro\an\bootloader\iar\bootloader-tg210\Release\Obj
[2] = command line
[3] = dl7M_tln.a
[4] = rt7M_tl.a

  3 472 bytes of readonly  code memory
  1 292 bytes of readwrite code memory
  1 387 bytes of readonly  data memory (+ 8   absolute)
  1 828 bytes of readwrite data memory (+ 210 absolute)

Errors: none
Warnings: none
