###############################################################################
#                                                                             #
# IAR ELF Linker V6.30.6.53336/W32 for ARM              10/Jul/2013  09:47:15 #
# Copyright 2007-2012 IAR Systems AB.                                         #
#                                                                             #
#    Output file  =  D:\Firmware\my-project-hihack\trunk\ my-project-hihack   #
#                    --username kaiser.ren@gmail.com\energymicro\an\bootloade #
#                    r\iar\bootloader-tg210\Release\Exe\bootloader-tg210.out  #
#    Map file     =  D:\Firmware\my-project-hihack\trunk\ my-project-hihack   #
#                    --username kaiser.ren@gmail.com\energymicro\an\bootloade #
#                    r\iar\bootloader-tg210\Release\List\bootloader-tg210.map #
#    Command line =  "D:\Firmware\my-project-hihack\trunk\ my-project-hihack  #
#                    --username kaiser.ren@gmail.com\energymicro\an\bootloade #
#                    r\iar\bootloader-tg210\Release\Obj\autobaud.o"           #
#                    "D:\Firmware\my-project-hihack\trunk\ my-project-hihack  #
#                    --username kaiser.ren@gmail.com\energymicro\an\bootloade #
#                    r\iar\bootloader-tg210\Release\Obj\boot.o"               #
#                    "D:\Firmware\my-project-hihack\trunk\ my-project-hihack  #
#                    --username kaiser.ren@gmail.com\energymicro\an\bootloade #
#                    r\iar\bootloader-tg210\Release\Obj\bootloader.o"         #
#                    "D:\Firmware\my-project-hihack\trunk\ my-project-hihack  #
#                    --username kaiser.ren@gmail.com\energymicro\an\bootloade #
#                    r\iar\bootloader-tg210\Release\Obj\bsp_stk.o"            #
#                    "D:\Firmware\my-project-hihack\trunk\ my-project-hihack  #
#                    --username kaiser.ren@gmail.com\energymicro\an\bootloade #
#                    r\iar\bootloader-tg210\Release\Obj\bsp_stk_leds.o"       #
#                    "D:\Firmware\my-project-hihack\trunk\ my-project-hihack  #
#                    --username kaiser.ren@gmail.com\energymicro\an\bootloade #
#                    r\iar\bootloader-tg210\Release\Obj\crc.o"                #
#                    "D:\Firmware\my-project-hihack\trunk\ my-project-hihack  #
#                    --username kaiser.ren@gmail.com\energymicro\an\bootloade #
#                    r\iar\bootloader-tg210\Release\Obj\debug.o"              #
#                    "D:\Firmware\my-project-hihack\trunk\ my-project-hihack  #
#                    --username kaiser.ren@gmail.com\energymicro\an\bootloade #
#                    r\iar\bootloader-tg210\Release\Obj\debuglock.o"          #
#                    "D:\Firmware\my-project-hihack\trunk\ my-project-hihack  #
#                    --username kaiser.ren@gmail.com\energymicro\an\bootloade #
#                    r\iar\bootloader-tg210\Release\Obj\decode.o"             #
#                    "D:\Firmware\my-project-hihack\trunk\ my-project-hihack  #
#                    --username kaiser.ren@gmail.com\energymicro\an\bootloade #
#                    r\iar\bootloader-tg210\Release\Obj\em_acmp.o"            #
#                    "D:\Firmware\my-project-hihack\trunk\ my-project-hihack  #
#                    --username kaiser.ren@gmail.com\energymicro\an\bootloade #
#                    r\iar\bootloader-tg210\Release\Obj\em_cmu.o"             #
#                    "D:\Firmware\my-project-hihack\trunk\ my-project-hihack  #
#                    --username kaiser.ren@gmail.com\energymicro\an\bootloade #
#                    r\iar\bootloader-tg210\Release\Obj\em_emu.o"             #
#                    "D:\Firmware\my-project-hihack\trunk\ my-project-hihack  #
#                    --username kaiser.ren@gmail.com\energymicro\an\bootloade #
#                    r\iar\bootloader-tg210\Release\Obj\em_gpio.o"            #
#                    "D:\Firmware\my-project-hihack\trunk\ my-project-hihack  #
#                    --username kaiser.ren@gmail.com\energymicro\an\bootloade #
#                    r\iar\bootloader-tg210\Release\Obj\em_int.o"             #
#                    "D:\Firmware\my-project-hihack\trunk\ my-project-hihack  #
#                    --username kaiser.ren@gmail.com\energymicro\an\bootloade #
#                    r\iar\bootloader-tg210\Release\Obj\em_prs.o"             #
#                    "D:\Firmware\my-project-hihack\trunk\ my-project-hihack  #
#                    --username kaiser.ren@gmail.com\energymicro\an\bootloade #
#                    r\iar\bootloader-tg210\Release\Obj\em_rmu.o"             #
#                    "D:\Firmware\my-project-hihack\trunk\ my-project-hihack  #
#                    --username kaiser.ren@gmail.com\energymicro\an\bootloade #
#                    r\iar\bootloader-tg210\Release\Obj\em_timer.o"           #
#                    "D:\Firmware\my-project-hihack\trunk\ my-project-hihack  #
#                    --username kaiser.ren@gmail.com\energymicro\an\bootloade #
#                    r\iar\bootloader-tg210\Release\Obj\encode.o"             #
#                    "D:\Firmware\my-project-hihack\trunk\ my-project-hihack  #
#                    --username kaiser.ren@gmail.com\energymicro\an\bootloade #
#                    r\iar\bootloader-tg210\Release\Obj\flash.o"              #
#                    "D:\Firmware\my-project-hihack\trunk\ my-project-hihack  #
#                    --username kaiser.ren@gmail.com\energymicro\an\bootloade #
#                    r\iar\bootloader-tg210\Release\Obj\iarwrite.o"           #
#                    "D:\Firmware\my-project-hihack\trunk\ my-project-hihack  #
#                    --username kaiser.ren@gmail.com\energymicro\an\bootloade #
#                    r\iar\bootloader-tg210\Release\Obj\startup_efm32.o"      #
#                    "D:\Firmware\my-project-hihack\trunk\ my-project-hihack  #
#                    --username kaiser.ren@gmail.com\energymicro\an\bootloade #
#                    r\iar\bootloader-tg210\Release\Obj\system_efm32tg.o"     #
#                    "D:\Firmware\my-project-hihack\trunk\ my-project-hihack  #
#                    --username kaiser.ren@gmail.com\energymicro\an\bootloade #
#                    r\iar\bootloader-tg210\Release\Obj\usart.o"              #
#                    "D:\Firmware\my-project-hihack\trunk\ my-project-hihack  #
#                    --username kaiser.ren@gmail.com\energymicro\an\bootloade #
#                    r\iar\bootloader-tg210\Release\Obj\xmodem.o" --redirect  #
#                    _Printf=_PrintfFull --redirect _Scanf=_ScanfFull -o      #
#                    "D:\Firmware\my-project-hihack\trunk\ my-project-hihack  #
#                    --username kaiser.ren@gmail.com\energymicro\an\bootloade #
#                    r\iar\bootloader-tg210\Release\Exe\bootloader-tg210.out" #
#                     --map "D:\Firmware\my-project-hihack\trunk\             #
#                    my-project-hihack --username                             #
#                    kaiser.ren@gmail.com\energymicro\an\bootloader\iar\bootl #
#                    oader-tg210\Release\List\bootloader-tg210.map" --config  #
#                    "D:\Firmware\my-project-hihack\trunk\ my-project-hihack  #
#                    --username kaiser.ren@gmail.com\energymicro\an\bootloade #
#                    r\iar\..\iar_linker_files\EFM32TG210F32.icf" --entry     #
#                    __iar_program_start --inline --vfe                       #
#                                                                             #
#                                                                             #
###############################################################################

*******************************************************************************
*** RUNTIME MODEL ATTRIBUTES
***

CppFlavor       = *
__SystemLibrary = DLib


*******************************************************************************
*** PLACEMENT SUMMARY
***

"A1":  place at 0x00000800 { ro section .intvec };
"P1":  place in [from 0x00000800 to 0x00007fff] { ro };
"P2":  place in [from 0x20000000 to 0x20000fff] { rw, block CSTACK, block HEAP };

  Section            Kind        Address    Size  Object
  -------            ----        -------    ----  ------
"A1":                                        0x8
  .intvec            ro code  0x00000800     0x8  startup_efm32.o [1]
                            - 0x00000808     0x8

"P1":                                     0x10c8
  Veneer             ro code  0x00000808     0x8  - Linker created -
  Veneer             ro code  0x00000810     0x8  - Linker created -
  Veneer             ro code  0x00000818     0x8  - Linker created -
  Veneer             ro code  0x00000820     0x8  - Linker created -
  Veneer             ro code  0x00000828     0x8  - Linker created -
  Veneer             ro code  0x00000830     0x8  - Linker created -
  .text              ro code  0x00000838   0xb5c  system_efm32tg.o [1]
  .text              ro code  0x00001394    0x56  ABImemcpy.o [4]
  .text              ro code  0x000013ea    0x2e  copy_init3.o [4]
  .text              ro code  0x00001418    0x2c  data_init3.o [4]
  .text              ro code  0x00001444    0x22  zero_init3.o [4]
  .iar.init_table    const    0x00001468    0x24  - Linker created -
  .text              ro code  0x0000148c    0x16  cmain.o [4]
  .text              ro code  0x000014a2     0x4  exit.o [3]
  .text              ro code  0x000014a8     0xa  cexit.o [4]
  .text              ro code  0x000014b4     0xc  XXexit.o [4]
  .text              ro code  0x000014c0     0xc  cstartup_M.o [4]
  .rodata            const    0x000014cc     0x0  bwt_init3c.o [4]
  Initializer bytes  ro data  0x000014cc   0x404  <for P2 s0>
                            - 0x000018d0  0x10c8

Absolute sections, part 1 of 2:             0xbe
  .noinit            uninit   0x20000000    0xbc  system_efm32tg.o [1]
  .noinit            uninit   0x200000bc     0x2  system_efm32tg.o [1]
                            - 0x200000be    0xbe

Absolute sections, part 2 of 2:             0x10
  .noinit            uninit   0x20000100    0x10  system_efm32tg.o [1]
                            - 0x20000110    0x10

"P2", part 1 of 3:                         0x404
  P2 s0                       0x20000110   0x404  <Init block>
    Veneer           inited   0x20000110     0x8  - Linker created -
    Veneer           inited   0x20000118     0x8  - Linker created -
    .textrw          inited   0x20000120   0x3d0  system_efm32tg.o [1]
    .data            inited   0x200004f0    0x18  system_efm32tg.o [1]
    .data            inited   0x20000508     0xc  system_efm32tg.o [1]
                            - 0x20000514   0x404

"P2", part 2 of 3:                         0x2fc
  .bss               zero     0x20000514   0x130  system_efm32tg.o [1]
  .bss               zero     0x20000644    0xd8  system_efm32tg.o [1]
  .bss               zero     0x2000071c    0xd8  system_efm32tg.o [1]
  .bss               zero     0x200007f4    0x14  system_efm32tg.o [1]
  .bss               zero     0x20000808     0x4  system_efm32tg.o [1]
                            - 0x2000080c   0x2f8

"P2", part 3 of 3:                         0x400
  CSTACK                      0x20000810   0x400  <Block>
    CSTACK           uninit   0x20000810   0x400  <Block tail>
                            - 0x20000c10   0x400


*******************************************************************************
*** INIT TABLE
***

          Address     Size
          -------     ----
Zero (__iar_zero_init3)
    1 destination range, total size 0x2f8:
          0x20000514  0x2f8

Copy (__iar_copy_init3)
    1 source range, total size 0x404:
          0x000014cc  0x404
    1 destination range, total size 0x404:
          0x20000110  0x404



*******************************************************************************
*** MODULE SUMMARY
***

    Module            ro code  rw code  ro data  rw data  rw data
                                                           (abs)
    ------            -------  -------  -------  -------  -------
D:\Firmware\my-project-hihack\trunk\ my-project-hihack --username kaiser.ren@gmail.com\energymicro\an\bootloader\iar\bootloader-tg210\Release\Obj: [1]
    startup_efm32.o         8
    system_efm32tg.o    2 908      976    1 012      796      206
    -------------------------------------------------------------
    Total:              2 916      976    1 012      796      206

command line: [2]
    -------------------------------------------------------------
    Total:

dl7M_tln.a: [3]
    exit.o                  4
    -------------------------------------------------------------
    Total:                  4

rt7M_tl.a: [4]
    ABImemcpy.o            86
    XXexit.o               12
    bwt_init3c.o
    cexit.o                10
    cmain.o                22
    copy_init3.o           46
    cstartup_M.o           12
    data_init3.o           44
    zero_init3.o           34
    -------------------------------------------------------------
    Total:                266

    Gaps                    4                 2
    Linker created         48       16       52    1 024
-----------------------------------------------------------------
    Grand Total:        3 238      992    1 066    1 820      206


*******************************************************************************
*** ENTRY LIST
***

Entry                    Address   Size  Type      Object
-----                    -------   ----  ----      ------
?main                 0x0000148d         Code  Gb  cmain.o [4]
BOOT_boot             0x2000012d   0x46  Code  Gb  system_efm32tg.o [1]
BOOT_jump             0x20000121    0xc  Code  Gb  system_efm32tg.o [1]
CMU_ClockEnable       0x00000fa9   0x64  Code  Gb  system_efm32tg.o [1]
CMU_ClockSelectGet    0x0000100d   0x9a  Code  Gb  system_efm32tg.o [1]
CRC_calc              0x200001eb   0x30  Code  Gb  system_efm32tg.o [1]
CSTACK$$Base          0x20000810          --   Gb  - Linker created -
CSTACK$$Limit         0x20000c10          --   Gb  - Linker created -
DEBUGLOCK_startDebugInterface
                      0x2000021b   0x48  Code  Gb  system_efm32tg.o [1]
GPIO_PinModeSet       0x000010a7   0x52  Code  Gb  system_efm32tg.o [1]
HIJACKPutData         0x200002a5   0x5e  Code  Gb  system_efm32tg.o [1]
INT_LockCnt           0x20000530    0x4  Data  Gb  system_efm32tg.o [1]
Region$$Table$$Base   0x00001468          --   Gb  - Linker created -
Region$$Table$$Limit  0x0000148c          --   Gb  - Linker created -
SystemCoreClock       0x20000808    0x4  Data  Gb  system_efm32tg.o [1]
SystemCoreClockGet    0x00000839   0x1a  Code  Gb  system_efm32tg.o [1]
SystemHFClockGet      0x00000853   0x96  Code  Gb  system_efm32tg.o [1]
TIMER0_IRQHandler     0x00000b45   0x36  Code  Gb  system_efm32tg.o [1]
TIMER1_IRQHandler     0x00000d6d   0x2a  Code  Gb  system_efm32tg.o [1]
TIMER_Init            0x000011d9   0x8e  Code  Gb  system_efm32tg.o [1]
TIMER_InitCC          0x00001267   0x60  Code  Gb  system_efm32tg.o [1]
TIMER_Reset           0x000012c7   0x30  Code  Gb  system_efm32tg.o [1]
TIMER_setup           0x00000b7b   0x62  Code  Gb  system_efm32tg.o [1]
USART_printHex        0x20000303   0x24  Code  Gb  system_efm32tg.o [1]
USART_printString     0x20000333   0x16  Code  Gb  system_efm32tg.o [1]
USART_txByte          0x20000327    0xc  Code  Gb  system_efm32tg.o [1]
XMODEM_download       0x20000349  0x140  Code  Gb  system_efm32tg.o [1]
_DEBUGLOCK_swData     0x200004f0   0x18  Data  Gb  system_efm32tg.o [1]
__Vectors             0x00000800          --   Gb  startup_efm32.o [1]
__Vectors_End         0x00000808         Data  Gb  startup_efm32.o [1]
__Vectors_Size {Abs}  0x00000008          --   Gb  startup_efm32.o [1]
__aeabi_memcpy4       0x00001395         Code  Gb  ABImemcpy.o [4]
__aeabi_memcpy8       0x00001395         Code  Gb  ABImemcpy.o [4]
__cmain               0x0000148d         Code  Gb  cmain.o [4]
__exit                0x000014b5         Code  Gb  XXexit.o [4]
__iar_SB              0x000014cc         Data  Gb  bwt_init3c.o [4]
__iar_copy_init3      0x000013eb   0x2e  Code  Gb  copy_init3.o [4]
__iar_data_init3      0x00001419   0x2c  Code  Gb  data_init3.o [4]
__iar_program_start   0x000014c1         Code  Gb  cstartup_M.o [4]
__iar_zero_init3      0x00001445   0x22  Code  Gb  zero_init3.o [4]
__vector_table        0x00000800         Data  Gb  startup_efm32.o [1]
_call_main            0x00001499         Code  Gb  cmain.o [4]
_exit                 0x000014a9         Code  Gb  cexit.o [4]
_main                 0x0000149f         Code  Gb  cmain.o [4]
bootloaderCRC         0x200000bc    0x2  Data  Gb  system_efm32tg.o [1]
commandlineLoop       0x20000173   0x74  Code  Gb  system_efm32tg.o [1]
cur_edge              0x200007f8    0x1  Data  Gb  system_efm32tg.o [1]
cur_stamp             0x200007fc    0x4  Data  Gb  system_efm32tg.o [1]
dec                   0x200007f4    0x4  Data  Gb  system_efm32tg.o [1]
decBuf                0x20000644   0xd8  Data  Gb  system_efm32tg.o [1]
dec_rxByte            0x20000263   0x42  Code  Gb  system_efm32tg.o [1]
decode_machine        0x00000c99   0xce  Code  Gb  system_efm32tg.o [1]
descr                 0x20000100   0x10  Data  Gb  system_efm32tg.o [1]
encBuf                0x2000071c   0xd8  Data  Gb  system_efm32tg.o [1]
enc_delay_tmr_cnt     0x20000524    0x4  Data  Gb  system_efm32tg.o [1]
enc_machine           0x00000e0d  0x126  Code  Gb  system_efm32tg.o [1]
exit                  0x000014a3    0x4  Code  Gb  exit.o [3]
findParam             0x00000dcb   0x42  Code  Gb  system_efm32tg.o [1]
flashPageSize         0x2000052c    0x4  Data  Gb  system_efm32tg.o [1]
main                  0x000008e9  0x25c  Code  Gb  system_efm32tg.o [1]
rawPacket             0x20000534  0x110  Data  Gb  system_efm32tg.o [1]
readyString           0x20000508    0xc  Data  Gb  system_efm32tg.o [1]
sys_tick              0x20000520    0x4  Data  Gb  system_efm32tg.o [1]
ticker                0x20000528    0x4  Data  Gb  system_efm32tg.o [1]
vectorTable           0x20000000   0xbc  Data  Gb  system_efm32tg.o [1]


[1] = D:\Firmware\my-project-hihack\trunk\ my-project-hihack --username kaiser.ren@gmail.com\energymicro\an\bootloader\iar\bootloader-tg210\Release\Obj
[2] = command line
[3] = dl7M_tln.a
[4] = rt7M_tl.a

  3 238 bytes of readonly  code memory
    992 bytes of readwrite code memory
  1 066 bytes of readonly  data memory
  1 820 bytes of readwrite data memory (+ 206 absolute)

Errors: none
Warnings: none
