###############################################################################
#                                                                             #
# IAR ELF Linker V6.30.6.53336/W32 for ARM              17/Jan/2013  20:12:25 #
# Copyright 2007-2012 IAR Systems AB.                                         #
#                                                                             #
#    Output file  =  F:\ Firmware\my-project-hihack\trunk\ my-project-hihack  #
#                    --username kaiser.ren@gmail.com\energymicro\kits\EFM32TG #
#                    _STK3300\examples\an0045_efm32_uart_rs-232\iar\uart_rs-2 #
#                    32\Debug\Exe\uart_rs-232.out                             #
#    Map file     =  F:\ Firmware\my-project-hihack\trunk\ my-project-hihack  #
#                    --username kaiser.ren@gmail.com\energymicro\kits\EFM32TG #
#                    _STK3300\examples\an0045_efm32_uart_rs-232\iar\uart_rs-2 #
#                    32\Debug\List\uart_rs-232.map                            #
#    Command line =  "F:\ Firmware\my-project-hihack\trunk\                   #
#                    my-project-hihack --username                             #
#                    kaiser.ren@gmail.com\energymicro\kits\EFM32TG_STK3300\ex #
#                    amples\an0045_efm32_uart_rs-232\iar\uart_rs-232\Debug\Ob #
#                    j\bsp_stk.o" "F:\ Firmware\my-project-hihack\trunk\      #
#                    my-project-hihack --username                             #
#                    kaiser.ren@gmail.com\energymicro\kits\EFM32TG_STK3300\ex #
#                    amples\an0045_efm32_uart_rs-232\iar\uart_rs-232\Debug\Ob #
#                    j\bsp_stk_leds.o" "F:\ Firmware\my-project-hihack\trunk\ #
#                     my-project-hihack --username                            #
#                    kaiser.ren@gmail.com\energymicro\kits\EFM32TG_STK3300\ex #
#                    amples\an0045_efm32_uart_rs-232\iar\uart_rs-232\Debug\Ob #
#                    j\bsp_trace.o" "F:\ Firmware\my-project-hihack\trunk\    #
#                    my-project-hihack --username                             #
#                    kaiser.ren@gmail.com\energymicro\kits\EFM32TG_STK3300\ex #
#                    amples\an0045_efm32_uart_rs-232\iar\uart_rs-232\Debug\Ob #
#                    j\em_cmu.o" "F:\ Firmware\my-project-hihack\trunk\       #
#                    my-project-hihack --username                             #
#                    kaiser.ren@gmail.com\energymicro\kits\EFM32TG_STK3300\ex #
#                    amples\an0045_efm32_uart_rs-232\iar\uart_rs-232\Debug\Ob #
#                    j\em_ebi.o" "F:\ Firmware\my-project-hihack\trunk\       #
#                    my-project-hihack --username                             #
#                    kaiser.ren@gmail.com\energymicro\kits\EFM32TG_STK3300\ex #
#                    amples\an0045_efm32_uart_rs-232\iar\uart_rs-232\Debug\Ob #
#                    j\em_emu.o" "F:\ Firmware\my-project-hihack\trunk\       #
#                    my-project-hihack --username                             #
#                    kaiser.ren@gmail.com\energymicro\kits\EFM32TG_STK3300\ex #
#                    amples\an0045_efm32_uart_rs-232\iar\uart_rs-232\Debug\Ob #
#                    j\em_gpio.o" "F:\ Firmware\my-project-hihack\trunk\      #
#                    my-project-hihack --username                             #
#                    kaiser.ren@gmail.com\energymicro\kits\EFM32TG_STK3300\ex #
#                    amples\an0045_efm32_uart_rs-232\iar\uart_rs-232\Debug\Ob #
#                    j\em_system.o" "F:\ Firmware\my-project-hihack\trunk\    #
#                    my-project-hihack --username                             #
#                    kaiser.ren@gmail.com\energymicro\kits\EFM32TG_STK3300\ex #
#                    amples\an0045_efm32_uart_rs-232\iar\uart_rs-232\Debug\Ob #
#                    j\em_usart.o" "F:\ Firmware\my-project-hihack\trunk\     #
#                    my-project-hihack --username                             #
#                    kaiser.ren@gmail.com\energymicro\kits\EFM32TG_STK3300\ex #
#                    amples\an0045_efm32_uart_rs-232\iar\uart_rs-232\Debug\Ob #
#                    j\main.o" "F:\ Firmware\my-project-hihack\trunk\         #
#                    my-project-hihack --username                             #
#                    kaiser.ren@gmail.com\energymicro\kits\EFM32TG_STK3300\ex #
#                    amples\an0045_efm32_uart_rs-232\iar\uart_rs-232\Debug\Ob #
#                    j\startup_efm32tg.o" "F:\ Firmware\my-project-hihack\tru #
#                    nk\ my-project-hihack --username                         #
#                    kaiser.ren@gmail.com\energymicro\kits\EFM32TG_STK3300\ex #
#                    amples\an0045_efm32_uart_rs-232\iar\uart_rs-232\Debug\Ob #
#                    j\system_efm32tg.o" --redirect _Printf=_PrintfFull       #
#                    --redirect _Scanf=_ScanfFull -o "F:\                     #
#                    Firmware\my-project-hihack\trunk\ my-project-hihack      #
#                    --username kaiser.ren@gmail.com\energymicro\kits\EFM32TG #
#                    _STK3300\examples\an0045_efm32_uart_rs-232\iar\uart_rs-2 #
#                    32\Debug\Exe\uart_rs-232.out" --map "F:\                 #
#                    Firmware\my-project-hihack\trunk\ my-project-hihack      #
#                    --username kaiser.ren@gmail.com\energymicro\kits\EFM32TG #
#                    _STK3300\examples\an0045_efm32_uart_rs-232\iar\uart_rs-2 #
#                    32\Debug\List\uart_rs-232.map" --config "C:\Program      #
#                    Files\IAR Systems\Embedded Workbench                     #
#                    6.0\arm\config\linker\EnergyMicro\EFM32GG990F1024.icf"   #
#                    --entry __iar_program_start --vfe                        #
#                                                                             #
#                                                                             #
###############################################################################

*******************************************************************************
*** RUNTIME MODEL ATTRIBUTES
***

CppFlavor       = *
__SystemLibrary = DLib


*******************************************************************************
*** PLACEMENT SUMMARY
***

"A1":  place at 0x00000000 { ro section .intvec };
"P1":  place in [from 0x00000000 to 0x000fffff] { ro };
"P2":  place in [from 0x20000000 to 0x2001ffff] { rw, block CSTACK, block HEAP };

  Section            Kind        Address   Size  Object
  -------            ----        -------   ----  ------
"A1":                                      0x9c
  .intvec            ro code  0x00000000   0x9c  startup_efm32tg.o [1]
                            - 0x0000009c   0x9c

"P1":                                     0xe94
  .text              ro code  0x0000009c  0x49c  main.o [1]
  .text              ro code  0x00000538   0x78  bsp_stk.o [1]
  .text              ro code  0x000005b0  0x448  em_cmu.o [1]
  .text              ro code  0x000009f8   0xd4  em_gpio.o [1]
  .text              ro code  0x00000acc  0x14c  em_usart.o [1]
  .text              ro code  0x00000c18  0x11c  system_efm32tg.o [1]
  .text              ro code  0x00000d34   0x2e  copy_init3.o [4]
  .text              ro code  0x00000d62   0x22  zero_init3.o [4]
  .rodata            const    0x00000d84   0x2c  main.o [1]
  .text              ro code  0x00000db0   0x2c  data_init3.o [4]
  .iar.init_table    const    0x00000ddc   0x24  - Linker created -
  .rodata            const    0x00000e00   0x18  main.o [1]
  .text              ro code  0x00000e18   0x16  cmain.o [4]
  .text              ro code  0x00000e2e    0x4  low_level_init.o [3]
  .text              ro code  0x00000e32    0x4  exit.o [3]
  .text              ro code  0x00000e38    0xa  cexit.o [4]
  .text              ro code  0x00000e44    0xc  XXexit.o [4]
  .text              ro code  0x00000e50   0x10  startup_efm32tg.o [1]
  .text              ro code  0x00000e60    0xc  cstartup_M.o [4]
  .rodata            const    0x00000e6c    0x4  main.o [1]
  .rodata            const    0x00000e70    0x4  main.o [1]
  .text              ro code  0x00000e74    0x4  startup_efm32tg.o [1]
  .text              ro code  0x00000e78    0x4  startup_efm32tg.o [1]
  .text              ro code  0x00000e7c    0x4  startup_efm32tg.o [1]
  .text              ro code  0x00000e80    0x4  startup_efm32tg.o [1]
  .text              ro code  0x00000e84    0x4  startup_efm32tg.o [1]
  .text              ro code  0x00000e88    0x4  startup_efm32tg.o [1]
  .text              ro code  0x00000e8c    0x4  startup_efm32tg.o [1]
  .text              ro code  0x00000e90    0x4  startup_efm32tg.o [1]
  .text              ro code  0x00000e94    0x4  startup_efm32tg.o [1]
  .text              ro code  0x00000e98    0x4  startup_efm32tg.o [1]
  .text              ro code  0x00000e9c    0x4  startup_efm32tg.o [1]
  .text              ro code  0x00000ea0    0x4  startup_efm32tg.o [1]
  .text              ro code  0x00000ea4    0x4  startup_efm32tg.o [1]
  .text              ro code  0x00000ea8    0x4  startup_efm32tg.o [1]
  .text              ro code  0x00000eac    0x4  startup_efm32tg.o [1]
  .text              ro code  0x00000eb0    0x4  startup_efm32tg.o [1]
  .text              ro code  0x00000eb4    0x4  startup_efm32tg.o [1]
  .text              ro code  0x00000eb8    0x4  startup_efm32tg.o [1]
  .text              ro code  0x00000ebc    0x4  startup_efm32tg.o [1]
  .text              ro code  0x00000ec0    0x4  startup_efm32tg.o [1]
  .text              ro code  0x00000ec4    0x4  startup_efm32tg.o [1]
  .text              ro code  0x00000ec8    0x4  startup_efm32tg.o [1]
  .text              ro code  0x00000ecc    0x4  startup_efm32tg.o [1]
  .text              ro code  0x00000ed0    0x4  startup_efm32tg.o [1]
  .text              ro code  0x00000ed4    0x4  startup_efm32tg.o [1]
  .text              ro code  0x00000ed8    0x4  startup_efm32tg.o [1]
  .text              ro code  0x00000edc    0x4  startup_efm32tg.o [1]
  .text              ro code  0x00000ee0    0x4  startup_efm32tg.o [1]
  .text              ro code  0x00000ee4    0x4  startup_efm32tg.o [1]
  .text              ro code  0x00000ee8    0x4  startup_efm32tg.o [1]
  .text              ro code  0x00000eec    0x4  startup_efm32tg.o [1]
  .text              ro code  0x00000ef0    0x4  startup_efm32tg.o [1]
  .rodata            const    0x00000ef4    0x0  bwt_init3c.o [4]
  Initializer bytes  ro data  0x00000ef4   0x3c  <for P2 s0>
                            - 0x00000f30  0xe94

"P2", part 1 of 3:                         0x3c
  P2 s0                       0x20000000   0x3c  <Init block>
    .data            inited   0x20000000   0x18  bsp_stk.o [1]
    .data            inited   0x20000018   0x18  main.o [1]
    .data            inited   0x20000030    0x4  main.o [1]
    .data            inited   0x20000034    0x4  system_efm32tg.o [1]
    .data            inited   0x20000038    0x4  system_efm32tg.o [1]
                            - 0x2000003c   0x3c

"P2", part 2 of 3:                        0x224
  .bss               zero     0x2000003c  0x110  main.o [1]
  .bss               zero     0x2000014c  0x110  main.o [1]
  .bss               zero     0x2000025c    0x4  system_efm32tg.o [1]
                            - 0x20000260  0x224

"P2", part 3 of 3:                        0x400
  CSTACK                      0x20000260  0x400  <Block>
    CSTACK           uninit   0x20000260  0x400  <Block tail>
                            - 0x20000660  0x400


*******************************************************************************
*** INIT TABLE
***

          Address     Size
          -------     ----
Zero (__iar_zero_init3)
    1 destination range, total size 0x224:
          0x2000003c  0x224

Copy (__iar_copy_init3)
    1 source range, total size 0x3c:
          0x00000ef4   0x3c
    1 destination range, total size 0x3c:
          0x20000000   0x3c



*******************************************************************************
*** MODULE SUMMARY
***

    Module             ro code  ro data  rw data
    ------             -------  -------  -------
F:\ Firmware\my-project-hihack\trunk\ my-project-hihack --username kaiser.ren@gmail.com\energymicro\kits\EFM32TG_STK3300\examples\an0045_efm32_uart_rs-232\iar\uart_rs-232\Debug\Obj: [1]
    bsp_stk.o              120       24       24
    em_cmu.o             1 096
    em_gpio.o              212
    em_usart.o             332
    main.o               1 180      104      572
    startup_efm32tg.o      300
    system_efm32tg.o       284        8       12
    --------------------------------------------
    Total:               3 524      136      608

command line: [2]
    --------------------------------------------
    Total:

dl7M_tln.a: [3]
    exit.o                   4
    low_level_init.o         4
    --------------------------------------------
    Total:                   8

rt7M_tl.a: [4]
    XXexit.o                12
    bwt_init3c.o
    cexit.o                 10
    cmain.o                 22
    copy_init3.o            46
    cstartup_M.o            12
    data_init3.o            44
    zero_init3.o            34
    --------------------------------------------
    Total:                 180

    Gaps                     4
    Linker created                   36    1 024
------------------------------------------------
    Grand Total:         3 716      172    1 632


*******************************************************************************
*** ENTRY LIST
***

Entry                      Address   Size  Type      Object
-----                      -------   ----  ----      ------
?main                   0x00000e19         Code  Gb  cmain.o [4]
ACMP0_IRQHandler        0x00000ead         Code  Wk  startup_efm32tg.o [1]
ADC0_IRQHandler         0x00000eb1         Code  Wk  startup_efm32tg.o [1]
AES_IRQHandler          0x00000ef1         Code  Wk  startup_efm32tg.o [1]
BITBAND_Peripheral      0x000005b1    0xe  Code  Lc  em_cmu.o [1]
BSP_Disable             0x00000539    0x6  Code  Gb  bsp_stk.o [1]
BSP_Init                0x0000053f   0x5a  Code  Gb  bsp_stk.o [1]
BusFault_Handler        0x00000e81         Code  Wk  startup_efm32tg.o [1]
CHIP_Init               0x000000d1    0x2  Code  Lc  main.o [1]
CMU_AUXClkGet           0x000005cd   0x64  Code  Lc  em_cmu.o [1]
CMU_ClockEnable         0x000006dd   0x86  Code  Gb  em_cmu.o [1]
CMU_ClockFreqGet        0x00000763  0x14c  Code  Gb  em_cmu.o [1]
CMU_ClockSelectGet      0x000008af   0xf2  Code  Gb  em_cmu.o [1]
CMU_DBGClkGet           0x00000631   0x30  Code  Lc  em_cmu.o [1]
CMU_DivToLog2           0x000005bf    0xe  Code  Lc  em_cmu.o [1]
CMU_IRQHandler          0x00000ee1         Code  Wk  startup_efm32tg.o [1]
CMU_LFClkGet            0x00000661   0x66  Code  Lc  em_cmu.o [1]
CMU_Sync                0x000006c7   0x16  Code  Lc  em_cmu.o [1]
CSTACK$$Base            0x20000260          --   Gb  - Linker created -
CSTACK$$Limit           0x20000660          --   Gb  - Linker created -
DAC0_IRQHandler         0x00000eb5         Code  Wk  startup_efm32tg.o [1]
DMA_IRQHandler          0x00000e99         Code  Wk  startup_efm32tg.o [1]
DebugMon_Handler        0x00000e8d         Code  Wk  startup_efm32tg.o [1]
EMU_EnterEM1            0x000000d3   0x14  Code  Lc  main.o [1]
GPIO_EVEN_IRQHandler    0x00000e9d         Code  Wk  startup_efm32tg.o [1]
GPIO_ODD_IRQHandler     0x00000ebd         Code  Wk  startup_efm32tg.o [1]
GPIO_PinModeSet         0x000009f9   0xcc  Code  Gb  em_gpio.o [1]
GetProdRev              0x00000c19    0xa  Code  Lc  system_efm32tg.o [1]
HardFault_Handler       0x00000e79         Code  Wk  startup_efm32tg.o [1]
I2C0_IRQHandler         0x00000eb9         Code  Wk  startup_efm32tg.o [1]
LCD_IRQHandler          0x00000ee9         Code  Wk  startup_efm32tg.o [1]
LESENSE_IRQHandler      0x00000ecd         Code  Wk  startup_efm32tg.o [1]
LETIMER0_IRQHandler     0x00000ed5         Code  Wk  startup_efm32tg.o [1]
LEUART0_IRQHandler      0x00000ed1         Code  Wk  startup_efm32tg.o [1]
MSC_IRQHandler          0x00000eed         Code  Wk  startup_efm32tg.o [1]
MemManage_Handler       0x00000e7d         Code  Wk  startup_efm32tg.o [1]
NMI_Handler             0x00000e75         Code  Wk  startup_efm32tg.o [1]
NVIC_ClearPendingIRQ    0x000000b7   0x1a  Code  Lc  main.o [1]
NVIC_EnableIRQ          0x0000009d   0x1a  Code  Lc  main.o [1]
PCNT0_IRQHandler        0x00000ed9         Code  Wk  startup_efm32tg.o [1]
PendSV_Handler          0x00000e91         Code  Wk  startup_efm32tg.o [1]
RTC_IRQHandler          0x00000edd         Code  Wk  startup_efm32tg.o [1]
Region$$Table$$Base     0x00000ddc          --   Gb  - Linker created -
Region$$Table$$Limit    0x00000e00          --   Gb  - Linker created -
Reset_Handler           0x00000e51         Code  Wk  startup_efm32tg.o [1]
SVC_Handler             0x00000e89         Code  Wk  startup_efm32tg.o [1]
SysTick_Handler         0x00000e95         Code  Wk  startup_efm32tg.o [1]
SystemCoreClock         0x2000025c    0x4  Data  Gb  system_efm32tg.o [1]
SystemCoreClockGet      0x00000c23   0x1a  Code  Gb  system_efm32tg.o [1]
SystemHFClockGet        0x00000c3d   0xa6  Code  Gb  system_efm32tg.o [1]
SystemHFXOClock         0x20000034    0x4  Data  Lc  system_efm32tg.o [1]
SystemInit              0x00000ce3    0x2  Code  Gb  system_efm32tg.o [1]
SystemLFRCOClockGet     0x00000ce5    0x6  Code  Gb  system_efm32tg.o [1]
SystemLFXOClock         0x20000038    0x4  Data  Lc  system_efm32tg.o [1]
SystemLFXOClockGet      0x00000cf1    0x6  Code  Gb  system_efm32tg.o [1]
SystemULFRCOClockGet    0x00000ceb    0x6  Code  Gb  system_efm32tg.o [1]
TIMER0_IRQHandler       0x00000ea1         Code  Wk  startup_efm32tg.o [1]
TIMER1_IRQHandler       0x00000ec1         Code  Wk  startup_efm32tg.o [1]
USART0_RX_IRQHandler    0x00000ea5         Code  Wk  startup_efm32tg.o [1]
USART0_TX_IRQHandler    0x00000ea9         Code  Wk  startup_efm32tg.o [1]
USART1_RX_IRQHandler    0x000003ed   0x66  Code  Gb  main.o [1]
USART1_TX_IRQHandler    0x00000453   0x6c  Code  Gb  main.o [1]
USART_BaudrateAsyncSet  0x00000acd   0x84  Code  Gb  em_usart.o [1]
USART_Enable            0x00000b51   0x14  Code  Gb  em_usart.o [1]
USART_InitAsync         0x00000b65   0x4a  Code  Gb  em_usart.o [1]
USART_IntClear          0x000000e7    0x4  Code  Lc  main.o [1]
USART_IntDisable        0x000000eb    0x8  Code  Lc  main.o [1]
USART_IntEnable         0x000000f3    0x8  Code  Lc  main.o [1]
USART_IntGet            0x000000fb    0x4  Code  Lc  main.o [1]
USART_Reset             0x00000baf   0x40  Code  Gb  em_usart.o [1]
USART_Rx                0x00000c01    0xc  Code  Gb  em_usart.o [1]
USART_Tx                0x00000c0d    0xc  Code  Gb  em_usart.o [1]
UsageFault_Handler      0x00000e85         Code  Wk  startup_efm32tg.o [1]
VCMP_IRQHandler         0x00000ee5         Code  Wk  startup_efm32tg.o [1]
__Vectors               0x00000000          --   Gb  startup_efm32tg.o [1]
__Vectors_End           0x0000009c         Data  Gb  startup_efm32tg.o [1]
__Vectors_Size {Abs}    0x0000009c          --   Gb  startup_efm32tg.o [1]
__cmain                 0x00000e19         Code  Gb  cmain.o [4]
__exit                  0x00000e45         Code  Gb  XXexit.o [4]
__iar_SB                0x00000ef4         Data  Gb  bwt_init3c.o [4]
__iar_copy_init3        0x00000d35   0x2e  Code  Gb  copy_init3.o [4]
__iar_data_init3        0x00000db1   0x2c  Code  Gb  data_init3.o [4]
__iar_program_start     0x00000e61         Code  Gb  cstartup_M.o [4]
__iar_zero_init3        0x00000d63   0x22  Code  Gb  zero_init3.o [4]
__low_level_init        0x00000e2f    0x4  Code  Gb  low_level_init.o [3]
__vector_table          0x00000000         Data  Gb  startup_efm32tg.o [1]
__vector_table_0x1c     0x0000001c         Data  Gb  startup_efm32tg.o [1]
_call_main              0x00000e25         Code  Gb  cmain.o [4]
_exit                   0x00000e39         Code  Gb  cexit.o [4]
_main                   0x00000e2b         Code  Gb  cmain.o [4]
cmuSetup                0x000003d9   0x14  Code  Gb  main.o [1]
exit                    0x00000e33    0x4  Code  Gb  exit.o [3]
main                    0x000001bb   0x88  Code  Gb  main.o [1]
ofsLen                  0x00000e70    0x4  Data  Gb  main.o [1]
overflowString          0x00000e00   0x18  Data  Gb  main.o [1]
rxBuf                   0x2000003c  0x110  Data  Gb  main.o [1]
setupSWO                0x000000ff   0xbc  Code  Gb  main.o [1]
txBuf                   0x2000014c  0x110  Data  Gb  main.o [1]
uart                    0x20000030    0x4  Data  Lc  main.o [1]
uartGetData             0x00000373   0x66  Code  Gb  main.o [1]
uartInit                0x20000018   0x18  Data  Lc  main.o [1]
uartPutData             0x00000301   0x72  Code  Gb  main.o [1]
uartSetup               0x00000243   0xbe  Code  Gb  main.o [1]
usartInit               0x20000000   0x18  Data  Lc  bsp_stk.o [1]
welLen                  0x00000e6c    0x4  Data  Gb  main.o [1]
welcomeString           0x00000d84   0x2c  Data  Gb  main.o [1]


[1] = F:\ Firmware\my-project-hihack\trunk\ my-project-hihack --username kaiser.ren@gmail.com\energymicro\kits\EFM32TG_STK3300\examples\an0045_efm32_uart_rs-232\iar\uart_rs-232\Debug\Obj
[2] = command line
[3] = dl7M_tln.a
[4] = rt7M_tl.a

  3 716 bytes of readonly  code memory
    172 bytes of readonly  data memory
  1 632 bytes of readwrite data memory

Errors: none
Warnings: none
