###############################################################################
#                                                                             #
# IAR ELF Linker V6.30.6.53336/W32 for ARM              26/Jun/2013  15:07:38 #
# Copyright 2007-2012 IAR Systems AB.                                         #
#                                                                             #
#    Output file  =  D:\Firmware\my-project-hihack\trunk\ my-project-hihack   #
#                    --username kaiser.ren@gmail.com\energymicro\kits\EFM32TG #
#                    _STK3300\examples\an0045_efm32_uart_rs-232\iar\uart_rs-2 #
#                    32\Debug\Exe\uart_rs-232.out                             #
#    Map file     =  D:\Firmware\my-project-hihack\trunk\ my-project-hihack   #
#                    --username kaiser.ren@gmail.com\energymicro\kits\EFM32TG #
#                    _STK3300\examples\an0045_efm32_uart_rs-232\iar\uart_rs-2 #
#                    32\Debug\List\uart_rs-232.map                            #
#    Command line =  "D:\Firmware\my-project-hihack\trunk\ my-project-hihack  #
#                    --username kaiser.ren@gmail.com\energymicro\kits\EFM32TG #
#                    _STK3300\examples\an0045_efm32_uart_rs-232\iar\uart_rs-2 #
#                    32\Debug\Obj\bsp_stk.o" "D:\Firmware\my-project-hihack\t #
#                    runk\ my-project-hihack --username                       #
#                    kaiser.ren@gmail.com\energymicro\kits\EFM32TG_STK3300\ex #
#                    amples\an0045_efm32_uart_rs-232\iar\uart_rs-232\Debug\Ob #
#                    j\bsp_stk_leds.o" "D:\Firmware\my-project-hihack\trunk\  #
#                    my-project-hihack --username                             #
#                    kaiser.ren@gmail.com\energymicro\kits\EFM32TG_STK3300\ex #
#                    amples\an0045_efm32_uart_rs-232\iar\uart_rs-232\Debug\Ob #
#                    j\bsp_trace.o" "D:\Firmware\my-project-hihack\trunk\     #
#                    my-project-hihack --username                             #
#                    kaiser.ren@gmail.com\energymicro\kits\EFM32TG_STK3300\ex #
#                    amples\an0045_efm32_uart_rs-232\iar\uart_rs-232\Debug\Ob #
#                    j\em_cmu.o" "D:\Firmware\my-project-hihack\trunk\        #
#                    my-project-hihack --username                             #
#                    kaiser.ren@gmail.com\energymicro\kits\EFM32TG_STK3300\ex #
#                    amples\an0045_efm32_uart_rs-232\iar\uart_rs-232\Debug\Ob #
#                    j\em_ebi.o" "D:\Firmware\my-project-hihack\trunk\        #
#                    my-project-hihack --username                             #
#                    kaiser.ren@gmail.com\energymicro\kits\EFM32TG_STK3300\ex #
#                    amples\an0045_efm32_uart_rs-232\iar\uart_rs-232\Debug\Ob #
#                    j\em_emu.o" "D:\Firmware\my-project-hihack\trunk\        #
#                    my-project-hihack --username                             #
#                    kaiser.ren@gmail.com\energymicro\kits\EFM32TG_STK3300\ex #
#                    amples\an0045_efm32_uart_rs-232\iar\uart_rs-232\Debug\Ob #
#                    j\em_gpio.o" "D:\Firmware\my-project-hihack\trunk\       #
#                    my-project-hihack --username                             #
#                    kaiser.ren@gmail.com\energymicro\kits\EFM32TG_STK3300\ex #
#                    amples\an0045_efm32_uart_rs-232\iar\uart_rs-232\Debug\Ob #
#                    j\em_system.o" "D:\Firmware\my-project-hihack\trunk\     #
#                    my-project-hihack --username                             #
#                    kaiser.ren@gmail.com\energymicro\kits\EFM32TG_STK3300\ex #
#                    amples\an0045_efm32_uart_rs-232\iar\uart_rs-232\Debug\Ob #
#                    j\em_usart.o" "D:\Firmware\my-project-hihack\trunk\      #
#                    my-project-hihack --username                             #
#                    kaiser.ren@gmail.com\energymicro\kits\EFM32TG_STK3300\ex #
#                    amples\an0045_efm32_uart_rs-232\iar\uart_rs-232\Debug\Ob #
#                    j\main.o" "D:\Firmware\my-project-hihack\trunk\          #
#                    my-project-hihack --username                             #
#                    kaiser.ren@gmail.com\energymicro\kits\EFM32TG_STK3300\ex #
#                    amples\an0045_efm32_uart_rs-232\iar\uart_rs-232\Debug\Ob #
#                    j\startup_efm32tg.o" "D:\Firmware\my-project-hihack\trun #
#                    k\ my-project-hihack --username                          #
#                    kaiser.ren@gmail.com\energymicro\kits\EFM32TG_STK3300\ex #
#                    amples\an0045_efm32_uart_rs-232\iar\uart_rs-232\Debug\Ob #
#                    j\system_efm32tg.o" --redirect _Printf=_PrintfFull       #
#                    --redirect _Scanf=_ScanfFull -o                          #
#                    "D:\Firmware\my-project-hihack\trunk\ my-project-hihack  #
#                    --username kaiser.ren@gmail.com\energymicro\kits\EFM32TG #
#                    _STK3300\examples\an0045_efm32_uart_rs-232\iar\uart_rs-2 #
#                    32\Debug\Exe\uart_rs-232.out" --map                      #
#                    "D:\Firmware\my-project-hihack\trunk\ my-project-hihack  #
#                    --username kaiser.ren@gmail.com\energymicro\kits\EFM32TG #
#                    _STK3300\examples\an0045_efm32_uart_rs-232\iar\uart_rs-2 #
#                    32\Debug\List\uart_rs-232.map" --config                  #
#                    "D:\Firmware\my-project-hihack\trunk\ my-project-hihack  #
#                    --username kaiser.ren@gmail.com\energymicro\kits\EFM32TG #
#                    _STK3300\examples\an0045_efm32_uart_rs-232\iar\..\EFM32T #
#                    G840F32.icf" --entry __iar_program_start --vfe           #
#                                                                             #
#                                                                             #
###############################################################################

*******************************************************************************
*** RUNTIME MODEL ATTRIBUTES
***

CppFlavor       = *
__SystemLibrary = DLib


*******************************************************************************
*** PLACEMENT SUMMARY
***

"A1":  place at 0x00003000 { ro section .intvec };
"P1":  place in [from 0x00003000 to 0x00007fff] { ro };
"P2":  place in [from 0x20000000 to 0x20000fff] { rw, block CSTACK, block HEAP };

  Section            Kind        Address   Size  Object
  -------            ----        -------   ----  ------
"A1":                                      0x9c
  .intvec            ro code  0x00003000   0x9c  startup_efm32tg.o [1]
                            - 0x0000309c   0x9c

"P1":                                     0xbf8
  .text              ro code  0x0000309c  0x448  em_cmu.o [1]
  .text              ro code  0x000034e4  0x11c  system_efm32tg.o [1]
  .text              ro code  0x00003600  0x2a0  main.o [1]
  .text              ro code  0x000038a0   0xd4  em_gpio.o [1]
  .text              ro code  0x00003974  0x14c  em_usart.o [1]
  .text              ro code  0x00003ac0   0x2e  copy_init3.o [4]
  .text              ro code  0x00003aee   0x22  zero_init3.o [4]
  .rodata            const    0x00003b10   0x2c  main.o [1]
  .text              ro code  0x00003b3c   0x2c  data_init3.o [4]
  .iar.init_table    const    0x00003b68   0x24  - Linker created -
  .text              ro code  0x00003b8c   0x16  cmain.o [4]
  .text              ro code  0x00003ba2    0x4  low_level_init.o [3]
  .text              ro code  0x00003ba6    0x4  exit.o [3]
  .text              ro code  0x00003bac    0xa  cexit.o [4]
  .text              ro code  0x00003bb8    0xc  XXexit.o [4]
  .text              ro code  0x00003bc4   0x10  startup_efm32tg.o [1]
  .rodata            const    0x00003bd4    0xc  main.o [1]
  .text              ro code  0x00003be0    0xc  cstartup_M.o [4]
  .rodata            const    0x00003bec    0x4  main.o [1]
  .text              ro code  0x00003bf0    0x4  startup_efm32tg.o [1]
  .text              ro code  0x00003bf4    0x4  startup_efm32tg.o [1]
  .text              ro code  0x00003bf8    0x4  startup_efm32tg.o [1]
  .text              ro code  0x00003bfc    0x4  startup_efm32tg.o [1]
  .text              ro code  0x00003c00    0x4  startup_efm32tg.o [1]
  .text              ro code  0x00003c04    0x4  startup_efm32tg.o [1]
  .text              ro code  0x00003c08    0x4  startup_efm32tg.o [1]
  .text              ro code  0x00003c0c    0x4  startup_efm32tg.o [1]
  .text              ro code  0x00003c10    0x4  startup_efm32tg.o [1]
  .text              ro code  0x00003c14    0x4  startup_efm32tg.o [1]
  .text              ro code  0x00003c18    0x4  startup_efm32tg.o [1]
  .text              ro code  0x00003c1c    0x4  startup_efm32tg.o [1]
  .text              ro code  0x00003c20    0x4  startup_efm32tg.o [1]
  .text              ro code  0x00003c24    0x4  startup_efm32tg.o [1]
  .text              ro code  0x00003c28    0x4  startup_efm32tg.o [1]
  .text              ro code  0x00003c2c    0x4  startup_efm32tg.o [1]
  .text              ro code  0x00003c30    0x4  startup_efm32tg.o [1]
  .text              ro code  0x00003c34    0x4  startup_efm32tg.o [1]
  .text              ro code  0x00003c38    0x4  startup_efm32tg.o [1]
  .text              ro code  0x00003c3c    0x4  startup_efm32tg.o [1]
  .text              ro code  0x00003c40    0x4  startup_efm32tg.o [1]
  .text              ro code  0x00003c44    0x4  startup_efm32tg.o [1]
  .text              ro code  0x00003c48    0x4  startup_efm32tg.o [1]
  .text              ro code  0x00003c4c    0x4  startup_efm32tg.o [1]
  .text              ro code  0x00003c50    0x4  startup_efm32tg.o [1]
  .text              ro code  0x00003c54    0x4  startup_efm32tg.o [1]
  .text              ro code  0x00003c58    0x4  startup_efm32tg.o [1]
  .text              ro code  0x00003c5c    0x4  startup_efm32tg.o [1]
  .text              ro code  0x00003c60    0x4  startup_efm32tg.o [1]
  .text              ro code  0x00003c64    0x4  startup_efm32tg.o [1]
  .text              ro code  0x00003c68    0x4  startup_efm32tg.o [1]
  .text              ro code  0x00003c6c    0x4  startup_efm32tg.o [1]
  .rodata            const    0x00003c70    0x0  bwt_init3c.o [4]
  Initializer bytes  ro data  0x00003c70   0x24  <for P2 s0>
                            - 0x00003c94  0xbf8

"P2", part 1 of 3:                         0x24
  P2 s0                       0x20000000   0x24  <Init block>
    .data            inited   0x20000000   0x18  main.o [1]
    .data            inited   0x20000018    0x4  main.o [1]
    .data            inited   0x2000001c    0x4  system_efm32tg.o [1]
    .data            inited   0x20000020    0x4  system_efm32tg.o [1]
                            - 0x20000024   0x24

"P2", part 2 of 3:                        0x224
  .bss               zero     0x20000024  0x110  main.o [1]
  .bss               zero     0x20000134  0x110  main.o [1]
  .bss               zero     0x20000244    0x4  system_efm32tg.o [1]
                            - 0x20000248  0x224

"P2", part 3 of 3:                        0x400
  CSTACK                      0x20000248  0x400  <Block>
    CSTACK           uninit   0x20000248  0x400  <Block tail>
                            - 0x20000648  0x400


*******************************************************************************
*** INIT TABLE
***

          Address     Size
          -------     ----
Zero (__iar_zero_init3)
    1 destination range, total size 0x224:
          0x20000024  0x224

Copy (__iar_copy_init3)
    1 source range, total size 0x24:
          0x00003c70   0x24
    1 destination range, total size 0x24:
          0x20000000   0x24



*******************************************************************************
*** MODULE SUMMARY
***

    Module             ro code  ro data  rw data
    ------             -------  -------  -------
D:\Firmware\my-project-hihack\trunk\ my-project-hihack --username kaiser.ren@gmail.com\energymicro\kits\EFM32TG_STK3300\examples\an0045_efm32_uart_rs-232\iar\uart_rs-232\Debug\Obj: [1]
    em_cmu.o             1 096
    em_gpio.o              212
    em_usart.o             332
    main.o                 672       88      572
    startup_efm32tg.o      300
    system_efm32tg.o       284        8       12
    --------------------------------------------
    Total:               2 896       96      584

command line: [2]
    --------------------------------------------
    Total:

dl7M_tln.a: [3]
    exit.o                   4
    low_level_init.o         4
    --------------------------------------------
    Total:                   8

rt7M_tl.a: [4]
    XXexit.o                12
    bwt_init3c.o
    cexit.o                 10
    cmain.o                 22
    copy_init3.o            46
    cstartup_M.o            12
    data_init3.o            44
    zero_init3.o            34
    --------------------------------------------
    Total:                 180

    Gaps                     4
    Linker created                   36    1 024
------------------------------------------------
    Grand Total:         3 088      132    1 608


*******************************************************************************
*** ENTRY LIST
***

Entry                      Address   Size  Type      Object
-----                      -------   ----  ----      ------
?main                   0x00003b8d         Code  Gb  cmain.o [4]
ACMP0_IRQHandler        0x00003c29         Code  Wk  startup_efm32tg.o [1]
ADC0_IRQHandler         0x00003c2d         Code  Wk  startup_efm32tg.o [1]
AES_IRQHandler          0x00003c6d         Code  Wk  startup_efm32tg.o [1]
BITBAND_Peripheral      0x0000309d    0xe  Code  Lc  em_cmu.o [1]
BusFault_Handler        0x00003bfd         Code  Wk  startup_efm32tg.o [1]
CHIP_Init               0x00003635    0x2  Code  Lc  main.o [1]
CMU_AUXClkGet           0x000030b9   0x64  Code  Lc  em_cmu.o [1]
CMU_ClockEnable         0x000031c9   0x86  Code  Gb  em_cmu.o [1]
CMU_ClockFreqGet        0x0000324f  0x14c  Code  Gb  em_cmu.o [1]
CMU_ClockSelectGet      0x0000339b   0xf2  Code  Gb  em_cmu.o [1]
CMU_DBGClkGet           0x0000311d   0x30  Code  Lc  em_cmu.o [1]
CMU_DivToLog2           0x000030ab    0xe  Code  Lc  em_cmu.o [1]
CMU_IRQHandler          0x00003c5d         Code  Wk  startup_efm32tg.o [1]
CMU_LFClkGet            0x0000314d   0x66  Code  Lc  em_cmu.o [1]
CMU_Sync                0x000031b3   0x16  Code  Lc  em_cmu.o [1]
CSTACK$$Base            0x20000248          --   Gb  - Linker created -
CSTACK$$Limit           0x20000648          --   Gb  - Linker created -
DAC0_IRQHandler         0x00003c31         Code  Wk  startup_efm32tg.o [1]
DMA_IRQHandler          0x00003c15         Code  Wk  startup_efm32tg.o [1]
DebugMon_Handler        0x00003c09         Code  Wk  startup_efm32tg.o [1]
GPIO_EVEN_IRQHandler    0x00003c19         Code  Wk  startup_efm32tg.o [1]
GPIO_ODD_IRQHandler     0x00003c39         Code  Wk  startup_efm32tg.o [1]
GPIO_PinModeSet         0x000038a1   0xcc  Code  Gb  em_gpio.o [1]
GetProdRev              0x000034e5    0xa  Code  Lc  system_efm32tg.o [1]
HardFault_Handler       0x00003bf5         Code  Wk  startup_efm32tg.o [1]
I2C0_IRQHandler         0x00003c35         Code  Wk  startup_efm32tg.o [1]
LCD_IRQHandler          0x00003c65         Code  Wk  startup_efm32tg.o [1]
LESENSE_IRQHandler      0x00003c49         Code  Wk  startup_efm32tg.o [1]
LETIMER0_IRQHandler     0x00003c51         Code  Wk  startup_efm32tg.o [1]
LEUART0_IRQHandler      0x00003c4d         Code  Wk  startup_efm32tg.o [1]
MSC_IRQHandler          0x00003c69         Code  Wk  startup_efm32tg.o [1]
MemManage_Handler       0x00003bf9         Code  Wk  startup_efm32tg.o [1]
NMI_Handler             0x00003bf1         Code  Wk  startup_efm32tg.o [1]
NVIC_ClearPendingIRQ    0x0000361b   0x1a  Code  Lc  main.o [1]
NVIC_EnableIRQ          0x00003601   0x1a  Code  Lc  main.o [1]
PCNT0_IRQHandler        0x00003c55         Code  Wk  startup_efm32tg.o [1]
PendSV_Handler          0x00003c0d         Code  Wk  startup_efm32tg.o [1]
RTC_IRQHandler          0x00003c59         Code  Wk  startup_efm32tg.o [1]
Region$$Table$$Base     0x00003b68          --   Gb  - Linker created -
Region$$Table$$Limit    0x00003b8c          --   Gb  - Linker created -
Reset_Handler           0x00003bc5         Code  Wk  startup_efm32tg.o [1]
SVC_Handler             0x00003c05         Code  Wk  startup_efm32tg.o [1]
SysTick_Handler         0x00003c11         Code  Wk  startup_efm32tg.o [1]
SystemCoreClock         0x20000244    0x4  Data  Gb  system_efm32tg.o [1]
SystemCoreClockGet      0x000034ef   0x1a  Code  Gb  system_efm32tg.o [1]
SystemHFClockGet        0x00003509   0xa6  Code  Gb  system_efm32tg.o [1]
SystemHFXOClock         0x2000001c    0x4  Data  Lc  system_efm32tg.o [1]
SystemInit              0x000035af    0x2  Code  Gb  system_efm32tg.o [1]
SystemLFRCOClockGet     0x000035b1    0x6  Code  Gb  system_efm32tg.o [1]
SystemLFXOClock         0x20000020    0x4  Data  Lc  system_efm32tg.o [1]
SystemLFXOClockGet      0x000035bd    0x6  Code  Gb  system_efm32tg.o [1]
SystemULFRCOClockGet    0x000035b7    0x6  Code  Gb  system_efm32tg.o [1]
TIMER0_IRQHandler       0x00003c1d         Code  Wk  startup_efm32tg.o [1]
TIMER1_IRQHandler       0x00003c3d         Code  Wk  startup_efm32tg.o [1]
USART0_RX_IRQHandler    0x00003799   0x66  Code  Gb  main.o [1]
USART0_TX_IRQHandler    0x000037ff   0x6c  Code  Gb  main.o [1]
USART1_RX_IRQHandler    0x00003c41         Code  Wk  startup_efm32tg.o [1]
USART1_TX_IRQHandler    0x00003c45         Code  Wk  startup_efm32tg.o [1]
USART_BaudrateAsyncSet  0x00003975   0x84  Code  Gb  em_usart.o [1]
USART_Enable            0x000039f9   0x14  Code  Gb  em_usart.o [1]
USART_InitAsync         0x00003a0d   0x4a  Code  Gb  em_usart.o [1]
USART_IntClear          0x00003637    0x4  Code  Lc  main.o [1]
USART_IntDisable        0x0000363b    0x8  Code  Lc  main.o [1]
USART_IntEnable         0x00003643    0x8  Code  Lc  main.o [1]
USART_IntGet            0x0000364b    0x4  Code  Lc  main.o [1]
USART_Reset             0x00003a57   0x40  Code  Gb  em_usart.o [1]
USART_Rx                0x00003aa9    0xc  Code  Gb  em_usart.o [1]
USART_Tx                0x00003ab5    0xc  Code  Gb  em_usart.o [1]
UsageFault_Handler      0x00003c01         Code  Wk  startup_efm32tg.o [1]
VCMP_IRQHandler         0x00003c61         Code  Wk  startup_efm32tg.o [1]
__Vectors               0x00003000          --   Gb  startup_efm32tg.o [1]
__Vectors_End           0x0000309c         Data  Gb  startup_efm32tg.o [1]
__Vectors_Size {Abs}    0x0000009c          --   Gb  startup_efm32tg.o [1]
__cmain                 0x00003b8d         Code  Gb  cmain.o [4]
__exit                  0x00003bb9         Code  Gb  XXexit.o [4]
__iar_SB                0x00003c70         Data  Gb  bwt_init3c.o [4]
__iar_copy_init3        0x00003ac1   0x2e  Code  Gb  copy_init3.o [4]
__iar_data_init3        0x00003b3d   0x2c  Code  Gb  data_init3.o [4]
__iar_program_start     0x00003be1         Code  Gb  cstartup_M.o [4]
__iar_zero_init3        0x00003aef   0x22  Code  Gb  zero_init3.o [4]
__low_level_init        0x00003ba3    0x4  Code  Gb  low_level_init.o [3]
__vector_table          0x00003000         Data  Gb  startup_efm32tg.o [1]
__vector_table_0x1c     0x0000301c         Data  Gb  startup_efm32tg.o [1]
_call_main              0x00003b99         Code  Gb  cmain.o [4]
_exit                   0x00003bad         Code  Gb  cexit.o [4]
_main                   0x00003b9f         Code  Gb  cmain.o [4]
cmuSetup                0x00003785   0x14  Code  Gb  main.o [1]
exit                    0x00003ba7    0x4  Code  Gb  exit.o [3]
main                    0x0000364f   0x28  Code  Gb  main.o [1]
rxBuf                   0x20000024  0x110  Data  Gb  main.o [1]
txBuf                   0x20000134  0x110  Data  Gb  main.o [1]
uart                    0x20000018    0x4  Data  Lc  main.o [1]
uartInit                0x20000000   0x18  Data  Lc  main.o [1]
uartPutData             0x00003713   0x72  Code  Gb  main.o [1]
uartSetup               0x00003677   0x9c  Code  Gb  main.o [1]
welLen                  0x00003bec    0x4  Data  Gb  main.o [1]
welcomeString           0x00003b10   0x2c  Data  Gb  main.o [1]


[1] = D:\Firmware\my-project-hihack\trunk\ my-project-hihack --username kaiser.ren@gmail.com\energymicro\kits\EFM32TG_STK3300\examples\an0045_efm32_uart_rs-232\iar\uart_rs-232\Debug\Obj
[2] = command line
[3] = dl7M_tln.a
[4] = rt7M_tl.a

  3 088 bytes of readonly  code memory
    132 bytes of readonly  data memory
  1 608 bytes of readwrite data memory

Errors: none
Warnings: none
