###############################################################################
#                                                                             #
# IAR ELF Linker V6.30.6.53336/W32 for ARM              19/Feb/2013  11:13:52 #
# Copyright 2007-2012 IAR Systems AB.                                         #
#                                                                             #
#    Output file  =  D:\Firmware\my-project-hihack\trunk\ my-project-hihack   #
#                    --username kaiser.ren@gmail.com\energymicro\kits\EFM32TG #
#                    _STK3300\examples\Senfone\iar\hijack_efm32tg210\Release\ #
#                    Exe\hijack_efm32tg210.out                                #
#    Map file     =  D:\Firmware\my-project-hihack\trunk\ my-project-hihack   #
#                    --username kaiser.ren@gmail.com\energymicro\kits\EFM32TG #
#                    _STK3300\examples\Senfone\iar\hijack_efm32tg210\Release\ #
#                    List\hijack_efm32tg210.map                               #
#    Command line =  "D:\Firmware\my-project-hihack\trunk\ my-project-hihack  #
#                    --username kaiser.ren@gmail.com\energymicro\kits\EFM32TG #
#                    _STK3300\examples\Senfone\iar\hijack_efm32tg210\Release\ #
#                    Obj\bsp_stk.o" "D:\Firmware\my-project-hihack\trunk\     #
#                    my-project-hihack --username                             #
#                    kaiser.ren@gmail.com\energymicro\kits\EFM32TG_STK3300\ex #
#                    amples\Senfone\iar\hijack_efm32tg210\Release\Obj\bsp_stk #
#                    _leds.o" "D:\Firmware\my-project-hihack\trunk\           #
#                    my-project-hihack --username                             #
#                    kaiser.ren@gmail.com\energymicro\kits\EFM32TG_STK3300\ex #
#                    amples\Senfone\iar\hijack_efm32tg210\Release\Obj\bsp_tra #
#                    ce.o" "D:\Firmware\my-project-hihack\trunk\              #
#                    my-project-hihack --username                             #
#                    kaiser.ren@gmail.com\energymicro\kits\EFM32TG_STK3300\ex #
#                    amples\Senfone\iar\hijack_efm32tg210\Release\Obj\com.o"  #
#                    "D:\Firmware\my-project-hihack\trunk\ my-project-hihack  #
#                    --username kaiser.ren@gmail.com\energymicro\kits\EFM32TG #
#                    _STK3300\examples\Senfone\iar\hijack_efm32tg210\Release\ #
#                    Obj\decode.o" "D:\Firmware\my-project-hihack\trunk\      #
#                    my-project-hihack --username                             #
#                    kaiser.ren@gmail.com\energymicro\kits\EFM32TG_STK3300\ex #
#                    amples\Senfone\iar\hijack_efm32tg210\Release\Obj\em_asse #
#                    rt.o" "D:\Firmware\my-project-hihack\trunk\              #
#                    my-project-hihack --username                             #
#                    kaiser.ren@gmail.com\energymicro\kits\EFM32TG_STK3300\ex #
#                    amples\Senfone\iar\hijack_efm32tg210\Release\Obj\em_cmu. #
#                    o" "D:\Firmware\my-project-hihack\trunk\                 #
#                    my-project-hihack --username                             #
#                    kaiser.ren@gmail.com\energymicro\kits\EFM32TG_STK3300\ex #
#                    amples\Senfone\iar\hijack_efm32tg210\Release\Obj\em_emu. #
#                    o" "D:\Firmware\my-project-hihack\trunk\                 #
#                    my-project-hihack --username                             #
#                    kaiser.ren@gmail.com\energymicro\kits\EFM32TG_STK3300\ex #
#                    amples\Senfone\iar\hijack_efm32tg210\Release\Obj\em_gpio #
#                    .o" "D:\Firmware\my-project-hihack\trunk\                #
#                    my-project-hihack --username                             #
#                    kaiser.ren@gmail.com\energymicro\kits\EFM32TG_STK3300\ex #
#                    amples\Senfone\iar\hijack_efm32tg210\Release\Obj\em_int. #
#                    o" "D:\Firmware\my-project-hihack\trunk\                 #
#                    my-project-hihack --username                             #
#                    kaiser.ren@gmail.com\energymicro\kits\EFM32TG_STK3300\ex #
#                    amples\Senfone\iar\hijack_efm32tg210\Release\Obj\em_lcd. #
#                    o" "D:\Firmware\my-project-hihack\trunk\                 #
#                    my-project-hihack --username                             #
#                    kaiser.ren@gmail.com\energymicro\kits\EFM32TG_STK3300\ex #
#                    amples\Senfone\iar\hijack_efm32tg210\Release\Obj\em_syst #
#                    em.o" "D:\Firmware\my-project-hihack\trunk\              #
#                    my-project-hihack --username                             #
#                    kaiser.ren@gmail.com\energymicro\kits\EFM32TG_STK3300\ex #
#                    amples\Senfone\iar\hijack_efm32tg210\Release\Obj\em_time #
#                    r.o" "D:\Firmware\my-project-hihack\trunk\               #
#                    my-project-hihack --username                             #
#                    kaiser.ren@gmail.com\energymicro\kits\EFM32TG_STK3300\ex #
#                    amples\Senfone\iar\hijack_efm32tg210\Release\Obj\em_usar #
#                    t.o" "D:\Firmware\my-project-hihack\trunk\               #
#                    my-project-hihack --username                             #
#                    kaiser.ren@gmail.com\energymicro\kits\EFM32TG_STK3300\ex #
#                    amples\Senfone\iar\hijack_efm32tg210\Release\Obj\em_vcmp #
#                    .o" "D:\Firmware\my-project-hihack\trunk\                #
#                    my-project-hihack --username                             #
#                    kaiser.ren@gmail.com\energymicro\kits\EFM32TG_STK3300\ex #
#                    amples\Senfone\iar\hijack_efm32tg210\Release\Obj\encode. #
#                    o" "D:\Firmware\my-project-hihack\trunk\                 #
#                    my-project-hihack --username                             #
#                    kaiser.ren@gmail.com\energymicro\kits\EFM32TG_STK3300\ex #
#                    amples\Senfone\iar\hijack_efm32tg210\Release\Obj\main.o" #
#                     "D:\Firmware\my-project-hihack\trunk\                   #
#                    my-project-hihack --username                             #
#                    kaiser.ren@gmail.com\energymicro\kits\EFM32TG_STK3300\ex #
#                    amples\Senfone\iar\hijack_efm32tg210\Release\Obj\startup #
#                    _efm32tg.o" "D:\Firmware\my-project-hihack\trunk\        #
#                    my-project-hihack --username                             #
#                    kaiser.ren@gmail.com\energymicro\kits\EFM32TG_STK3300\ex #
#                    amples\Senfone\iar\hijack_efm32tg210\Release\Obj\system_ #
#                    efm32tg.o" "D:\Firmware\my-project-hihack\trunk\         #
#                    my-project-hihack --username                             #
#                    kaiser.ren@gmail.com\energymicro\kits\EFM32TG_STK3300\ex #
#                    amples\Senfone\iar\hijack_efm32tg210\Release\Obj\vddchec #
#                    k.o" --redirect _Printf=_PrintfFull --redirect           #
#                    _Scanf=_ScanfFull -o "D:\Firmware\my-project-hihack\trun #
#                    k\ my-project-hihack --username                          #
#                    kaiser.ren@gmail.com\energymicro\kits\EFM32TG_STK3300\ex #
#                    amples\Senfone\iar\hijack_efm32tg210\Release\Exe\hijack_ #
#                    efm32tg210.out" --map "D:\Firmware\my-project-hihack\tru #
#                    nk\ my-project-hihack --username                         #
#                    kaiser.ren@gmail.com\energymicro\kits\EFM32TG_STK3300\ex #
#                    amples\Senfone\iar\hijack_efm32tg210\Release\List\hijack #
#                    _efm32tg210.map" --config "D:\Firmware\my-project-hihack #
#                    \trunk\ my-project-hihack --username                     #
#                    kaiser.ren@gmail.com\energymicro\kits\EFM32TG_STK3300\ex #
#                    amples\Senfone\iar\..\TG840\EFM32TG840F32.icf" --entry   #
#                    __iar_program_start --inline --vfe                       #
#                                                                             #
#                                                                             #
###############################################################################

*******************************************************************************
*** RUNTIME MODEL ATTRIBUTES
***

CppFlavor       = *
__SystemLibrary = DLib


*******************************************************************************
*** PLACEMENT SUMMARY
***

"A1":  place at 0x00003000 { ro section .intvec };
"P1":  place in [from 0x00003000 to 0x00007fff] { ro };
"P2":  place in [from 0x20000000 to 0x20000fff] { rw, block CSTACK, block HEAP };

  Section            Kind        Address    Size  Object
  -------            ----        -------    ----  ------
"A1":                                       0x9c
  .intvec            ro code  0x00003000    0x9c  startup_efm32tg.o [1]
                            - 0x0000309c    0x9c

"P1":                                     0x2e4c
  .text              ro code  0x0000309c   0xd1e  xprintffull.o [3]
  .text              ro code  0x00003dba    0x2e  copy_init3.o [5]
  .text              ro code  0x00003de8    0x16  strchr.o [5]
  .text              ro code  0x00003dfe    0x22  zero_init3.o [5]
  .text              ro code  0x00003e20    0x36  strlen.o [5]
  .text              ro code  0x00003e56     0xa  xsprout.o [3]
  .text              ro code  0x00003e60    0x58  memchr.o [5]
  .text              ro code  0x00003eb8    0xee  I64DivMod.o [5]
  .text              ro code  0x00003fa8    0x76  ABImemcpy.o [5]
  .text              ro code  0x0000401e    0x44  xdnorm.o [4]
  .text              ro code  0x00004064    0x2e  DblCmpLe.o [4]
  .text              ro code  0x00004094    0x2e  DblCmpGe.o [4]
  .text              ro code  0x000040c4   0x11a  xdscale.o [4]
  .text              ro code  0x000041e0    0x58  DblToI32.o [4]
  .text              ro code  0x00004238    0x30  I32ToDbl.o [4]
  .text              ro code  0x00004268   0x180  DblSub.o [4]
  .text              ro code  0x000043e8   0x1a2  DblMul.o [4]
  .text              ro code  0x0000458c   0x246  DblDiv.o [4]
  .text              ro code  0x000047d2     0xe  div.o [3]
  .text              ro code  0x000047e0     0x2  I64DivZer.o [5]
  .text              ro code  0x000047e4    0xd4  DblAdd.o [4]
  .text              ro code  0x000048b8   0x664  em_cmu.o [1]
  .text              ro code  0x00004f1c     0x2  em_assert.o [1]
  .text              ro code  0x00004f20    0xe8  system_efm32tg.o [1]
  .text              ro code  0x00005008    0x14  em_emu.o [1]
  .text              ro code  0x0000501c   0x260  em_usart.o [1]
  .text              ro code  0x0000527c   0x238  encode.o [1]
  .text              ro code  0x000054b4   0x1dc  em_timer.o [1]
  .text              ro code  0x00005690    0xf0  em_gpio.o [1]
  .text              ro code  0x00005780   0x1e4  com.o [1]
  .text              ro code  0x00005964   0x214  decode.o [1]
  .text              ro code  0x00005b78    0x50  bsp_stk_leds.o [1]
  .text              ro code  0x00005bc8   0x1e0  main.o [1]
  .text              ro code  0x00005da8    0x2c  data_init3.o [5]
  .iar.init_table    const    0x00005dd4    0x24  - Linker created -
  .text              ro code  0x00005df8    0x16  cmain.o [5]
  .text              ro code  0x00005e0e     0x4  exit.o [3]
  .text              ro code  0x00005e14     0xa  cexit.o [5]
  .text              ro code  0x00005e20     0xc  XXexit.o [5]
  .text              ro code  0x00005e2c    0x10  startup_efm32tg.o [1]
  .text              ro code  0x00005e3c     0xc  cstartup_M.o [5]
  .text              ro code  0x00005e48     0x4  startup_efm32tg.o [1]
  .text              ro code  0x00005e4c     0x4  startup_efm32tg.o [1]
  .text              ro code  0x00005e50     0x4  startup_efm32tg.o [1]
  .text              ro code  0x00005e54     0x4  startup_efm32tg.o [1]
  .text              ro code  0x00005e58     0x4  startup_efm32tg.o [1]
  .text              ro code  0x00005e5c     0x4  startup_efm32tg.o [1]
  .text              ro code  0x00005e60     0x4  startup_efm32tg.o [1]
  .text              ro code  0x00005e64     0x4  startup_efm32tg.o [1]
  .text              ro code  0x00005e68     0x4  startup_efm32tg.o [1]
  .text              ro code  0x00005e6c     0x4  startup_efm32tg.o [1]
  .text              ro code  0x00005e70     0x4  startup_efm32tg.o [1]
  .text              ro code  0x00005e74     0x4  startup_efm32tg.o [1]
  .text              ro code  0x00005e78     0x4  startup_efm32tg.o [1]
  .text              ro code  0x00005e7c     0x4  startup_efm32tg.o [1]
  .text              ro code  0x00005e80     0x4  startup_efm32tg.o [1]
  .text              ro code  0x00005e84     0x4  startup_efm32tg.o [1]
  .text              ro code  0x00005e88     0x4  startup_efm32tg.o [1]
  .text              ro code  0x00005e8c     0x4  startup_efm32tg.o [1]
  .text              ro code  0x00005e90     0x4  startup_efm32tg.o [1]
  .text              ro code  0x00005e94     0x4  startup_efm32tg.o [1]
  .text              ro code  0x00005e98     0x4  startup_efm32tg.o [1]
  .text              ro code  0x00005e9c     0x4  startup_efm32tg.o [1]
  .text              ro code  0x00005ea0     0x4  startup_efm32tg.o [1]
  .text              ro code  0x00005ea4     0x4  startup_efm32tg.o [1]
  .text              ro code  0x00005ea8     0x4  startup_efm32tg.o [1]
  .text              ro code  0x00005eac     0x4  startup_efm32tg.o [1]
  .text              ro code  0x00005eb0     0x4  startup_efm32tg.o [1]
  .text              ro code  0x00005eb4     0x4  startup_efm32tg.o [1]
  .text              ro code  0x00005eb8     0x4  startup_efm32tg.o [1]
  .text              ro code  0x00005ebc     0x4  startup_efm32tg.o [1]
  .text              ro code  0x00005ec0     0x4  startup_efm32tg.o [1]
  .text              ro code  0x00005ec4     0x4  startup_efm32tg.o [1]
  .rodata            const    0x00005ec8     0x0  bwt_init3c.o [5]
  Initializer bytes  ro data  0x00005ec8    0x20  <for P2 s0>
                            - 0x00005ee8  0x2e4c

"P2", part 1 of 3:                          0x20
  P2 s0                       0x20000000    0x20  <Init block>
    .data            inited   0x20000000    0x18  com.o [1]
    .data            inited   0x20000018     0x8  system_efm32tg.o [1]
                            - 0x20000020    0x20

"P2", part 2 of 3:                         0x280
  .bss               zero     0x20000020   0x110  com.o [1]
  .bss               zero     0x20000130   0x110  com.o [1]
  .bss               zero     0x20000240    0x34  com.o [1]
  .bss               zero     0x20000274    0x14  decode.o [1]
  .bss               zero     0x20000288    0x10  encode.o [1]
  .bss               zero     0x20000298     0x4  system_efm32tg.o [1]
  .bss               zero     0x2000029c     0x2  em_emu.o [1]
                            - 0x2000029e   0x27e

"P2", part 3 of 3:                         0x400
  CSTACK                      0x200002a0   0x400  <Block>
    CSTACK           uninit   0x200002a0   0x400  <Block tail>
                            - 0x200006a0   0x400


*******************************************************************************
*** INIT TABLE
***

          Address     Size
          -------     ----
Zero (__iar_zero_init3)
    1 destination range, total size 0x27e:
          0x20000020  0x27e

Copy (__iar_copy_init3)
    1 source range, total size 0x20:
          0x00005ec8   0x20
    1 destination range, total size 0x20:
          0x20000000   0x20



*******************************************************************************
*** MODULE SUMMARY
***

    Module             ro code  ro data  rw data
    ------             -------  -------  -------
D:\Firmware\my-project-hihack\trunk\ my-project-hihack --username kaiser.ren@gmail.com\energymicro\kits\EFM32TG_STK3300\examples\Senfone\iar\hijack_efm32tg210\Release\Obj: [1]
    bsp_stk_leds.o          80
    com.o                  484       24      620
    decode.o               532                20
    em_assert.o              2
    em_cmu.o             1 636
    em_emu.o                20                 2
    em_gpio.o              240
    em_timer.o             476
    em_usart.o             608
    encode.o               568                16
    main.o                 480
    startup_efm32tg.o      300
    system_efm32tg.o       232        8       12
    --------------------------------------------
    Total:               5 658       32      670

command line: [2]
    --------------------------------------------
    Total:

dl7M_tln.a: [3]
    div.o                   14
    exit.o                   4
    xprintffull.o        3 358
    xsprout.o               10
    --------------------------------------------
    Total:               3 386

m7M_tl.a: [4]
    DblAdd.o               212
    DblCmpGe.o              46
    DblCmpLe.o              46
    DblDiv.o               582
    DblMul.o               418
    DblSub.o               384
    DblToI32.o              88
    I32ToDbl.o              48
    xdnorm.o                68
    xdscale.o              282
    --------------------------------------------
    Total:               2 174

rt7M_tl.a: [5]
    ABImemcpy.o            118
    I64DivMod.o            238
    I64DivZer.o              2
    XXexit.o                12
    bwt_init3c.o
    cexit.o                 10
    cmain.o                 22
    copy_init3.o            46
    cstartup_M.o            12
    data_init3.o            44
    memchr.o                88
    strchr.o                22
    strlen.o                54
    zero_init3.o            34
    --------------------------------------------
    Total:                 702

    Gaps                    20
    Linker created                   36    1 024
------------------------------------------------
    Grand Total:        11 940       68    1 694


*******************************************************************************
*** ENTRY LIST
***

Entry                      Address   Size  Type      Object
-----                      -------   ----  ----      ------
?main                   0x00005df9         Code  Gb  cmain.o [5]
ACMP0_IRQHandler        0x00005e81         Code  Wk  startup_efm32tg.o [1]
ADC0_IRQHandler         0x00005e85         Code  Wk  startup_efm32tg.o [1]
AES_IRQHandler          0x00005ec5         Code  Wk  startup_efm32tg.o [1]
BSP_LedClear            0x00005b9b    0x8  Code  Gb  bsp_stk_leds.o [1]
BSP_LedSet              0x00005ba3    0x6  Code  Gb  bsp_stk_leds.o [1]
BSP_LedsInit            0x00005b79   0x22  Code  Gb  bsp_stk_leds.o [1]
BusFault_Handler        0x00005e55         Code  Wk  startup_efm32tg.o [1]
CMU_Clkout              0x00005c4b   0x20  Code  Gb  main.o [1]
CMU_ClockEnable         0x00004999   0x82  Code  Gb  em_cmu.o [1]
CMU_ClockFreqGet        0x00004a25  0x150  Code  Gb  em_cmu.o [1]
CMU_ClockSelectGet      0x00004b83   0xb6  Code  Gb  em_cmu.o [1]
CMU_ClockSelectSet      0x00004c39  0x128  Code  Gb  em_cmu.o [1]
CMU_FlashWaitStateControl
                        0x000048e3   0x54  Code  Lc  em_cmu.o [1]
CMU_FlashWaitStateMax   0x000048b9   0x2a  Code  Lc  em_cmu.o [1]
CMU_HFRCOBandSet        0x00004d61   0x72  Code  Gb  em_cmu.o [1]
CMU_IRQHandler          0x00005eb5         Code  Wk  startup_efm32tg.o [1]
CMU_LFClkGet            0x00004937   0x62  Code  Lc  em_cmu.o [1]
CMU_OscillatorEnable    0x00004ded   0x54  Code  Gb  em_cmu.o [1]
COM_Init                0x00005781   0x8a  Code  Gb  com.o [1]
CSTACK$$Base            0x200002a0          --   Gb  - Linker created -
CSTACK$$Limit           0x200006a0          --   Gb  - Linker created -
DAC0_IRQHandler         0x00005e89         Code  Wk  startup_efm32tg.o [1]
DMA_IRQHandler          0x00005e6d         Code  Wk  startup_efm32tg.o [1]
DebugMon_Handler        0x00005e61         Code  Wk  startup_efm32tg.o [1]
Debug_Print             0x000058f7   0x40  Code  Gb  com.o [1]
EMU_UpdateOscConfig     0x00005009    0xa  Code  Gb  em_emu.o [1]
GPIO_EVEN_IRQHandler    0x00005c41    0xa  Code  Gb  main.o [1]
GPIO_ODD_IRQHandler     0x00005c37    0xa  Code  Gb  main.o [1]
GPIO_PinModeSet         0x00005691   0x76  Code  Gb  em_gpio.o [1]
HIJACK_CompareConfig    0x00005297   0x36  Code  Lc  encode.o [1]
HardFault_Handler       0x00005e4d         Code  Wk  startup_efm32tg.o [1]
I2C0_IRQHandler         0x00005e8d         Code  Wk  startup_efm32tg.o [1]
IsTime2Detect           0x000059fb   0x28  Code  Lc  decode.o [1]
LCD_IRQHandler          0x00005ebd         Code  Wk  startup_efm32tg.o [1]
LESENSE_IRQHandler      0x00005ea1         Code  Wk  startup_efm32tg.o [1]
LETIMER0_IRQHandler     0x00005ea9         Code  Wk  startup_efm32tg.o [1]
LEUART0_IRQHandler      0x00005ea5         Code  Wk  startup_efm32tg.o [1]
MSC_IRQHandler          0x00005ec1         Code  Wk  startup_efm32tg.o [1]
MemManage_Handler       0x00005e51         Code  Wk  startup_efm32tg.o [1]
NMI_Handler             0x00005e49         Code  Wk  startup_efm32tg.o [1]
PCNT0_IRQHandler        0x00005ead         Code  Wk  startup_efm32tg.o [1]
PendSV_Handler          0x00005e65         Code  Wk  startup_efm32tg.o [1]
RTC_IRQHandler          0x00005eb1         Code  Wk  startup_efm32tg.o [1]
Region$$Table$$Base     0x00005dd4          --   Gb  - Linker created -
Region$$Table$$Limit    0x00005df8          --   Gb  - Linker created -
Reset_Handler           0x00005e2d         Code  Wk  startup_efm32tg.o [1]
SVC_Handler             0x00005e5d         Code  Wk  startup_efm32tg.o [1]
SysTick_Handler         0x00005e69         Code  Wk  startup_efm32tg.o [1]
SystemCoreClock         0x20000298    0x4  Data  Gb  system_efm32tg.o [1]
SystemCoreClockGet      0x00004f21   0x16  Code  Gb  system_efm32tg.o [1]
SystemHFClockGet        0x00004f37   0x7e  Code  Gb  system_efm32tg.o [1]
SystemHFXOClock         0x20000018    0x4  Data  Lc  system_efm32tg.o [1]
SystemInit              0x00004fbb    0x2  Code  Gb  system_efm32tg.o [1]
SystemLFRCOClockGet     0x00004fbd    0x2  Code  Gb  system_efm32tg.o [1]
SystemLFXOClock         0x2000001c    0x4  Data  Lc  system_efm32tg.o [1]
SystemLFXOClockGet      0x00004fcb    0x2  Code  Gb  system_efm32tg.o [1]
SystemULFRCOClockGet    0x00004fc5    0x6  Code  Gb  system_efm32tg.o [1]
TIMER0_IRQHandler       0x00005965   0x36  Code  Gb  decode.o [1]
TIMER1_IRQHandler       0x0000527d   0x1a  Code  Gb  encode.o [1]
TIMER_Enable            0x000054b5   0x28  Code  Gb  em_timer.o [1]
TIMER_Init              0x000054dd   0xa8  Code  Gb  em_timer.o [1]
TIMER_InitCC            0x00005585   0x8a  Code  Gb  em_timer.o [1]
USART0_RX_IRQHandler    0x00005875   0x40  Code  Gb  com.o [1]
USART0_TX_IRQHandler    0x000058b5   0x42  Code  Gb  com.o [1]
USART1_RX_IRQHandler    0x00005e99         Code  Wk  startup_efm32tg.o [1]
USART1_TX_IRQHandler    0x00005e9d         Code  Wk  startup_efm32tg.o [1]
USART_BaudrateAsyncSet  0x0000501d   0xca  Code  Gb  em_usart.o [1]
USART_Enable            0x000050e7   0x2c  Code  Gb  em_usart.o [1]
USART_InitAsync         0x00005113   0x5a  Code  Gb  em_usart.o [1]
USART_Reset             0x00005173   0x5a  Code  Gb  em_usart.o [1]
USART_Rx                0x000051ed    0xc  Code  Gb  em_usart.o [1]
USART_Tx                0x000051f9    0xa  Code  Gb  em_usart.o [1]
UsageFault_Handler      0x00005e59         Code  Wk  startup_efm32tg.o [1]
VCMP_IRQHandler         0x00005eb9         Code  Wk  startup_efm32tg.o [1]
_GenldFull              0x00003b01  0x270  Code  Lc  xprintffull.o [3]
_LdtobFull              0x000036f1  0x400  Code  Lc  xprintffull.o [3]
_LitobFull              0x000035cb  0x126  Code  Lc  xprintffull.o [3]
_PrintfFull             0x0000309d  0x52e  Code  Gb  xprintffull.o [3]
_PutcharsFull           0x00003d71   0x2e  Code  Lc  xprintffull.o [3]
_SProut                 0x00003e57    0xa  Code  Gb  xsprout.o [3]
__Vectors               0x00003000          --   Gb  startup_efm32tg.o [1]
__Vectors_End           0x0000309c         Data  Gb  startup_efm32tg.o [1]
__Vectors_Size {Abs}    0x0000009c          --   Gb  startup_efm32tg.o [1]
__aeabi_cdcmple         0x00004065         Code  Gb  DblCmpLe.o [4]
__aeabi_cdrcmple        0x00004095         Code  Gb  DblCmpGe.o [4]
__aeabi_d2iz            0x000041e1         Code  Gb  DblToI32.o [4]
__aeabi_d2uiz           0x0000420d         Code  Gb  DblToI32.o [4]
__aeabi_ddiv            0x0000458d         Code  Gb  DblDiv.o [4]
__aeabi_dmul            0x000043e9         Code  Gb  DblMul.o [4]
__aeabi_dsub            0x00004269         Code  Gb  DblSub.o [4]
__aeabi_i2d             0x00004239         Code  Gb  I32ToDbl.o [4]
__aeabi_ldiv0           0x000047e1         Code  Gb  I64DivZer.o [5]
__aeabi_memcpy          0x00003fa9         Code  Gb  ABImemcpy.o [5]
__aeabi_memcpy4         0x00003fc9         Code  Gb  ABImemcpy.o [5]
__aeabi_memcpy8         0x00003fc9         Code  Gb  ABImemcpy.o [5]
__aeabi_ui2d            0x0000424d         Code  Gb  I32ToDbl.o [4]
__aeabi_uldivmod        0x00003eb9         Code  Gb  I64DivMod.o [5]
__cmain                 0x00005df9         Code  Gb  cmain.o [5]
__exit                  0x00005e21         Code  Gb  XXexit.o [5]
__iar_Dnorm             0x0000401f   0x44  Code  Gb  xdnorm.o [4]
__iar_Dscale            0x000040c5  0x106  Code  Gb  xdscale.o [4]
__iar_Memchr            0x00003e61         Code  Gb  memchr.o [5]
__iar_SB                0x00005ec8         Data  Gb  bwt_init3c.o [5]
__iar_Strchr            0x00003de9         Code  Gb  strchr.o [5]
__iar_copy_init3        0x00003dbb   0x2e  Code  Gb  copy_init3.o [5]
__iar_d2uiz             0x00004219         Code  Gb  DblToI32.o [4]
__iar_dadd              0x000047e5         Code  Gb  DblAdd.o [4]
__iar_data_init3        0x00005da9   0x2c  Code  Gb  data_init3.o [5]
__iar_dsub              0x0000427d         Code  Gb  DblSub.o [4]
__iar_dsubStart         0x0000428f         Code  Gb  DblSub.o [4]
__iar_program_start     0x00005e3d         Code  Gb  cstartup_M.o [5]
__iar_ui2d              0x00004251         Code  Gb  I32ToDbl.o [4]
__iar_zero_init3        0x00003dff   0x22  Code  Gb  zero_init3.o [5]
__vector_table          0x00003000         Data  Gb  startup_efm32tg.o [1]
__vector_table_0x1c     0x0000301c         Data  Gb  startup_efm32tg.o [1]
_call_main              0x00005e05         Code  Gb  cmain.o [5]
_exit                   0x00005e15         Code  Gb  cexit.o [5]
_main                   0x00005e0b         Code  Gb  cmain.o [5]
appPrintBuf             0x20000240   0x34  Data  Gb  com.o [1]
assertEFM               0x00004f1d    0x2  Code  Gb  em_assert.o [1]
cmuStatus               0x2000029c    0x2  Data  Lc  em_emu.o [1]
cur_edge                0x20000279    0x1  Data  Gb  decode.o [1]
cur_stamp               0x2000027c    0x4  Data  Gb  decode.o [1]
dec                     0x20000274    0x4  Data  Gb  decode.o [1]
dec_init                0x0000599b   0x60  Code  Gb  decode.o [1]
dec_parser              0x00005a23   0x46  Code  Lc  decode.o [1]
decode_machine          0x00005a69   0xca  Code  Gb  decode.o [1]
div                     0x000047d3    0xe  Code  Gb  div.o [3]
edge_occur              0x20000278    0x1  Data  Gb  decode.o [1]
enc                     0x20000288    0x8  Data  Lc  encode.o [1]
enc_init                0x000052cd   0x5a  Code  Gb  encode.o [1]
enc_odd                 0x20000290    0x1  Data  Lc  encode.o [1]
encode_machine          0x0000536d  0x104  Code  Gb  encode.o [1]
exit                    0x00005e0f    0x4  Code  Gb  exit.o [3]
findParam               0x00005327   0x46  Code  Gb  encode.o [1]
inv                     0x20000284    0x4  Data  Lc  decode.o [1]
main                    0x00005c6b   0x80  Code  Gb  main.o [1]
memchr                  0x00003e61         Code  Gb  memchr.o [5]
offset                  0x20000280    0x4  Data  Lc  decode.o [1]
rxBuf                   0x20000020  0x110  Data  Gb  com.o [1]
setupSWO                0x00005bc9   0x6e  Code  Gb  main.o [1]
strchr                  0x00003de9         Code  Gb  strchr.o [5]
strlen                  0x00003e21         Code  Gb  strlen.o [5]
ticker                  0x20000294    0x4  Data  Gb  encode.o [1]
txBuf                   0x20000130  0x110  Data  Gb  com.o [1]
uartGetAmount           0x0000586d    0x8  Code  Gb  com.o [1]
uartGetChar             0x0000580b   0x20  Code  Gb  com.o [1]
uartInit                0x20000000   0x18  Data  Lc  com.o [1]
uartPutChar             0x0000582b   0x42  Code  Gb  com.o [1]


[1] = D:\Firmware\my-project-hihack\trunk\ my-project-hihack --username kaiser.ren@gmail.com\energymicro\kits\EFM32TG_STK3300\examples\Senfone\iar\hijack_efm32tg210\Release\Obj
[2] = command line
[3] = dl7M_tln.a
[4] = m7M_tl.a
[5] = rt7M_tl.a

  11 940 bytes of readonly  code memory
      68 bytes of readonly  data memory
   1 694 bytes of readwrite data memory

Errors: none
Warnings: none
