###############################################################################
#                                                                             #
# IAR ELF Linker V6.30.6.53336/W32 for ARM              02/Jan/2013  13:16:44 #
# Copyright 2007-2012 IAR Systems AB.                                         #
#                                                                             #
#    Output file  =  D:\Firmware\my-project-hihack\trunk\ my-project-hihack   #
#                    --username kaiser.ren@gmail.com\energymicro\kits\EFM32TG #
#                    _STK3300\examples\an0054_efm32_phone_audio_jack_interfac #
#                    e\iar\hijack_efm32tg210\Release\Exe\hijack_efm32tg210.ou #
#                    t                                                        #
#    Map file     =  D:\Firmware\my-project-hihack\trunk\ my-project-hihack   #
#                    --username kaiser.ren@gmail.com\energymicro\kits\EFM32TG #
#                    _STK3300\examples\an0054_efm32_phone_audio_jack_interfac #
#                    e\iar\hijack_efm32tg210\Release\List\hijack_efm32tg210.m #
#                    ap                                                       #
#    Command line =  "D:\Firmware\my-project-hihack\trunk\ my-project-hihack  #
#                    --username kaiser.ren@gmail.com\energymicro\kits\EFM32TG #
#                    _STK3300\examples\an0054_efm32_phone_audio_jack_interfac #
#                    e\iar\hijack_efm32tg210\Release\Obj\em_assert.o"         #
#                    "D:\Firmware\my-project-hihack\trunk\ my-project-hihack  #
#                    --username kaiser.ren@gmail.com\energymicro\kits\EFM32TG #
#                    _STK3300\examples\an0054_efm32_phone_audio_jack_interfac #
#                    e\iar\hijack_efm32tg210\Release\Obj\em_cmu.o"            #
#                    "D:\Firmware\my-project-hihack\trunk\ my-project-hihack  #
#                    --username kaiser.ren@gmail.com\energymicro\kits\EFM32TG #
#                    _STK3300\examples\an0054_efm32_phone_audio_jack_interfac #
#                    e\iar\hijack_efm32tg210\Release\Obj\em_emu.o"            #
#                    "D:\Firmware\my-project-hihack\trunk\ my-project-hihack  #
#                    --username kaiser.ren@gmail.com\energymicro\kits\EFM32TG #
#                    _STK3300\examples\an0054_efm32_phone_audio_jack_interfac #
#                    e\iar\hijack_efm32tg210\Release\Obj\em_gpio.o"           #
#                    "D:\Firmware\my-project-hihack\trunk\ my-project-hihack  #
#                    --username kaiser.ren@gmail.com\energymicro\kits\EFM32TG #
#                    _STK3300\examples\an0054_efm32_phone_audio_jack_interfac #
#                    e\iar\hijack_efm32tg210\Release\Obj\em_int.o"            #
#                    "D:\Firmware\my-project-hihack\trunk\ my-project-hihack  #
#                    --username kaiser.ren@gmail.com\energymicro\kits\EFM32TG #
#                    _STK3300\examples\an0054_efm32_phone_audio_jack_interfac #
#                    e\iar\hijack_efm32tg210\Release\Obj\em_lcd.o"            #
#                    "D:\Firmware\my-project-hihack\trunk\ my-project-hihack  #
#                    --username kaiser.ren@gmail.com\energymicro\kits\EFM32TG #
#                    _STK3300\examples\an0054_efm32_phone_audio_jack_interfac #
#                    e\iar\hijack_efm32tg210\Release\Obj\em_system.o"         #
#                    "D:\Firmware\my-project-hihack\trunk\ my-project-hihack  #
#                    --username kaiser.ren@gmail.com\energymicro\kits\EFM32TG #
#                    _STK3300\examples\an0054_efm32_phone_audio_jack_interfac #
#                    e\iar\hijack_efm32tg210\Release\Obj\em_timer.o"          #
#                    "D:\Firmware\my-project-hihack\trunk\ my-project-hihack  #
#                    --username kaiser.ren@gmail.com\energymicro\kits\EFM32TG #
#                    _STK3300\examples\an0054_efm32_phone_audio_jack_interfac #
#                    e\iar\hijack_efm32tg210\Release\Obj\em_vcmp.o"           #
#                    "D:\Firmware\my-project-hihack\trunk\ my-project-hihack  #
#                    --username kaiser.ren@gmail.com\energymicro\kits\EFM32TG #
#                    _STK3300\examples\an0054_efm32_phone_audio_jack_interfac #
#                    e\iar\hijack_efm32tg210\Release\Obj\hijack.o"            #
#                    "D:\Firmware\my-project-hihack\trunk\ my-project-hihack  #
#                    --username kaiser.ren@gmail.com\energymicro\kits\EFM32TG #
#                    _STK3300\examples\an0054_efm32_phone_audio_jack_interfac #
#                    e\iar\hijack_efm32tg210\Release\Obj\main.o"              #
#                    "D:\Firmware\my-project-hihack\trunk\ my-project-hihack  #
#                    --username kaiser.ren@gmail.com\energymicro\kits\EFM32TG #
#                    _STK3300\examples\an0054_efm32_phone_audio_jack_interfac #
#                    e\iar\hijack_efm32tg210\Release\Obj\segmentlcd.o"        #
#                    "D:\Firmware\my-project-hihack\trunk\ my-project-hihack  #
#                    --username kaiser.ren@gmail.com\energymicro\kits\EFM32TG #
#                    _STK3300\examples\an0054_efm32_phone_audio_jack_interfac #
#                    e\iar\hijack_efm32tg210\Release\Obj\startup_efm32tg.o"   #
#                    "D:\Firmware\my-project-hihack\trunk\ my-project-hihack  #
#                    --username kaiser.ren@gmail.com\energymicro\kits\EFM32TG #
#                    _STK3300\examples\an0054_efm32_phone_audio_jack_interfac #
#                    e\iar\hijack_efm32tg210\Release\Obj\system_efm32tg.o"    #
#                    "D:\Firmware\my-project-hihack\trunk\ my-project-hihack  #
#                    --username kaiser.ren@gmail.com\energymicro\kits\EFM32TG #
#                    _STK3300\examples\an0054_efm32_phone_audio_jack_interfac #
#                    e\iar\hijack_efm32tg210\Release\Obj\vddcheck.o"          #
#                    --redirect _Printf=_PrintfFull --redirect                #
#                    _Scanf=_ScanfFull -o "D:\Firmware\my-project-hihack\trun #
#                    k\ my-project-hihack --username                          #
#                    kaiser.ren@gmail.com\energymicro\kits\EFM32TG_STK3300\ex #
#                    amples\an0054_efm32_phone_audio_jack_interface\iar\hijac #
#                    k_efm32tg210\Release\Exe\hijack_efm32tg210.out" --map    #
#                    "D:\Firmware\my-project-hihack\trunk\ my-project-hihack  #
#                    --username kaiser.ren@gmail.com\energymicro\kits\EFM32TG #
#                    _STK3300\examples\an0054_efm32_phone_audio_jack_interfac #
#                    e\iar\hijack_efm32tg210\Release\List\hijack_efm32tg210.m #
#                    ap" --config "D:\Program Files\IAR Systems\Embedded      #
#                    Workbench 6.0_3\arm\config\linker\EnergyMicro\EFM32TG210 #
#                    F32.icf" --entry __iar_program_start --inline --vfe      #
#                                                                             #
#                                                                             #
###############################################################################

*******************************************************************************
*** RUNTIME MODEL ATTRIBUTES
***

CppFlavor       = *
__SystemLibrary = DLib


*******************************************************************************
*** PLACEMENT SUMMARY
***

"A1":  place at 0x00000000 { ro section .intvec };
"P1":  place in [from 0x00000000 to 0x00007fff] { ro };
"P2":  place in [from 0x20000000 to 0x20000fff] { rw, block CSTACK, block HEAP };

  Section            Kind        Address    Size  Object
  -------            ----        -------    ----  ------
"A1":                                       0x9c
  .intvec            ro code  0x00000000    0x9c  startup_efm32tg.o [1]
                            - 0x0000009c    0x9c

"P1":                                     0x1804
  .text              ro code  0x0000009c   0x5d4  em_cmu.o [1]
  .text              ro code  0x00000670     0x2  em_assert.o [1]
  .text              ro code  0x00000672    0x2e  copy_init3.o [5]
  .text              ro code  0x000006a0    0x14  em_emu.o [1]
  .text              ro code  0x000006b4    0xdc  system_efm32tg.o [1]
  .text              ro code  0x00000790   0x558  segmentlcd.o [1]
  .text              ro code  0x00000ce8   0x240  em_lcd.o [1]
  .text              ro code  0x00000f28    0x36  strlen.o [5]
  .text              ro code  0x00000f5e    0x22  zero_init3.o [5]
  .text              ro code  0x00000f80   0x310  hijack.o [1]
  .text              ro code  0x00001290   0x1dc  em_timer.o [1]
  .text              ro code  0x0000146c   0x170  em_gpio.o [1]
  .text              ro code  0x000015dc   0x190  main.o [1]
  .text              ro code  0x0000176c    0x2c  data_init3.o [5]
  .iar.init_table    const    0x00001798    0x24  - Linker created -
  .text              ro code  0x000017bc    0x16  cmain.o [5]
  .text              ro code  0x000017d2     0x4  exit.o [3]
  .text              ro code  0x000017d8     0xa  cexit.o [5]
  .text              ro code  0x000017e4     0xc  XXexit.o [5]
  .text              ro code  0x000017f0    0x10  startup_efm32tg.o [1]
  .text              ro code  0x00001800     0xc  cstartup_M.o [5]
  .text              ro code  0x0000180c     0x4  startup_efm32tg.o [1]
  .text              ro code  0x00001810     0x4  startup_efm32tg.o [1]
  .text              ro code  0x00001814     0x4  startup_efm32tg.o [1]
  .text              ro code  0x00001818     0x4  startup_efm32tg.o [1]
  .text              ro code  0x0000181c     0x4  startup_efm32tg.o [1]
  .text              ro code  0x00001820     0x4  startup_efm32tg.o [1]
  .text              ro code  0x00001824     0x4  startup_efm32tg.o [1]
  .text              ro code  0x00001828     0x4  startup_efm32tg.o [1]
  .text              ro code  0x0000182c     0x4  startup_efm32tg.o [1]
  .text              ro code  0x00001830     0x4  startup_efm32tg.o [1]
  .text              ro code  0x00001834     0x4  startup_efm32tg.o [1]
  .text              ro code  0x00001838     0x4  startup_efm32tg.o [1]
  .text              ro code  0x0000183c     0x4  startup_efm32tg.o [1]
  .text              ro code  0x00001840     0x4  startup_efm32tg.o [1]
  .text              ro code  0x00001844     0x4  startup_efm32tg.o [1]
  .text              ro code  0x00001848     0x4  startup_efm32tg.o [1]
  .text              ro code  0x0000184c     0x4  startup_efm32tg.o [1]
  .text              ro code  0x00001850     0x4  startup_efm32tg.o [1]
  .text              ro code  0x00001854     0x4  startup_efm32tg.o [1]
  .text              ro code  0x00001858     0x4  startup_efm32tg.o [1]
  .text              ro code  0x0000185c     0x4  startup_efm32tg.o [1]
  .text              ro code  0x00001860     0x4  startup_efm32tg.o [1]
  .text              ro code  0x00001864     0x4  startup_efm32tg.o [1]
  .text              ro code  0x00001868     0x4  startup_efm32tg.o [1]
  .text              ro code  0x0000186c     0x4  startup_efm32tg.o [1]
  .text              ro code  0x00001870     0x4  startup_efm32tg.o [1]
  .text              ro code  0x00001874     0x4  startup_efm32tg.o [1]
  .text              ro code  0x00001878     0x4  startup_efm32tg.o [1]
  .text              ro code  0x0000187c     0x4  startup_efm32tg.o [1]
  .text              ro code  0x00001880     0x4  startup_efm32tg.o [1]
  .text              ro code  0x00001884     0x4  startup_efm32tg.o [1]
  .text              ro code  0x00001888     0x4  startup_efm32tg.o [1]
  .rodata            const    0x0000188c     0x0  bwt_init3c.o [5]
  Initializer bytes  ro data  0x0000188c    0x14  <for P2 s0>
                            - 0x000018a0  0x1804

"P2", part 1 of 3:                          0x14
  P2 s0                       0x20000000    0x14  <Init block>
    .data            inited   0x20000000     0xc  hijack.o [1]
    .data            inited   0x2000000c     0x8  system_efm32tg.o [1]
                            - 0x20000014    0x14

"P2", part 2 of 3:                          0x1c
  .bss               zero     0x20000014    0x10  hijack.o [1]
  .bss               zero     0x20000024     0x4  em_int.o [1]
  .bss               zero     0x20000028     0x4  system_efm32tg.o [1]
  .bss               zero     0x2000002c     0x2  em_emu.o [1]
                            - 0x2000002e    0x1a

"P2", part 3 of 3:                         0x400
  CSTACK                      0x20000030   0x400  <Block>
    CSTACK           uninit   0x20000030   0x400  <Block tail>
                            - 0x20000430   0x400


*******************************************************************************
*** INIT TABLE
***

          Address     Size
          -------     ----
Zero (__iar_zero_init3)
    1 destination range, total size 0x1a:
          0x20000014  0x1a

Copy (__iar_copy_init3)
    1 source range, total size 0x14:
          0x0000188c  0x14
    1 destination range, total size 0x14:
          0x20000000  0x14



*******************************************************************************
*** MODULE SUMMARY
***

    Module             ro code  ro data  rw data
    ------             -------  -------  -------
D:\Firmware\my-project-hihack\trunk\ my-project-hihack --username kaiser.ren@gmail.com\energymicro\kits\EFM32TG_STK3300\examples\an0054_efm32_phone_audio_jack_interface\iar\hijack_efm32tg210\Release\Obj: [1]
    em_assert.o              2
    em_cmu.o             1 492
    em_emu.o                20                 2
    em_gpio.o              368
    em_int.o                                   4
    em_lcd.o               576
    em_timer.o             476
    hijack.o               784       12       28
    main.o                 400
    segmentlcd.o         1 368
    startup_efm32tg.o      300
    system_efm32tg.o       220        8       12
    --------------------------------------------
    Total:               6 006       20       46

command line: [2]
    --------------------------------------------
    Total:

dl7M_tln.a: [3]
    exit.o                   4
    --------------------------------------------
    Total:                   4

m7M_tl.a: [4]
    --------------------------------------------
    Total:

rt7M_tl.a: [5]
    XXexit.o                12
    bwt_init3c.o
    cexit.o                 10
    cmain.o                 22
    copy_init3.o            46
    cstartup_M.o            12
    data_init3.o            44
    strlen.o                54
    zero_init3.o            34
    --------------------------------------------
    Total:                 234

    Gaps                     4
    Linker created                   36    1 024
------------------------------------------------
    Grand Total:         6 248       56    1 070


*******************************************************************************
*** ENTRY LIST
***

Entry                      Address   Size  Type      Object
-----                      -------   ----  ----      ------
?main                   0x000017bd         Code  Gb  cmain.o [5]
ACMP0_IRQHandler        0x00001845         Code  Wk  startup_efm32tg.o [1]
ADC0_IRQHandler         0x00001849         Code  Wk  startup_efm32tg.o [1]
AES_IRQHandler          0x00001889         Code  Wk  startup_efm32tg.o [1]
BusFault_Handler        0x00001819         Code  Wk  startup_efm32tg.o [1]
CMU_ClockDivSet         0x0000011b  0x246  Code  Gb  em_cmu.o [1]
CMU_ClockEnable         0x00000361   0x82  Code  Gb  em_cmu.o [1]
CMU_ClockSelectSet      0x000003ed  0x12e  Code  Gb  em_cmu.o [1]
CMU_FlashWaitStateControl
                        0x000000c7   0x54  Code  Lc  em_cmu.o [1]
CMU_FlashWaitStateMax   0x0000009d   0x2a  Code  Lc  em_cmu.o [1]
CMU_IRQHandler          0x00001879         Code  Wk  startup_efm32tg.o [1]
CMU_LCDClkFDIVSet       0x00000533   0x26  Code  Gb  em_cmu.o [1]
CMU_OscillatorEnable    0x00000559   0x54  Code  Gb  em_cmu.o [1]
CSTACK$$Base            0x20000030          --   Gb  - Linker created -
CSTACK$$Limit           0x20000430          --   Gb  - Linker created -
DAC0_IRQHandler         0x0000184d         Code  Wk  startup_efm32tg.o [1]
DMA_IRQHandler          0x00001831         Code  Wk  startup_efm32tg.o [1]
DebugMon_Handler        0x00001825         Code  Wk  startup_efm32tg.o [1]
Delay                   0x000016bd   0x16  Code  Gb  main.o [1]
EFM_Alphabet            0x00000bf8   0xb8  Data  Lc  segmentlcd.o [1]
EFM_Display             0x00000ad8  0x120  Data  Lc  segmentlcd.o [1]
EFM_Numbers             0x00000cb0   0x24  Data  Lc  segmentlcd.o [1]
EMU_UpdateOscConfig     0x000006a1    0xa  Code  Gb  em_emu.o [1]
GPIO_EVEN_IRQHandler    0x00001659    0xe  Code  Gb  main.o [1]
GPIO_IntConfig          0x0000146d   0x6c  Code  Gb  em_gpio.o [1]
GPIO_ODD_IRQHandler     0x0000164b    0xe  Code  Gb  main.o [1]
GPIO_PinModeSet         0x000014ed   0x76  Code  Gb  em_gpio.o [1]
HIJACK_ByteTx           0x0000101b   0x34  Code  Gb  hijack.o [1]
HIJACK_CaptureConfig    0x00001103   0x28  Code  Lc  hijack.o [1]
HIJACK_CompareConfig    0x0000112b   0x2e  Code  Lc  hijack.o [1]
HIJACK_Init             0x00000f81   0x9a  Code  Gb  hijack.o [1]
HIJACK_ManchesterDecoder
                        0x0000104f   0xb4  Code  Lc  hijack.o [1]
HardFault_Handler       0x00001811         Code  Wk  startup_efm32tg.o [1]
I2C0_IRQHandler         0x00001851         Code  Wk  startup_efm32tg.o [1]
INT_LockCnt             0x20000024    0x4  Data  Gb  em_int.o [1]
LCD_IRQHandler          0x00001881         Code  Wk  startup_efm32tg.o [1]
LCD_Init                0x00000ce9   0x44  Code  Gb  em_lcd.o [1]
LCD_SegmentRangeEnable  0x00000d43   0x12  Code  Gb  em_lcd.o [1]
LCD_SegmentSet          0x00000d59   0x80  Code  Gb  em_lcd.o [1]
LCD_SegmentSetLow       0x00000de1   0x7c  Code  Gb  em_lcd.o [1]
LCD_VBoostSet           0x00000e69    0x8  Code  Gb  em_lcd.o [1]
LCD_VLCDSelect          0x00000d2d   0x16  Code  Gb  em_lcd.o [1]
LESENSE_IRQHandler      0x00001865         Code  Wk  startup_efm32tg.o [1]
LETIMER0_IRQHandler     0x0000186d         Code  Wk  startup_efm32tg.o [1]
LEUART0_IRQHandler      0x00001869         Code  Wk  startup_efm32tg.o [1]
MSC_IRQHandler          0x00001885         Code  Wk  startup_efm32tg.o [1]
MemManage_Handler       0x00001815         Code  Wk  startup_efm32tg.o [1]
NMI_Handler             0x0000180d         Code  Wk  startup_efm32tg.o [1]
PCNT0_IRQHandler        0x00001871         Code  Wk  startup_efm32tg.o [1]
PendSV_Handler          0x00001829         Code  Wk  startup_efm32tg.o [1]
RTC_IRQHandler          0x00001875         Code  Wk  startup_efm32tg.o [1]
Region$$Table$$Base     0x00001798          --   Gb  - Linker created -
Region$$Table$$Limit    0x000017bc          --   Gb  - Linker created -
Reset_Handler           0x000017f1         Code  Wk  startup_efm32tg.o [1]
SVC_Handler             0x00001821         Code  Wk  startup_efm32tg.o [1]
SegmentLCD_AllOff       0x00000971   0x5c  Code  Gb  segmentlcd.o [1]
SegmentLCD_AlphaNumberOff
                        0x0000089b   0x5e  Code  Gb  segmentlcd.o [1]
SegmentLCD_Init         0x00000a4f   0x6a  Code  Gb  segmentlcd.o [1]
SegmentLCD_Number       0x00000791   0xac  Code  Gb  segmentlcd.o [1]
SegmentLCD_NumberOff    0x0000083d   0x5e  Code  Gb  segmentlcd.o [1]
SegmentLCD_Symbol       0x000009dd   0x72  Code  Gb  segmentlcd.o [1]
SegmentLCD_Write        0x000008f9   0x78  Code  Gb  segmentlcd.o [1]
SysTick_Handler         0x0000182d         Code  Wk  startup_efm32tg.o [1]
SystemCoreClock         0x20000028    0x4  Data  Gb  system_efm32tg.o [1]
SystemCoreClockGet      0x000006b5   0x16  Code  Gb  system_efm32tg.o [1]
SystemHFClockGet        0x000006cb   0x7e  Code  Gb  system_efm32tg.o [1]
SystemHFXOClock         0x2000000c    0x4  Data  Lc  system_efm32tg.o [1]
SystemInit              0x0000074f    0x2  Code  Gb  system_efm32tg.o [1]
SystemLFXOClock         0x20000010    0x4  Data  Lc  system_efm32tg.o [1]
TIMER0_IRQHandler       0x00001161   0x12  Code  Gb  hijack.o [1]
TIMER1_IRQHandler       0x00001173   0xac  Code  Gb  hijack.o [1]
TIMER_Enable            0x00001291   0x28  Code  Gb  em_timer.o [1]
TIMER_Init              0x000012b9   0xa8  Code  Gb  em_timer.o [1]
TIMER_InitCC            0x00001361   0x8a  Code  Gb  em_timer.o [1]
USART0_RX_IRQHandler    0x0000183d         Code  Wk  startup_efm32tg.o [1]
USART0_TX_IRQHandler    0x00001841         Code  Wk  startup_efm32tg.o [1]
USART1_RX_IRQHandler    0x0000185d         Code  Wk  startup_efm32tg.o [1]
USART1_TX_IRQHandler    0x00001861         Code  Wk  startup_efm32tg.o [1]
UsageFault_Handler      0x0000181d         Code  Wk  startup_efm32tg.o [1]
VCMP_IRQHandler         0x0000187d         Code  Wk  startup_efm32tg.o [1]
__Vectors               0x00000000          --   Gb  startup_efm32tg.o [1]
__Vectors_End           0x0000009c         Data  Gb  startup_efm32tg.o [1]
__Vectors_Size {Abs}    0x0000009c          --   Gb  startup_efm32tg.o [1]
__cmain                 0x000017bd         Code  Gb  cmain.o [5]
__exit                  0x000017e5         Code  Gb  XXexit.o [5]
__iar_SB                0x0000188c         Data  Gb  bwt_init3c.o [5]
__iar_copy_init3        0x00000673   0x2e  Code  Gb  copy_init3.o [5]
__iar_data_init3        0x0000176d   0x2c  Code  Gb  data_init3.o [5]
__iar_program_start     0x00001801         Code  Gb  cstartup_M.o [5]
__iar_zero_init3        0x00000f5f   0x22  Code  Gb  zero_init3.o [5]
__vector_table          0x00000000         Data  Gb  startup_efm32tg.o [1]
__vector_table_0x1c     0x0000001c         Data  Gb  startup_efm32tg.o [1]
_call_main              0x000017c9         Code  Gb  cmain.o [5]
_exit                   0x000017d9         Code  Gb  cexit.o [5]
_main                   0x000017cf         Code  Gb  cmain.o [5]
assertEFM               0x00000671    0x2  Code  Gb  em_assert.o [1]
cmuStatus               0x2000002c    0x2  Data  Lc  em_emu.o [1]
exit                    0x000017d3    0x4  Code  Gb  exit.o [3]
gpioSetup               0x00001667   0x56  Code  Gb  main.o [1]
lcdInit                 0x00000cd4   0x14  Data  Lc  segmentlcd.o [1]
main                    0x000016d3   0x50  Code  Gb  main.o [1]
ones                    0x20000018    0x4  Data  Lc  hijack.o [1]
pTxDoneFunc             0x20000008    0x4  Data  Lc  hijack.o [1]
sendingByteTx           0x20000002    0x1  Data  Lc  hijack.o [1]
setupSWO                0x000015dd   0x6e  Code  Gb  main.o [1]
state                   0x20000014    0x1  Data  Lc  hijack.o [1]
strlen                  0x00000f29         Code  Gb  strlen.o [5]
txBit                   0x20000001    0x1  Data  Lc  hijack.o [1]
txState                 0x20000000    0x1  Data  Lc  hijack.o [1]


[1] = D:\Firmware\my-project-hihack\trunk\ my-project-hihack --username kaiser.ren@gmail.com\energymicro\kits\EFM32TG_STK3300\examples\an0054_efm32_phone_audio_jack_interface\iar\hijack_efm32tg210\Release\Obj
[2] = command line
[3] = dl7M_tln.a
[4] = m7M_tl.a
[5] = rt7M_tl.a

  6 248 bytes of readonly  code memory
     56 bytes of readonly  data memory
  1 070 bytes of readwrite data memory

Errors: none
Warnings: none
