###############################################################################
#                                                                             #
# IAR ELF Linker V6.30.6.53336/W32 for ARM              27/Jun/2013  10:55:21 #
# Copyright 2007-2012 IAR Systems AB.                                         #
#                                                                             #
#    Output file  =  D:\Firmware\my-project-hihack\trunk\ my-project-hihack   #
#                    --username kaiser.ren@gmail.com\energymicro\kits\EFM32TG #
#                    _STK3300\examples\an0045_efm32_uart_rs-232\iar\uart_rs-2 #
#                    32\Release\Exe\uart_rs-232.out                           #
#    Map file     =  D:\Firmware\my-project-hihack\trunk\ my-project-hihack   #
#                    --username kaiser.ren@gmail.com\energymicro\kits\EFM32TG #
#                    _STK3300\examples\an0045_efm32_uart_rs-232\iar\uart_rs-2 #
#                    32\Release\List\uart_rs-232.map                          #
#    Command line =  "D:\Firmware\my-project-hihack\trunk\ my-project-hihack  #
#                    --username kaiser.ren@gmail.com\energymicro\kits\EFM32TG #
#                    _STK3300\examples\an0045_efm32_uart_rs-232\iar\uart_rs-2 #
#                    32\Release\Obj\bsp_stk.o" "D:\Firmware\my-project-hihack #
#                    \trunk\ my-project-hihack --username                     #
#                    kaiser.ren@gmail.com\energymicro\kits\EFM32TG_STK3300\ex #
#                    amples\an0045_efm32_uart_rs-232\iar\uart_rs-232\Release\ #
#                    Obj\bsp_stk_leds.o" "D:\Firmware\my-project-hihack\trunk #
#                    \ my-project-hihack --username                           #
#                    kaiser.ren@gmail.com\energymicro\kits\EFM32TG_STK3300\ex #
#                    amples\an0045_efm32_uart_rs-232\iar\uart_rs-232\Release\ #
#                    Obj\bsp_trace.o" "D:\Firmware\my-project-hihack\trunk\   #
#                    my-project-hihack --username                             #
#                    kaiser.ren@gmail.com\energymicro\kits\EFM32TG_STK3300\ex #
#                    amples\an0045_efm32_uart_rs-232\iar\uart_rs-232\Release\ #
#                    Obj\em_cmu.o" "D:\Firmware\my-project-hihack\trunk\      #
#                    my-project-hihack --username                             #
#                    kaiser.ren@gmail.com\energymicro\kits\EFM32TG_STK3300\ex #
#                    amples\an0045_efm32_uart_rs-232\iar\uart_rs-232\Release\ #
#                    Obj\em_ebi.o" "D:\Firmware\my-project-hihack\trunk\      #
#                    my-project-hihack --username                             #
#                    kaiser.ren@gmail.com\energymicro\kits\EFM32TG_STK3300\ex #
#                    amples\an0045_efm32_uart_rs-232\iar\uart_rs-232\Release\ #
#                    Obj\em_emu.o" "D:\Firmware\my-project-hihack\trunk\      #
#                    my-project-hihack --username                             #
#                    kaiser.ren@gmail.com\energymicro\kits\EFM32TG_STK3300\ex #
#                    amples\an0045_efm32_uart_rs-232\iar\uart_rs-232\Release\ #
#                    Obj\em_gpio.o" "D:\Firmware\my-project-hihack\trunk\     #
#                    my-project-hihack --username                             #
#                    kaiser.ren@gmail.com\energymicro\kits\EFM32TG_STK3300\ex #
#                    amples\an0045_efm32_uart_rs-232\iar\uart_rs-232\Release\ #
#                    Obj\em_system.o" "D:\Firmware\my-project-hihack\trunk\   #
#                    my-project-hihack --username                             #
#                    kaiser.ren@gmail.com\energymicro\kits\EFM32TG_STK3300\ex #
#                    amples\an0045_efm32_uart_rs-232\iar\uart_rs-232\Release\ #
#                    Obj\em_usart.o" "D:\Firmware\my-project-hihack\trunk\    #
#                    my-project-hihack --username                             #
#                    kaiser.ren@gmail.com\energymicro\kits\EFM32TG_STK3300\ex #
#                    amples\an0045_efm32_uart_rs-232\iar\uart_rs-232\Release\ #
#                    Obj\main.o" "D:\Firmware\my-project-hihack\trunk\        #
#                    my-project-hihack --username                             #
#                    kaiser.ren@gmail.com\energymicro\kits\EFM32TG_STK3300\ex #
#                    amples\an0045_efm32_uart_rs-232\iar\uart_rs-232\Release\ #
#                    Obj\startup_efm32tg.o" "D:\Firmware\my-project-hihack\tr #
#                    unk\ my-project-hihack --username                        #
#                    kaiser.ren@gmail.com\energymicro\kits\EFM32TG_STK3300\ex #
#                    amples\an0045_efm32_uart_rs-232\iar\uart_rs-232\Release\ #
#                    Obj\system_efm32tg.o" --redirect _Printf=_PrintfFull     #
#                    --redirect _Scanf=_ScanfFull -o                          #
#                    "D:\Firmware\my-project-hihack\trunk\ my-project-hihack  #
#                    --username kaiser.ren@gmail.com\energymicro\kits\EFM32TG #
#                    _STK3300\examples\an0045_efm32_uart_rs-232\iar\uart_rs-2 #
#                    32\Release\Exe\uart_rs-232.out" --map                    #
#                    "D:\Firmware\my-project-hihack\trunk\ my-project-hihack  #
#                    --username kaiser.ren@gmail.com\energymicro\kits\EFM32TG #
#                    _STK3300\examples\an0045_efm32_uart_rs-232\iar\uart_rs-2 #
#                    32\Release\List\uart_rs-232.map" --config                #
#                    "D:\Firmware\my-project-hihack\trunk\ my-project-hihack  #
#                    --username kaiser.ren@gmail.com\energymicro\kits\EFM32TG #
#                    _STK3300\examples\an0045_efm32_uart_rs-232\iar\..\EFM32T #
#                    G840F32.icf" --entry __iar_program_start --inline --vfe  #
#                                                                             #
#                                                                             #
###############################################################################

*******************************************************************************
*** RUNTIME MODEL ATTRIBUTES
***

CppFlavor       = *
__SystemLibrary = DLib


*******************************************************************************
*** PLACEMENT SUMMARY
***

"A1":  place at 0x00003000 { ro section .intvec };
"P1":  place in [from 0x00003000 to 0x00007fff] { ro };
"P2":  place in [from 0x20000000 to 0x20000fff] { rw, block CSTACK, block HEAP };

  Section            Kind        Address   Size  Object
  -------            ----        -------   ----  ------
"A1":                                      0x9c
  .intvec            ro code  0x00003000   0x9c  startup_efm32tg.o [1]
                            - 0x0000309c   0x9c

"P1":                                     0x878
  .text              ro code  0x0000309c  0x2c8  em_cmu.o [1]
  .text              ro code  0x00003364   0xe4  system_efm32tg.o [1]
  .text              ro code  0x00003448  0x12c  main.o [1]
  .text              ro code  0x00003574   0x58  em_gpio.o [1]
  .text              ro code  0x000035cc  0x122  em_usart.o [1]
  .text              ro code  0x000036ee   0x2e  copy_init3.o [4]
  .text              ro code  0x0000371c   0x2c  data_init3.o [4]
  .text              ro code  0x00003748   0x22  zero_init3.o [4]
  .iar.init_table    const    0x0000376c   0x24  - Linker created -
  Veneer             ro code  0x00003790    0x8  - Linker created -
  .text              ro code  0x00003798   0x16  cmain.o [4]
  .text              ro code  0x000037ae    0x4  exit.o [3]
  .text              ro code  0x000037b4    0xa  cexit.o [4]
  .text              ro code  0x000037c0    0xc  XXexit.o [4]
  .text              ro code  0x000037cc   0x10  startup_efm32tg.o [1]
  .text              ro code  0x000037dc    0xc  cstartup_M.o [4]
  .text              ro code  0x000037e8    0x4  startup_efm32tg.o [1]
  .text              ro code  0x000037ec    0x4  startup_efm32tg.o [1]
  .text              ro code  0x000037f0    0x4  startup_efm32tg.o [1]
  .text              ro code  0x000037f4    0x4  startup_efm32tg.o [1]
  .text              ro code  0x000037f8    0x4  startup_efm32tg.o [1]
  .text              ro code  0x000037fc    0x4  startup_efm32tg.o [1]
  .text              ro code  0x00003800    0x4  startup_efm32tg.o [1]
  .text              ro code  0x00003804    0x4  startup_efm32tg.o [1]
  .text              ro code  0x00003808    0x4  startup_efm32tg.o [1]
  .text              ro code  0x0000380c    0x4  startup_efm32tg.o [1]
  .text              ro code  0x00003810    0x4  startup_efm32tg.o [1]
  .text              ro code  0x00003814    0x4  startup_efm32tg.o [1]
  .text              ro code  0x00003818    0x4  startup_efm32tg.o [1]
  .text              ro code  0x0000381c    0x4  startup_efm32tg.o [1]
  .text              ro code  0x00003820    0x4  startup_efm32tg.o [1]
  .text              ro code  0x00003824    0x4  startup_efm32tg.o [1]
  .text              ro code  0x00003828    0x4  startup_efm32tg.o [1]
  .text              ro code  0x0000382c    0x4  startup_efm32tg.o [1]
  .text              ro code  0x00003830    0x4  startup_efm32tg.o [1]
  .text              ro code  0x00003834    0x4  startup_efm32tg.o [1]
  .text              ro code  0x00003838    0x4  startup_efm32tg.o [1]
  .text              ro code  0x0000383c    0x4  startup_efm32tg.o [1]
  .text              ro code  0x00003840    0x4  startup_efm32tg.o [1]
  .text              ro code  0x00003844    0x4  startup_efm32tg.o [1]
  .text              ro code  0x00003848    0x4  startup_efm32tg.o [1]
  .text              ro code  0x0000384c    0x4  startup_efm32tg.o [1]
  .text              ro code  0x00003850    0x4  startup_efm32tg.o [1]
  .text              ro code  0x00003854    0x4  startup_efm32tg.o [1]
  .text              ro code  0x00003858    0x4  startup_efm32tg.o [1]
  .text              ro code  0x0000385c    0x4  startup_efm32tg.o [1]
  .text              ro code  0x00003860    0x4  startup_efm32tg.o [1]
  .text              ro code  0x00003864    0x4  startup_efm32tg.o [1]
  .rodata            const    0x00003868    0x0  bwt_init3c.o [4]
  Initializer bytes  ro data  0x00003868   0xac  <for P2 s0>
                            - 0x00003914  0x878

"P2", part 1 of 3:                         0xac
  P2 s0                       0x20000000   0xac  <Init block>
    Veneer           inited   0x20000000    0x8  - Linker created -
    Veneer           inited   0x20000008    0x8  - Linker created -
    .textrw          inited   0x20000010   0x7c  main.o [1]
    .data            inited   0x2000008c   0x18  main.o [1]
    .data            inited   0x200000a4    0x8  system_efm32tg.o [1]
                            - 0x200000ac   0xac

"P2", part 2 of 3:                        0x224
  .bss               zero     0x200000ac  0x110  main.o [1]
  .bss               zero     0x200001bc  0x110  main.o [1]
  .bss               zero     0x200002cc    0x4  system_efm32tg.o [1]
                            - 0x200002d0  0x224

"P2", part 3 of 3:                        0x400
  CSTACK                      0x200002d0  0x400  <Block>
    CSTACK           uninit   0x200002d0  0x400  <Block tail>
                            - 0x200006d0  0x400


*******************************************************************************
*** INIT TABLE
***

          Address     Size
          -------     ----
Zero (__iar_zero_init3)
    1 destination range, total size 0x224:
          0x200000ac  0x224

Copy (__iar_copy_init3)
    1 source range, total size 0xac:
          0x00003868   0xac
    1 destination range, total size 0xac:
          0x20000000   0xac



*******************************************************************************
*** MODULE SUMMARY
***

    Module             ro code  rw code  ro data  rw data
    ------             -------  -------  -------  -------
D:\Firmware\my-project-hihack\trunk\ my-project-hihack --username kaiser.ren@gmail.com\energymicro\kits\EFM32TG_STK3300\examples\an0045_efm32_uart_rs-232\iar\uart_rs-232\Release\Obj: [1]
    em_cmu.o               712
    em_gpio.o               88
    em_usart.o             290
    main.o                 300      124      148      568
    startup_efm32tg.o      300
    system_efm32tg.o       228                 8       12
    -----------------------------------------------------
    Total:               1 918      124      156      580

command line: [2]
    -----------------------------------------------------
    Total:

dl7M_tln.a: [3]
    exit.o                   4
    -----------------------------------------------------
    Total:                   4

rt7M_tl.a: [4]
    XXexit.o                12
    bwt_init3c.o
    cexit.o                 10
    cmain.o                 22
    copy_init3.o            46
    cstartup_M.o            12
    data_init3.o            44
    zero_init3.o            34
    -----------------------------------------------------
    Total:                 180

    Gaps                     4                 2
    Linker created           8       16       52    1 024
---------------------------------------------------------
    Grand Total:         2 114      140      210    1 604


*******************************************************************************
*** ENTRY LIST
***

Entry                      Address   Size  Type      Object
-----                      -------   ----  ----      ------
?main                   0x00003799         Code  Gb  cmain.o [4]
ACMP0_IRQHandler        0x00003821         Code  Wk  startup_efm32tg.o [1]
ADC0_IRQHandler         0x00003825         Code  Wk  startup_efm32tg.o [1]
AES_IRQHandler          0x00003865         Code  Wk  startup_efm32tg.o [1]
BusFault_Handler        0x000037f5         Code  Wk  startup_efm32tg.o [1]
CMU_AUXClkGet           0x0000309d   0x54  Code  Lc  em_cmu.o [1]
CMU_ClockEnable         0x00003141   0x66  Code  Gb  em_cmu.o [1]
CMU_ClockFreqGet        0x000031a7   0xf2  Code  Gb  em_cmu.o [1]
CMU_ClockSelectGet      0x0000329d   0x9c  Code  Gb  em_cmu.o [1]
CMU_IRQHandler          0x00003855         Code  Wk  startup_efm32tg.o [1]
CMU_LFClkGet            0x000030f1   0x4e  Code  Lc  em_cmu.o [1]
CSTACK$$Base            0x200002d0          --   Gb  - Linker created -
CSTACK$$Limit           0x200006d0          --   Gb  - Linker created -
DAC0_IRQHandler         0x00003829         Code  Wk  startup_efm32tg.o [1]
DMA_IRQHandler          0x0000380d         Code  Wk  startup_efm32tg.o [1]
DebugMon_Handler        0x00003801         Code  Wk  startup_efm32tg.o [1]
GPIO_EVEN_IRQHandler    0x00003811         Code  Wk  startup_efm32tg.o [1]
GPIO_ODD_IRQHandler     0x00003831         Code  Wk  startup_efm32tg.o [1]
GPIO_PinModeSet         0x00003575   0x52  Code  Gb  em_gpio.o [1]
HardFault_Handler       0x000037ed         Code  Wk  startup_efm32tg.o [1]
I2C0_IRQHandler         0x0000382d         Code  Wk  startup_efm32tg.o [1]
LCD_IRQHandler          0x0000385d         Code  Wk  startup_efm32tg.o [1]
LESENSE_IRQHandler      0x00003841         Code  Wk  startup_efm32tg.o [1]
LETIMER0_IRQHandler     0x00003849         Code  Wk  startup_efm32tg.o [1]
LEUART0_IRQHandler      0x00003845         Code  Wk  startup_efm32tg.o [1]
MSC_IRQHandler          0x00003861         Code  Wk  startup_efm32tg.o [1]
MemManage_Handler       0x000037f1         Code  Wk  startup_efm32tg.o [1]
NMI_Handler             0x000037e9         Code  Wk  startup_efm32tg.o [1]
PCNT0_IRQHandler        0x0000384d         Code  Wk  startup_efm32tg.o [1]
PendSV_Handler          0x00003805         Code  Wk  startup_efm32tg.o [1]
RTC_IRQHandler          0x00003851         Code  Wk  startup_efm32tg.o [1]
Region$$Table$$Base     0x0000376c          --   Gb  - Linker created -
Region$$Table$$Limit    0x00003790          --   Gb  - Linker created -
Reset_Handler           0x000037cd         Code  Wk  startup_efm32tg.o [1]
SVC_Handler             0x000037fd         Code  Wk  startup_efm32tg.o [1]
SysTick_Handler         0x00003809         Code  Wk  startup_efm32tg.o [1]
SystemCoreClock         0x200002cc    0x4  Data  Gb  system_efm32tg.o [1]
SystemCoreClockGet      0x00003365   0x16  Code  Gb  system_efm32tg.o [1]
SystemHFClockGet        0x0000337b   0x82  Code  Gb  system_efm32tg.o [1]
SystemHFXOClock         0x200000a4    0x4  Data  Lc  system_efm32tg.o [1]
SystemInit              0x000033fd    0x2  Code  Gb  system_efm32tg.o [1]
SystemLFRCOClockGet     0x000033ff    0x2  Code  Gb  system_efm32tg.o [1]
SystemLFXOClock         0x200000a8    0x4  Data  Lc  system_efm32tg.o [1]
SystemLFXOClockGet      0x0000340d    0x6  Code  Gb  system_efm32tg.o [1]
SystemULFRCOClockGet    0x00003407    0x6  Code  Gb  system_efm32tg.o [1]
TIMER0_IRQHandler       0x00003815         Code  Wk  startup_efm32tg.o [1]
TIMER1_IRQHandler       0x00003835         Code  Wk  startup_efm32tg.o [1]
USART0_RX_IRQHandler    0x000034cf   0x40  Code  Gb  main.o [1]
USART0_TX_IRQHandler    0x0000350f   0x42  Code  Gb  main.o [1]
USART1_RX_IRQHandler    0x00003839         Code  Wk  startup_efm32tg.o [1]
USART1_TX_IRQHandler    0x0000383d         Code  Wk  startup_efm32tg.o [1]
USART_BaudrateAsyncSet  0x000035cd   0x56  Code  Gb  em_usart.o [1]
USART_Enable            0x00003629    0xe  Code  Gb  em_usart.o [1]
USART_InitAsync         0x00003637   0x40  Code  Gb  em_usart.o [1]
USART_Reset             0x0000367d   0x40  Code  Gb  em_usart.o [1]
USART_Rx                0x000036d9    0xc  Code  Gb  em_usart.o [1]
USART_Tx                0x000036e5    0xa  Code  Gb  em_usart.o [1]
UsageFault_Handler      0x000037f9         Code  Wk  startup_efm32tg.o [1]
VCMP_IRQHandler         0x00003859         Code  Wk  startup_efm32tg.o [1]
__Vectors               0x00003000          --   Gb  startup_efm32tg.o [1]
__Vectors_End           0x0000309c         Data  Gb  startup_efm32tg.o [1]
__Vectors_Size {Abs}    0x0000009c          --   Gb  startup_efm32tg.o [1]
__cmain                 0x00003799         Code  Gb  cmain.o [4]
__exit                  0x000037c1         Code  Gb  XXexit.o [4]
__iar_SB                0x00003868         Data  Gb  bwt_init3c.o [4]
__iar_copy_init3        0x000036ef   0x2e  Code  Gb  copy_init3.o [4]
__iar_data_init3        0x0000371d   0x2c  Code  Gb  data_init3.o [4]
__iar_program_start     0x000037dd         Code  Gb  cstartup_M.o [4]
__iar_zero_init3        0x00003749   0x22  Code  Gb  zero_init3.o [4]
__vector_table          0x00003000         Data  Gb  startup_efm32tg.o [1]
__vector_table_0x1c     0x0000301c         Data  Gb  startup_efm32tg.o [1]
_call_main              0x000037a5         Code  Gb  cmain.o [4]
_exit                   0x000037b5         Code  Gb  cexit.o [4]
_main                   0x000037ab         Code  Gb  cmain.o [4]
cmuSetup                0x000034b9   0x16  Code  Gb  main.o [1]
exit                    0x000037af    0x4  Code  Gb  exit.o [3]
main                    0x20000011   0x16  Code  Gb  main.o [1]
rxBuf                   0x200000ac  0x110  Data  Gb  main.o [1]
txBuf                   0x200001bc  0x110  Data  Gb  main.o [1]
uartInit                0x2000008c   0x18  Data  Lc  main.o [1]
uartPutData             0x20000027   0x50  Code  Gb  main.o [1]
uartSetup               0x00003449   0x70  Code  Gb  main.o [1]


[1] = D:\Firmware\my-project-hihack\trunk\ my-project-hihack --username kaiser.ren@gmail.com\energymicro\kits\EFM32TG_STK3300\examples\an0045_efm32_uart_rs-232\iar\uart_rs-232\Release\Obj
[2] = command line
[3] = dl7M_tln.a
[4] = rt7M_tl.a

  2 114 bytes of readonly  code memory
    140 bytes of readwrite code memory
    210 bytes of readonly  data memory
  1 604 bytes of readwrite data memory

Errors: none
Warnings: none
