###############################################################################
#                                                                             #
# IAR ELF Linker V6.30.6.53336/W32 for ARM              03/Feb/2013  11:50:40 #
# Copyright 2007-2012 IAR Systems AB.                                         #
#                                                                             #
#    Output file  =  D:\Firmware\my-project-hihack\trunk\ my-project-hihack   #
#                    --username kaiser.ren@gmail.com\energymicro\kits\EFM32TG #
#                    _STK3300\examples\Senfone\iar\hijack_efm32tg210\Debug\Ex #
#                    e\hijack_efm32tg210.out                                  #
#    Map file     =  D:\Firmware\my-project-hihack\trunk\ my-project-hihack   #
#                    --username kaiser.ren@gmail.com\energymicro\kits\EFM32TG #
#                    _STK3300\examples\Senfone\iar\hijack_efm32tg210\Debug\Li #
#                    st\hijack_efm32tg210.map                                 #
#    Command line =  "D:\Firmware\my-project-hihack\trunk\ my-project-hihack  #
#                    --username kaiser.ren@gmail.com\energymicro\kits\EFM32TG #
#                    _STK3300\examples\Senfone\iar\hijack_efm32tg210\Debug\Ob #
#                    j\bsp_stk.o" "D:\Firmware\my-project-hihack\trunk\       #
#                    my-project-hihack --username                             #
#                    kaiser.ren@gmail.com\energymicro\kits\EFM32TG_STK3300\ex #
#                    amples\Senfone\iar\hijack_efm32tg210\Debug\Obj\bsp_stk_l #
#                    eds.o" "D:\Firmware\my-project-hihack\trunk\             #
#                    my-project-hihack --username                             #
#                    kaiser.ren@gmail.com\energymicro\kits\EFM32TG_STK3300\ex #
#                    amples\Senfone\iar\hijack_efm32tg210\Debug\Obj\bsp_trace #
#                    .o" "D:\Firmware\my-project-hihack\trunk\                #
#                    my-project-hihack --username                             #
#                    kaiser.ren@gmail.com\energymicro\kits\EFM32TG_STK3300\ex #
#                    amples\Senfone\iar\hijack_efm32tg210\Debug\Obj\com.o"    #
#                    "D:\Firmware\my-project-hihack\trunk\ my-project-hihack  #
#                    --username kaiser.ren@gmail.com\energymicro\kits\EFM32TG #
#                    _STK3300\examples\Senfone\iar\hijack_efm32tg210\Debug\Ob #
#                    j\decode.o" "D:\Firmware\my-project-hihack\trunk\        #
#                    my-project-hihack --username                             #
#                    kaiser.ren@gmail.com\energymicro\kits\EFM32TG_STK3300\ex #
#                    amples\Senfone\iar\hijack_efm32tg210\Debug\Obj\em_assert #
#                    .o" "D:\Firmware\my-project-hihack\trunk\                #
#                    my-project-hihack --username                             #
#                    kaiser.ren@gmail.com\energymicro\kits\EFM32TG_STK3300\ex #
#                    amples\Senfone\iar\hijack_efm32tg210\Debug\Obj\em_cmu.o" #
#                     "D:\Firmware\my-project-hihack\trunk\                   #
#                    my-project-hihack --username                             #
#                    kaiser.ren@gmail.com\energymicro\kits\EFM32TG_STK3300\ex #
#                    amples\Senfone\iar\hijack_efm32tg210\Debug\Obj\em_emu.o" #
#                     "D:\Firmware\my-project-hihack\trunk\                   #
#                    my-project-hihack --username                             #
#                    kaiser.ren@gmail.com\energymicro\kits\EFM32TG_STK3300\ex #
#                    amples\Senfone\iar\hijack_efm32tg210\Debug\Obj\em_gpio.o #
#                    " "D:\Firmware\my-project-hihack\trunk\                  #
#                    my-project-hihack --username                             #
#                    kaiser.ren@gmail.com\energymicro\kits\EFM32TG_STK3300\ex #
#                    amples\Senfone\iar\hijack_efm32tg210\Debug\Obj\em_int.o" #
#                     "D:\Firmware\my-project-hihack\trunk\                   #
#                    my-project-hihack --username                             #
#                    kaiser.ren@gmail.com\energymicro\kits\EFM32TG_STK3300\ex #
#                    amples\Senfone\iar\hijack_efm32tg210\Debug\Obj\em_lcd.o" #
#                     "D:\Firmware\my-project-hihack\trunk\                   #
#                    my-project-hihack --username                             #
#                    kaiser.ren@gmail.com\energymicro\kits\EFM32TG_STK3300\ex #
#                    amples\Senfone\iar\hijack_efm32tg210\Debug\Obj\em_system #
#                    .o" "D:\Firmware\my-project-hihack\trunk\                #
#                    my-project-hihack --username                             #
#                    kaiser.ren@gmail.com\energymicro\kits\EFM32TG_STK3300\ex #
#                    amples\Senfone\iar\hijack_efm32tg210\Debug\Obj\em_timer. #
#                    o" "D:\Firmware\my-project-hihack\trunk\                 #
#                    my-project-hihack --username                             #
#                    kaiser.ren@gmail.com\energymicro\kits\EFM32TG_STK3300\ex #
#                    amples\Senfone\iar\hijack_efm32tg210\Debug\Obj\em_usart. #
#                    o" "D:\Firmware\my-project-hihack\trunk\                 #
#                    my-project-hihack --username                             #
#                    kaiser.ren@gmail.com\energymicro\kits\EFM32TG_STK3300\ex #
#                    amples\Senfone\iar\hijack_efm32tg210\Debug\Obj\em_vcmp.o #
#                    " "D:\Firmware\my-project-hihack\trunk\                  #
#                    my-project-hihack --username                             #
#                    kaiser.ren@gmail.com\energymicro\kits\EFM32TG_STK3300\ex #
#                    amples\Senfone\iar\hijack_efm32tg210\Debug\Obj\encode.o" #
#                     "D:\Firmware\my-project-hihack\trunk\                   #
#                    my-project-hihack --username                             #
#                    kaiser.ren@gmail.com\energymicro\kits\EFM32TG_STK3300\ex #
#                    amples\Senfone\iar\hijack_efm32tg210\Debug\Obj\main.o"   #
#                    "D:\Firmware\my-project-hihack\trunk\ my-project-hihack  #
#                    --username kaiser.ren@gmail.com\energymicro\kits\EFM32TG #
#                    _STK3300\examples\Senfone\iar\hijack_efm32tg210\Debug\Ob #
#                    j\segmentlcd.o" "D:\Firmware\my-project-hihack\trunk\    #
#                    my-project-hihack --username                             #
#                    kaiser.ren@gmail.com\energymicro\kits\EFM32TG_STK3300\ex #
#                    amples\Senfone\iar\hijack_efm32tg210\Debug\Obj\startup_e #
#                    fm32tg.o" "D:\Firmware\my-project-hihack\trunk\          #
#                    my-project-hihack --username                             #
#                    kaiser.ren@gmail.com\energymicro\kits\EFM32TG_STK3300\ex #
#                    amples\Senfone\iar\hijack_efm32tg210\Debug\Obj\system_ef #
#                    m32tg.o" "D:\Firmware\my-project-hihack\trunk\           #
#                    my-project-hihack --username                             #
#                    kaiser.ren@gmail.com\energymicro\kits\EFM32TG_STK3300\ex #
#                    amples\Senfone\iar\hijack_efm32tg210\Debug\Obj\vddcheck. #
#                    o" --redirect _Printf=_PrintfFull --redirect             #
#                    _Scanf=_ScanfFull -o "D:\Firmware\my-project-hihack\trun #
#                    k\ my-project-hihack --username                          #
#                    kaiser.ren@gmail.com\energymicro\kits\EFM32TG_STK3300\ex #
#                    amples\Senfone\iar\hijack_efm32tg210\Debug\Exe\hijack_ef #
#                    m32tg210.out" --map "D:\Firmware\my-project-hihack\trunk #
#                    \ my-project-hihack --username                           #
#                    kaiser.ren@gmail.com\energymicro\kits\EFM32TG_STK3300\ex #
#                    amples\Senfone\iar\hijack_efm32tg210\Debug\List\hijack_e #
#                    fm32tg210.map" --config "D:\Program Files\IAR            #
#                    Systems\Embedded Workbench 6.0_3\arm\config\linker\Energ #
#                    yMicro\EFM32TG210F32.icf" --entry __iar_program_start    #
#                    --vfe                                                    #
#                                                                             #
#                                                                             #
###############################################################################

*******************************************************************************
*** RUNTIME MODEL ATTRIBUTES
***

CppFlavor       = *
__SystemLibrary = DLib


*******************************************************************************
*** PLACEMENT SUMMARY
***

"A1":  place at 0x00000000 { ro section .intvec };
"P1":  place in [from 0x00000000 to 0x00007fff] { ro };
"P2":  place in [from 0x20000000 to 0x20000fff] { rw, block CSTACK, block HEAP };

  Section            Kind        Address    Size  Object
  -------            ----        -------    ----  ------
"A1":                                       0x9c
  .intvec            ro code  0x00000000    0x9c  startup_efm32tg.o [1]
                            - 0x0000009c    0x9c

"P1":                                     0x38c8
  .text              ro code  0x0000009c   0xd1e  xprintffull.o [3]
  .text              ro code  0x00000dba    0x2e  copy_init3.o [5]
  .text              ro code  0x00000de8    0x16  strchr.o [5]
  .text              ro code  0x00000dfe    0x22  zero_init3.o [5]
  .text              ro code  0x00000e20    0x36  strlen.o [5]
  .text              ro code  0x00000e56     0xa  xsprout.o [3]
  .text              ro code  0x00000e60    0x58  memchr.o [5]
  .text              ro code  0x00000eb8    0xee  I64DivMod.o [5]
  .text              ro code  0x00000fa8    0x76  ABImemcpy.o [5]
  .text              ro code  0x0000101e    0x44  xdnorm.o [4]
  .text              ro code  0x00001064    0x2e  DblCmpLe.o [4]
  .text              ro code  0x00001094    0x2e  DblCmpGe.o [4]
  .text              ro code  0x000010c4   0x11a  xdscale.o [4]
  .text              ro code  0x000011e0    0x58  DblToI32.o [4]
  .text              ro code  0x00001238    0x30  I32ToDbl.o [4]
  .text              ro code  0x00001268   0x180  DblSub.o [4]
  .text              ro code  0x000013e8   0x1a2  DblMul.o [4]
  .text              ro code  0x0000158c   0x246  DblDiv.o [4]
  .text              ro code  0x000017d2     0xe  div.o [3]
  .text              ro code  0x000017e0     0x2  I64DivZer.o [5]
  .text              ro code  0x000017e4    0xd4  DblAdd.o [4]
  .text              ro code  0x000018b8   0x870  em_cmu.o [1]
  .text              ro code  0x00002128     0x2  em_assert.o [1]
  .text              ro code  0x0000212c   0x11c  system_efm32tg.o [1]
  .text              ro code  0x00002248    0x14  em_emu.o [1]
  .text              ro code  0x0000225c   0x3bc  decode.o [1]
  .text              ro code  0x00002618    0xf4  bsp_stk_leds.o [1]
  .text              ro code  0x0000270c   0x1b0  em_timer.o [1]
  .text              ro code  0x000028bc    0xf0  em_gpio.o [1]
  .text              ro code  0x000029ac   0x310  com.o [1]
  .text              ro code  0x00002cbc   0x210  em_usart.o [1]
  .text              ro code  0x00002ecc   0x3a8  encode.o [1]
  .text              ro code  0x00003274   0x1b8  main.o [1]
  .rodata            const    0x0000342c    0xb0  bsp_stk_leds.o [1]
  .rodata            const    0x000034dc    0xb0  decode.o [1]
  .rodata            const    0x0000358c    0x78  em_cmu.o [1]
  .rodata            const    0x00003604    0x78  em_gpio.o [1]
  .rodata            const    0x0000367c    0x78  em_timer.o [1]
  .rodata            const    0x000036f4    0x78  em_usart.o [1]
  .text              ro code  0x0000376c    0x2c  data_init3.o [5]
  .rodata            const    0x00003798    0x24  main.o [1]
  .iar.init_table    const    0x000037bc    0x24  - Linker created -
  .rodata            const    0x000037e0    0x1c  main.o [1]
  .rodata            const    0x000037fc    0x18  main.o [1]
  .text              ro code  0x00003814    0x16  cmain.o [5]
  .text              ro code  0x0000382a     0x4  low_level_init.o [3]
  .text              ro code  0x0000382e     0x4  exit.o [3]
  .text              ro code  0x00003834     0xa  cexit.o [5]
  .text              ro code  0x00003840     0xc  XXexit.o [5]
  .rodata            const    0x0000384c    0x10  decode.o [1]
  .rodata            const    0x0000385c    0x10  encode.o [1]
  .text              ro code  0x0000386c    0x10  startup_efm32tg.o [1]
  .rodata            const    0x0000387c     0xc  decode.o [1]
  .rodata            const    0x00003888     0xc  encode.o [1]
  .rodata            const    0x00003894     0xc  main.o [1]
  .rodata            const    0x000038a0     0xc  main.o [1]
  .text              ro code  0x000038ac     0xc  cstartup_M.o [5]
  .rodata            const    0x000038b8     0x8  bsp_stk_leds.o [1]
  .text              ro code  0x000038c0     0x4  startup_efm32tg.o [1]
  .text              ro code  0x000038c4     0x4  startup_efm32tg.o [1]
  .text              ro code  0x000038c8     0x4  startup_efm32tg.o [1]
  .text              ro code  0x000038cc     0x4  startup_efm32tg.o [1]
  .text              ro code  0x000038d0     0x4  startup_efm32tg.o [1]
  .text              ro code  0x000038d4     0x4  startup_efm32tg.o [1]
  .text              ro code  0x000038d8     0x4  startup_efm32tg.o [1]
  .text              ro code  0x000038dc     0x4  startup_efm32tg.o [1]
  .text              ro code  0x000038e0     0x4  startup_efm32tg.o [1]
  .text              ro code  0x000038e4     0x4  startup_efm32tg.o [1]
  .text              ro code  0x000038e8     0x4  startup_efm32tg.o [1]
  .text              ro code  0x000038ec     0x4  startup_efm32tg.o [1]
  .text              ro code  0x000038f0     0x4  startup_efm32tg.o [1]
  .text              ro code  0x000038f4     0x4  startup_efm32tg.o [1]
  .text              ro code  0x000038f8     0x4  startup_efm32tg.o [1]
  .text              ro code  0x000038fc     0x4  startup_efm32tg.o [1]
  .text              ro code  0x00003900     0x4  startup_efm32tg.o [1]
  .text              ro code  0x00003904     0x4  startup_efm32tg.o [1]
  .text              ro code  0x00003908     0x4  startup_efm32tg.o [1]
  .text              ro code  0x0000390c     0x4  startup_efm32tg.o [1]
  .text              ro code  0x00003910     0x4  startup_efm32tg.o [1]
  .text              ro code  0x00003914     0x4  startup_efm32tg.o [1]
  .text              ro code  0x00003918     0x4  startup_efm32tg.o [1]
  .text              ro code  0x0000391c     0x4  startup_efm32tg.o [1]
  .text              ro code  0x00003920     0x4  startup_efm32tg.o [1]
  .text              ro code  0x00003924     0x4  startup_efm32tg.o [1]
  .text              ro code  0x00003928     0x4  startup_efm32tg.o [1]
  .text              ro code  0x0000392c     0x4  startup_efm32tg.o [1]
  .text              ro code  0x00003930     0x4  startup_efm32tg.o [1]
  .text              ro code  0x00003934     0x4  startup_efm32tg.o [1]
  .text              ro code  0x00003938     0x4  startup_efm32tg.o [1]
  .text              ro code  0x0000393c     0x4  startup_efm32tg.o [1]
  .rodata            const    0x00003940     0x0  bwt_init3c.o [5]
  Initializer bytes  ro data  0x00003940    0x24  <for P2 s0>
                            - 0x00003964  0x38c8

"P2", part 1 of 3:                          0x24
  P2 s0                       0x20000000    0x24  <Init block>
    .data            inited   0x20000000    0x18  com.o [1]
    .data            inited   0x20000018     0x4  com.o [1]
    .data            inited   0x2000001c     0x4  system_efm32tg.o [1]
    .data            inited   0x20000020     0x4  system_efm32tg.o [1]
                            - 0x20000024    0x24

"P2", part 2 of 3:                         0x27c
  .bss               zero     0x20000024   0x110  com.o [1]
  .bss               zero     0x20000134   0x110  com.o [1]
  .bss               zero     0x20000244    0x34  com.o [1]
  .bss               zero     0x20000278     0x8  encode.o [1]
  .bss               zero     0x20000280     0x4  decode.o [1]
  .bss               zero     0x20000284     0x4  decode.o [1]
  .bss               zero     0x20000288     0x4  decode.o [1]
  .bss               zero     0x2000028c     0x4  decode.o [1]
  .bss               zero     0x20000290     0x4  encode.o [1]
  .bss               zero     0x20000294     0x4  system_efm32tg.o [1]
  .bss               zero     0x20000298     0x2  em_emu.o [1]
  .bss               zero     0x2000029a     0x1  decode.o [1]
  .bss               zero     0x2000029b     0x1  decode.o [1]
  .bss               zero     0x2000029c     0x1  encode.o [1]
  .bss               zero     0x2000029d     0x1  encode.o [1]
                            - 0x2000029e   0x27a

"P2", part 3 of 3:                         0x400
  CSTACK                      0x200002a0   0x400  <Block>
    CSTACK           uninit   0x200002a0   0x400  <Block tail>
                            - 0x200006a0   0x400


*******************************************************************************
*** INIT TABLE
***

          Address     Size
          -------     ----
Zero (__iar_zero_init3)
    1 destination range, total size 0x27a:
          0x20000024  0x27a

Copy (__iar_copy_init3)
    1 source range, total size 0x24:
          0x00003940   0x24
    1 destination range, total size 0x24:
          0x20000000   0x24



*******************************************************************************
*** MODULE SUMMARY
***

    Module             ro code  ro data  rw data
    ------             -------  -------  -------
D:\Firmware\my-project-hihack\trunk\ my-project-hihack --username kaiser.ren@gmail.com\energymicro\kits\EFM32TG_STK3300\examples\Senfone\iar\hijack_efm32tg210\Debug\Obj: [1]
    bsp_stk_leds.o         244      184
    com.o                  784       28      624
    decode.o               956      204       18
    em_assert.o              2
    em_cmu.o             2 160      120
    em_emu.o                20                 2
    em_gpio.o              240      120
    em_timer.o             432      120
    em_usart.o             528      120
    encode.o               936       28       14
    main.o                 440      112
    startup_efm32tg.o      300
    system_efm32tg.o       284        8       12
    --------------------------------------------
    Total:               7 326    1 044      670

command line: [2]
    --------------------------------------------
    Total:

dl7M_tln.a: [3]
    div.o                   14
    exit.o                   4
    low_level_init.o         4
    xprintffull.o        3 358
    xsprout.o               10
    --------------------------------------------
    Total:               3 390

m7M_tl.a: [4]
    DblAdd.o               212
    DblCmpGe.o              46
    DblCmpLe.o              46
    DblDiv.o               582
    DblMul.o               418
    DblSub.o               384
    DblToI32.o              88
    I32ToDbl.o              48
    xdnorm.o                68
    xdscale.o              282
    --------------------------------------------
    Total:               2 174

rt7M_tl.a: [5]
    ABImemcpy.o            118
    I64DivMod.o            238
    I64DivZer.o              2
    XXexit.o                12
    bwt_init3c.o
    cexit.o                 10
    cmain.o                 22
    copy_init3.o            46
    cstartup_M.o            12
    data_init3.o            44
    memchr.o                88
    strchr.o                22
    strlen.o                54
    zero_init3.o            34
    --------------------------------------------
    Total:                 702

    Gaps                    20
    Linker created                   36    1 024
------------------------------------------------
    Grand Total:        13 612    1 080    1 694


*******************************************************************************
*** ENTRY LIST
***

Entry                      Address   Size  Type      Object
-----                      -------   ----  ----      ------
?main                   0x00003815         Code  Gb  cmain.o [5]
ACMP0_IRQHandler        0x000038f9         Code  Wk  startup_efm32tg.o [1]
ADC0_IRQHandler         0x000038fd         Code  Wk  startup_efm32tg.o [1]
AES_IRQHandler          0x0000393d         Code  Wk  startup_efm32tg.o [1]
BITBAND_Peripheral      0x000018b9    0xe  Code  Lc  em_cmu.o [1]
BSP_LedClear            0x000026a9   0x28  Code  Gb  bsp_stk_leds.o [1]
BSP_LedSet              0x000026d1   0x28  Code  Gb  bsp_stk_leds.o [1]
BSP_LedsInit            0x00002671   0x38  Code  Gb  bsp_stk_leds.o [1]
BusFault_Handler        0x000038cd         Code  Wk  startup_efm32tg.o [1]
CHIP_Init               0x00003275    0x2  Code  Lc  main.o [1]
CMU_AUXClkGet           0x0000197d   0x64  Code  Lc  em_cmu.o [1]
CMU_Clkout              0x00003331   0x22  Code  Gb  main.o [1]
CMU_ClockEnable         0x00001aad   0x92  Code  Gb  em_cmu.o [1]
CMU_ClockFreqGet        0x00001b3f  0x158  Code  Gb  em_cmu.o [1]
CMU_ClockSelectGet      0x00001c97  0x102  Code  Gb  em_cmu.o [1]
CMU_ClockSelectSet      0x00001d99  0x1ae  Code  Gb  em_cmu.o [1]
CMU_DBGClkGet           0x000019e1   0x3c  Code  Lc  em_cmu.o [1]
CMU_DivToLog2           0x000018fb   0x26  Code  Lc  em_cmu.o [1]
CMU_FlashWaitStateControl
                        0x00001921   0x5c  Code  Lc  em_cmu.o [1]
CMU_FlashWaitStateMax   0x000018c7   0x34  Code  Lc  em_cmu.o [1]
CMU_HFRCOBandSet        0x00001f59   0xac  Code  Gb  em_cmu.o [1]
CMU_IRQHandler          0x0000392d         Code  Wk  startup_efm32tg.o [1]
CMU_LFClkGet            0x00001a1d   0x7a  Code  Lc  em_cmu.o [1]
CMU_OscillatorEnable    0x0000202d   0xa6  Code  Gb  em_cmu.o [1]
CMU_Sync                0x00001a97   0x16  Code  Lc  em_cmu.o [1]
COM_Init                0x000029f9   0xc4  Code  Gb  com.o [1]
CSTACK$$Base            0x200002a0          --   Gb  - Linker created -
CSTACK$$Limit           0x200006a0          --   Gb  - Linker created -
DAC0_IRQHandler         0x00003901         Code  Wk  startup_efm32tg.o [1]
DMA_IRQHandler          0x000038e5         Code  Wk  startup_efm32tg.o [1]
DebugMon_Handler        0x000038d9         Code  Wk  startup_efm32tg.o [1]
Debug_Print             0x00002c2d   0x62  Code  Gb  com.o [1]
EMU_EnterEM1            0x0000327d   0x10  Code  Lc  main.o [1]
EMU_UpdateOscConfig     0x00002249    0xa  Code  Gb  em_emu.o [1]
GPIO_EVEN_IRQHandler    0x00003325    0xc  Code  Gb  main.o [1]
GPIO_IntClear           0x00003277    0x6  Code  Lc  main.o [1]
GPIO_ODD_IRQHandler     0x00003319    0xc  Code  Gb  main.o [1]
GPIO_PinInGet           0x0000227f   0x32  Code  Lc  decode.o [1]
GPIO_PinModeSet         0x000028bd   0xe4  Code  Gb  em_gpio.o [1]
GPIO_PinOutClear        0x00002619   0x2c  Code  Lc  bsp_stk_leds.o [1]
GPIO_PinOutSet          0x00002645   0x2c  Code  Lc  bsp_stk_leds.o [1]
GetProdRev              0x0000212d    0xa  Code  Lc  system_efm32tg.o [1]
HIJACK_CaptureConfig    0x0000232b   0x4c  Code  Lc  decode.o [1]
HIJACK_CompareConfig    0x00002f4b   0x4c  Code  Lc  encode.o [1]
HardFault_Handler       0x000038c5         Code  Wk  startup_efm32tg.o [1]
I2C0_IRQHandler         0x00003905         Code  Wk  startup_efm32tg.o [1]
IsTime2Detect           0x000023bd   0x46  Code  Lc  decode.o [1]
LCD_IRQHandler          0x00003935         Code  Wk  startup_efm32tg.o [1]
LESENSE_IRQHandler      0x00003919         Code  Wk  startup_efm32tg.o [1]
LETIMER0_IRQHandler     0x00003921         Code  Wk  startup_efm32tg.o [1]
LEUART0_IRQHandler      0x0000391d         Code  Wk  startup_efm32tg.o [1]
MSC_IRQHandler          0x00003939         Code  Wk  startup_efm32tg.o [1]
MemManage_Handler       0x000038c9         Code  Wk  startup_efm32tg.o [1]
NMI_Handler             0x000038c1         Code  Wk  startup_efm32tg.o [1]
NVIC_ClearPendingIRQ    0x000029c7   0x1a  Code  Lc  com.o [1]
NVIC_EnableIRQ          0x000029ad   0x1a  Code  Lc  com.o [1]
NVIC_EnableIRQ          0x0000225d   0x1a  Code  Lc  decode.o [1]
NVIC_EnableIRQ          0x00002ecd   0x1a  Code  Lc  encode.o [1]
PCNT0_IRQHandler        0x00003925         Code  Wk  startup_efm32tg.o [1]
PendSV_Handler          0x000038dd         Code  Wk  startup_efm32tg.o [1]
RTC_IRQHandler          0x00003929         Code  Wk  startup_efm32tg.o [1]
Region$$Table$$Base     0x000037bc          --   Gb  - Linker created -
Region$$Table$$Limit    0x000037e0          --   Gb  - Linker created -
Reset_Handler           0x0000386d         Code  Wk  startup_efm32tg.o [1]
SVC_Handler             0x000038d5         Code  Wk  startup_efm32tg.o [1]
SysTick_Handler         0x000038e1         Code  Wk  startup_efm32tg.o [1]
SystemCoreClock         0x20000294    0x4  Data  Gb  system_efm32tg.o [1]
SystemCoreClockGet      0x00002137   0x1a  Code  Gb  system_efm32tg.o [1]
SystemCoreClockUpdate   0x00002277    0x8  Code  Lc  decode.o [1]
SystemCoreClockUpdate   0x00002ee7    0x8  Code  Lc  encode.o [1]
SystemHFClockGet        0x00002151   0xa6  Code  Gb  system_efm32tg.o [1]
SystemHFXOClock         0x2000001c    0x4  Data  Lc  system_efm32tg.o [1]
SystemInit              0x000021f7    0x2  Code  Gb  system_efm32tg.o [1]
SystemLFRCOClockGet     0x000021f9    0x6  Code  Gb  system_efm32tg.o [1]
SystemLFXOClock         0x20000020    0x4  Data  Lc  system_efm32tg.o [1]
SystemLFXOClockGet      0x00002205    0x6  Code  Gb  system_efm32tg.o [1]
SystemULFRCOClockGet    0x000021ff    0x6  Code  Gb  system_efm32tg.o [1]
TIMER0_IRQHandler       0x000022cd   0x5e  Code  Gb  decode.o [1]
TIMER1_IRQHandler       0x00002f0b   0x40  Code  Gb  encode.o [1]
TIMER_CaptureGet        0x000022b1    0x8  Code  Lc  decode.o [1]
TIMER_CompareSet        0x00002eef    0x8  Code  Lc  encode.o [1]
TIMER_CounterSet        0x000022b9    0x4  Code  Lc  decode.o [1]
TIMER_CounterSet        0x00002ef7    0x4  Code  Lc  encode.o [1]
TIMER_Enable            0x0000270d   0x2c  Code  Gb  em_timer.o [1]
TIMER_Init              0x00002739   0xd4  Code  Gb  em_timer.o [1]
TIMER_InitCC            0x0000280d   0xa2  Code  Gb  em_timer.o [1]
TIMER_IntClear          0x000022bd    0x4  Code  Lc  decode.o [1]
TIMER_IntClear          0x00002efb    0x4  Code  Lc  encode.o [1]
TIMER_IntEnable         0x000022c1    0x8  Code  Lc  decode.o [1]
TIMER_IntEnable         0x00002eff    0x8  Code  Lc  encode.o [1]
TIMER_IntGet            0x000022c9    0x4  Code  Lc  decode.o [1]
TIMER_IntGet            0x00002f07    0x4  Code  Lc  encode.o [1]
USART0_RX_IRQHandler    0x00002b5b   0x66  Code  Gb  com.o [1]
USART0_TX_IRQHandler    0x00002bc1   0x6c  Code  Gb  com.o [1]
USART1_RX_IRQHandler    0x00003911         Code  Wk  startup_efm32tg.o [1]
USART1_TX_IRQHandler    0x00003915         Code  Wk  startup_efm32tg.o [1]
USART_BaudrateAsyncSet  0x00002cbd   0xf6  Code  Gb  em_usart.o [1]
USART_Enable            0x00002db3   0x30  Code  Gb  em_usart.o [1]
USART_InitAsync         0x00002de3   0x60  Code  Gb  em_usart.o [1]
USART_IntClear          0x000029e1    0x4  Code  Lc  com.o [1]
USART_IntDisable        0x000029e5    0x8  Code  Lc  com.o [1]
USART_IntEnable         0x000029ed    0x8  Code  Lc  com.o [1]
USART_IntGet            0x000029f5    0x4  Code  Lc  com.o [1]
USART_Reset             0x00002e43   0x5a  Code  Gb  em_usart.o [1]
USART_Rx                0x00002eb5    0xc  Code  Gb  em_usart.o [1]
USART_Tx                0x00002ec1    0xc  Code  Gb  em_usart.o [1]
UsageFault_Handler      0x000038d1         Code  Wk  startup_efm32tg.o [1]
VCMP_IRQHandler         0x00003931         Code  Wk  startup_efm32tg.o [1]
_GenldFull              0x00000b01  0x270  Code  Lc  xprintffull.o [3]
_LdtobFull              0x000006f1  0x400  Code  Lc  xprintffull.o [3]
_LitobFull              0x000005cb  0x126  Code  Lc  xprintffull.o [3]
_PrintfFull             0x0000009d  0x52e  Code  Gb  xprintffull.o [3]
_PutcharsFull           0x00000d71   0x2e  Code  Lc  xprintffull.o [3]
_SProut                 0x00000e57    0xa  Code  Gb  xsprout.o [3]
__Vectors               0x00000000          --   Gb  startup_efm32tg.o [1]
__Vectors_End           0x0000009c         Data  Gb  startup_efm32tg.o [1]
__Vectors_Size {Abs}    0x0000009c          --   Gb  startup_efm32tg.o [1]
__aeabi_cdcmple         0x00001065         Code  Gb  DblCmpLe.o [4]
__aeabi_cdrcmple        0x00001095         Code  Gb  DblCmpGe.o [4]
__aeabi_d2iz            0x000011e1         Code  Gb  DblToI32.o [4]
__aeabi_d2uiz           0x0000120d         Code  Gb  DblToI32.o [4]
__aeabi_ddiv            0x0000158d         Code  Gb  DblDiv.o [4]
__aeabi_dmul            0x000013e9         Code  Gb  DblMul.o [4]
__aeabi_dsub            0x00001269         Code  Gb  DblSub.o [4]
__aeabi_i2d             0x00001239         Code  Gb  I32ToDbl.o [4]
__aeabi_ldiv0           0x000017e1         Code  Gb  I64DivZer.o [5]
__aeabi_memcpy          0x00000fa9         Code  Gb  ABImemcpy.o [5]
__aeabi_memcpy4         0x00000fc9         Code  Gb  ABImemcpy.o [5]
__aeabi_memcpy8         0x00000fc9         Code  Gb  ABImemcpy.o [5]
__aeabi_ui2d            0x0000124d         Code  Gb  I32ToDbl.o [4]
__aeabi_uldivmod        0x00000eb9         Code  Gb  I64DivMod.o [5]
__cmain                 0x00003815         Code  Gb  cmain.o [5]
__exit                  0x00003841         Code  Gb  XXexit.o [5]
__iar_Dnorm             0x0000101f   0x44  Code  Gb  xdnorm.o [4]
__iar_Dscale            0x000010c5  0x106  Code  Gb  xdscale.o [4]
__iar_Memchr            0x00000e61         Code  Gb  memchr.o [5]
__iar_SB                0x00003940         Data  Gb  bwt_init3c.o [5]
__iar_Strchr            0x00000de9         Code  Gb  strchr.o [5]
__iar_copy_init3        0x00000dbb   0x2e  Code  Gb  copy_init3.o [5]
__iar_d2uiz             0x00001219         Code  Gb  DblToI32.o [4]
__iar_dadd              0x000017e5         Code  Gb  DblAdd.o [4]
__iar_data_init3        0x0000376d   0x2c  Code  Gb  data_init3.o [5]
__iar_dsub              0x0000127d         Code  Gb  DblSub.o [4]
__iar_dsubStart         0x0000128f         Code  Gb  DblSub.o [4]
__iar_program_start     0x000038ad         Code  Gb  cstartup_M.o [5]
__iar_ui2d              0x00001251         Code  Gb  I32ToDbl.o [4]
__iar_zero_init3        0x00000dff   0x22  Code  Gb  zero_init3.o [5]
__low_level_init        0x0000382b    0x4  Code  Gb  low_level_init.o [3]
__vector_table          0x00000000         Data  Gb  startup_efm32tg.o [1]
__vector_table_0x1c     0x0000001c         Data  Gb  startup_efm32tg.o [1]
_call_main              0x00003821         Code  Gb  cmain.o [5]
_exit                   0x00003835         Code  Gb  cexit.o [5]
_main                   0x00003827         Code  Gb  cmain.o [5]
appPrintBuf             0x20000244   0x34  Data  Gb  com.o [1]
assertEFM               0x00002129    0x2  Code  Gb  em_assert.o [1]
cmuStatus               0x20000298    0x2  Data  Lc  em_emu.o [1]
cur_edge                0x2000029b    0x1  Data  Gb  decode.o [1]
cur_stamp               0x20000284    0x4  Data  Gb  decode.o [1]
dbg_led                 0x2000029d    0x1  Data  Lc  encode.o [1]
dec                     0x20000280    0x4  Data  Gb  decode.o [1]
dec_init                0x00002377   0x46  Code  Gb  decode.o [1]
dec_parser              0x00002403   0x5c  Code  Lc  decode.o [1]
decode_machine          0x0000245f  0x17e  Code  Gb  decode.o [1]
div                     0x000017d3    0xe  Code  Gb  div.o [3]
edge_occur              0x2000029a    0x1  Data  Gb  decode.o [1]
enc                     0x20000278    0x8  Data  Lc  encode.o [1]
enc_init                0x00002f97   0x5a  Code  Gb  encode.o [1]
enc_odd                 0x2000029c    0x1  Data  Lc  encode.o [1]
encode_machine          0x00003059  0x1ea  Code  Gb  encode.o [1]
exit                    0x0000382f    0x4  Code  Gb  exit.o [3]
findParam               0x00002ff1   0x68  Code  Gb  encode.o [1]
inv                     0x2000028c    0x4  Data  Lc  decode.o [1]
ledArray                0x000038b8    0x8  Data  Lc  bsp_stk_leds.o [1]
main                    0x00003353   0x70  Code  Gb  main.o [1]
memchr                  0x00000e61         Code  Gb  memchr.o [5]
offset                  0x20000288    0x4  Data  Lc  decode.o [1]
rxBuf                   0x20000024  0x110  Data  Gb  com.o [1]
setupSWO                0x0000328d   0x8c  Code  Gb  main.o [1]
strchr                  0x00000de9         Code  Gb  strchr.o [5]
strlen                  0x00000e21         Code  Gb  strlen.o [5]
ticker                  0x20000290    0x4  Data  Gb  encode.o [1]
txBuf                   0x20000134  0x110  Data  Gb  com.o [1]
uart                    0x20000018    0x4  Data  Lc  com.o [1]
uartGetAmount           0x00002b53    0x8  Code  Gb  com.o [1]
uartGetChar             0x00002abd   0x38  Code  Gb  com.o [1]
uartInit                0x20000000   0x18  Data  Lc  com.o [1]
uartPutChar             0x00002af5   0x5e  Code  Gb  com.o [1]


[1] = D:\Firmware\my-project-hihack\trunk\ my-project-hihack --username kaiser.ren@gmail.com\energymicro\kits\EFM32TG_STK3300\examples\Senfone\iar\hijack_efm32tg210\Debug\Obj
[2] = command line
[3] = dl7M_tln.a
[4] = m7M_tl.a
[5] = rt7M_tl.a

  13 612 bytes of readonly  code memory
   1 080 bytes of readonly  data memory
   1 694 bytes of readwrite data memory

Errors: none
Warnings: none
