###############################################################################
#                                                                             #
# IAR ELF Linker V6.30.6.53336/W32 for ARM              05/Jul/2013  14:39:41 #
# Copyright 2007-2012 IAR Systems AB.                                         #
#                                                                             #
#    Output file  =  D:\Firmware\my-project-hihack\trunk\ my-project-hihack   #
#                    --username kaiser.ren@gmail.com\energymicro\kits\EFM32TG #
#                    _STK3300\examples\userpage\iar\userpage\Debug\Exe\userpa #
#                    ge.out                                                   #
#    Map file     =  D:\Firmware\my-project-hihack\trunk\ my-project-hihack   #
#                    --username kaiser.ren@gmail.com\energymicro\kits\EFM32TG #
#                    _STK3300\examples\userpage\iar\userpage\Debug\List\userp #
#                    age.map                                                  #
#    Command line =  "D:\Firmware\my-project-hihack\trunk\ my-project-hihack  #
#                    --username kaiser.ren@gmail.com\energymicro\kits\EFM32TG #
#                    _STK3300\examples\userpage\iar\userpage\Debug\Obj\bsp_st #
#                    k.o" "D:\Firmware\my-project-hihack\trunk\               #
#                    my-project-hihack --username                             #
#                    kaiser.ren@gmail.com\energymicro\kits\EFM32TG_STK3300\ex #
#                    amples\userpage\iar\userpage\Debug\Obj\bsp_stk_leds.o"   #
#                    "D:\Firmware\my-project-hihack\trunk\ my-project-hihack  #
#                    --username kaiser.ren@gmail.com\energymicro\kits\EFM32TG #
#                    _STK3300\examples\userpage\iar\userpage\Debug\Obj\bsp_tr #
#                    ace.o" "D:\Firmware\my-project-hihack\trunk\             #
#                    my-project-hihack --username                             #
#                    kaiser.ren@gmail.com\energymicro\kits\EFM32TG_STK3300\ex #
#                    amples\userpage\iar\userpage\Debug\Obj\em_assert.o"      #
#                    "D:\Firmware\my-project-hihack\trunk\ my-project-hihack  #
#                    --username kaiser.ren@gmail.com\energymicro\kits\EFM32TG #
#                    _STK3300\examples\userpage\iar\userpage\Debug\Obj\em_cmu #
#                    .o" "D:\Firmware\my-project-hihack\trunk\                #
#                    my-project-hihack --username                             #
#                    kaiser.ren@gmail.com\energymicro\kits\EFM32TG_STK3300\ex #
#                    amples\userpage\iar\userpage\Debug\Obj\em_emu.o"         #
#                    "D:\Firmware\my-project-hihack\trunk\ my-project-hihack  #
#                    --username kaiser.ren@gmail.com\energymicro\kits\EFM32TG #
#                    _STK3300\examples\userpage\iar\userpage\Debug\Obj\em_gpi #
#                    o.o" "D:\Firmware\my-project-hihack\trunk\               #
#                    my-project-hihack --username                             #
#                    kaiser.ren@gmail.com\energymicro\kits\EFM32TG_STK3300\ex #
#                    amples\userpage\iar\userpage\Debug\Obj\em_lcd.o"         #
#                    "D:\Firmware\my-project-hihack\trunk\ my-project-hihack  #
#                    --username kaiser.ren@gmail.com\energymicro\kits\EFM32TG #
#                    _STK3300\examples\userpage\iar\userpage\Debug\Obj\em_msc #
#                    .o" "D:\Firmware\my-project-hihack\trunk\                #
#                    my-project-hihack --username                             #
#                    kaiser.ren@gmail.com\energymicro\kits\EFM32TG_STK3300\ex #
#                    amples\userpage\iar\userpage\Debug\Obj\em_rtc.o"         #
#                    "D:\Firmware\my-project-hihack\trunk\ my-project-hihack  #
#                    --username kaiser.ren@gmail.com\energymicro\kits\EFM32TG #
#                    _STK3300\examples\userpage\iar\userpage\Debug\Obj\em_sys #
#                    tem.o" "D:\Firmware\my-project-hihack\trunk\             #
#                    my-project-hihack --username                             #
#                    kaiser.ren@gmail.com\energymicro\kits\EFM32TG_STK3300\ex #
#                    amples\userpage\iar\userpage\Debug\Obj\em_timer.o"       #
#                    "D:\Firmware\my-project-hihack\trunk\ my-project-hihack  #
#                    --username kaiser.ren@gmail.com\energymicro\kits\EFM32TG #
#                    _STK3300\examples\userpage\iar\userpage\Debug\Obj\rtcdrv #
#                    .o" "D:\Firmware\my-project-hihack\trunk\                #
#                    my-project-hihack --username                             #
#                    kaiser.ren@gmail.com\energymicro\kits\EFM32TG_STK3300\ex #
#                    amples\userpage\iar\userpage\Debug\Obj\segmentlcd.o"     #
#                    "D:\Firmware\my-project-hihack\trunk\ my-project-hihack  #
#                    --username kaiser.ren@gmail.com\energymicro\kits\EFM32TG #
#                    _STK3300\examples\userpage\iar\userpage\Debug\Obj\startu #
#                    p_efm32tg.o" "D:\Firmware\my-project-hihack\trunk\       #
#                    my-project-hihack --username                             #
#                    kaiser.ren@gmail.com\energymicro\kits\EFM32TG_STK3300\ex #
#                    amples\userpage\iar\userpage\Debug\Obj\system_efm32tg.o" #
#                     "D:\Firmware\my-project-hihack\trunk\                   #
#                    my-project-hihack --username                             #
#                    kaiser.ren@gmail.com\energymicro\kits\EFM32TG_STK3300\ex #
#                    amples\userpage\iar\userpage\Debug\Obj\userpage.o"       #
#                    --redirect _Printf=_PrintfFull --redirect                #
#                    _Scanf=_ScanfFull -o "D:\Firmware\my-project-hihack\trun #
#                    k\ my-project-hihack --username                          #
#                    kaiser.ren@gmail.com\energymicro\kits\EFM32TG_STK3300\ex #
#                    amples\userpage\iar\userpage\Debug\Exe\userpage.out"     #
#                    --map "D:\Firmware\my-project-hihack\trunk\              #
#                    my-project-hihack --username                             #
#                    kaiser.ren@gmail.com\energymicro\kits\EFM32TG_STK3300\ex #
#                    amples\userpage\iar\userpage\Debug\List\userpage.map"    #
#                    --config "D:\Program Files\IAR Systems\Embedded          #
#                    Workbench 6.0_3\arm\config\linker\EnergyMicro\EFM32TG840 #
#                    F32.icf" --entry __iar_program_start --vfe               #
#                                                                             #
#                                                                             #
###############################################################################

*******************************************************************************
*** RUNTIME MODEL ATTRIBUTES
***

CppFlavor       = *
__SystemLibrary = DLib


*******************************************************************************
*** PLACEMENT SUMMARY
***

"A1":  place at 0x00000000 { ro section .intvec };
"P1":  place in [from 0x00000000 to 0x00007fff] { ro };
"P2":  place in [from 0x20000000 to 0x20000fff] { rw, block CSTACK, block HEAP };

  Section            Kind        Address    Size  Object
  -------            ----        -------    ----  ------
"A1":                                       0x9c
  .intvec            ro code  0x00000000    0x9c  startup_efm32tg.o [1]
                            - 0x0000009c    0x9c

"P1":                                     0x1d6c
  .text              ro code  0x0000009c   0x894  em_cmu.o [1]
  .text              ro code  0x00000930   0x11c  system_efm32tg.o [1]
  .text              ro code  0x00000a4c    0x14  em_emu.o [1]
  Veneer             ro code  0x00000a60     0x8  - Linker created -
  .text              ro code  0x00000a68   0x318  userpage.o [1]
  .text              ro code  0x00000d80    0xa4  em_msc.o [1]
  .text              ro code  0x00000e24    0x16  userpage.o [1]
  .text              ro code  0x00000e3a    0x2e  copy_init3.o [4]
  .text              ro code  0x00000e68   0x28c  segmentlcd.o [1]
  .text              ro code  0x000010f4   0x188  em_gpio.o [1]
  .text              ro code  0x0000127c   0x148  rtcdrv.o [1]
  .text              ro code  0x000013c4   0x14c  em_timer.o [1]
  .text              ro code  0x00001510    0xd0  bsp_trace.o [1]
  .text              ro code  0x000015e0    0xbc  bsp_stk_leds.o [1]
  .text              ro code  0x0000169c    0x66  ABImemset.o [4]
  .text              ro code  0x00001702     0x8  abs.o [3]
  .text              ro code  0x0000170a    0x22  zero_init3.o [4]
  .text              ro code  0x0000172c   0x26c  em_lcd.o [1]
  .text              ro code  0x00001998    0x74  em_rtc.o [1]
  .rodata            const    0x00001a0c   0x120  segmentlcd.o [1]
  .text              ro code  0x00001b2c    0x2c  data_init3.o [4]
  .rodata            const    0x00001b58    0x24  segmentlcd.o [1]
  .iar.init_table    const    0x00001b7c    0x24  - Linker created -
  .text              ro code  0x00001ba0    0x16  cmain.o [4]
  .text              ro code  0x00001bb6     0x4  low_level_init.o [3]
  .text              ro code  0x00001bba     0x4  exit.o [3]
  .rodata            const    0x00001bbe     0x2  segmentlcd.o [1]
  .text              ro code  0x00001bc0     0xa  cexit.o [4]
  .text              ro code  0x00001bcc     0xc  XXexit.o [4]
  .rodata            const    0x00001bd8    0x14  segmentlcd.o [1]
  .rodata            const    0x00001bec    0x10  userpage.o [1]
  .text              ro code  0x00001bfc    0x10  startup_efm32tg.o [1]
  .rodata            const    0x00001c0c     0xc  userpage.o [1]
  .text              ro code  0x00001c18     0xc  cstartup_M.o [4]
  .rodata            const    0x00001c24     0x8  bsp_stk_leds.o [1]
  .text              ro code  0x00001c2c     0x4  startup_efm32tg.o [1]
  .text              ro code  0x00001c30     0x4  startup_efm32tg.o [1]
  .text              ro code  0x00001c34     0x4  startup_efm32tg.o [1]
  .text              ro code  0x00001c38     0x4  startup_efm32tg.o [1]
  .text              ro code  0x00001c3c     0x4  startup_efm32tg.o [1]
  .text              ro code  0x00001c40     0x4  startup_efm32tg.o [1]
  .text              ro code  0x00001c44     0x4  startup_efm32tg.o [1]
  .text              ro code  0x00001c48     0x4  startup_efm32tg.o [1]
  .text              ro code  0x00001c4c     0x4  startup_efm32tg.o [1]
  .text              ro code  0x00001c50     0x4  startup_efm32tg.o [1]
  .text              ro code  0x00001c54     0x4  startup_efm32tg.o [1]
  .text              ro code  0x00001c58     0x4  startup_efm32tg.o [1]
  .text              ro code  0x00001c5c     0x4  startup_efm32tg.o [1]
  .text              ro code  0x00001c60     0x4  startup_efm32tg.o [1]
  .text              ro code  0x00001c64     0x4  startup_efm32tg.o [1]
  .text              ro code  0x00001c68     0x4  startup_efm32tg.o [1]
  .text              ro code  0x00001c6c     0x4  startup_efm32tg.o [1]
  .text              ro code  0x00001c70     0x4  startup_efm32tg.o [1]
  .text              ro code  0x00001c74     0x4  startup_efm32tg.o [1]
  .text              ro code  0x00001c78     0x4  startup_efm32tg.o [1]
  .text              ro code  0x00001c7c     0x4  startup_efm32tg.o [1]
  .text              ro code  0x00001c80     0x4  startup_efm32tg.o [1]
  .text              ro code  0x00001c84     0x4  startup_efm32tg.o [1]
  .text              ro code  0x00001c88     0x4  startup_efm32tg.o [1]
  .text              ro code  0x00001c8c     0x4  startup_efm32tg.o [1]
  .text              ro code  0x00001c90     0x4  startup_efm32tg.o [1]
  .text              ro code  0x00001c94     0x4  startup_efm32tg.o [1]
  .text              ro code  0x00001c98     0x4  startup_efm32tg.o [1]
  .text              ro code  0x00001c9c     0x4  startup_efm32tg.o [1]
  .text              ro code  0x00001ca0     0x4  startup_efm32tg.o [1]
  .text              ro code  0x00001ca4     0x4  startup_efm32tg.o [1]
  .text              ro code  0x00001ca8     0x4  startup_efm32tg.o [1]
  .rodata            const    0x00001cac     0x0  bwt_init3c.o [4]
  Initializer bytes  ro data  0x00001cac   0x15c  <for P2 s0>
                            - 0x00001e08  0x1d6c

"P2", part 1 of 3:                         0x15c
  P2 s0                       0x20000000   0x15c  <Init block>
    .textrw          inited   0x20000000   0x154  em_msc.o [1]
    .data            inited   0x20000154     0x4  system_efm32tg.o [1]
    .data            inited   0x20000158     0x4  system_efm32tg.o [1]
                            - 0x2000015c   0x15c

"P2", part 2 of 3:                         0x11c
  .bss               zero     0x2000015c   0x108  userpage.o [1]
  .bss               zero     0x20000264     0x4  rtcdrv.o [1]
  .bss               zero     0x20000268     0x4  rtcdrv.o [1]
  .bss               zero     0x2000026c     0x4  system_efm32tg.o [1]
  .bss               zero     0x20000270     0x2  em_emu.o [1]
  .bss               zero     0x20000272     0x1  rtcdrv.o [1]
  .bss               zero     0x20000273     0x1  userpage.o [1]
  .bss               zero     0x20000274     0x1  userpage.o [1]
  .bss               zero     0x20000275     0x1  userpage.o [1]
                            - 0x20000276   0x11a

"P2", part 3 of 3:                         0x400
  CSTACK                      0x20000278   0x400  <Block>
    CSTACK           uninit   0x20000278   0x400  <Block tail>
                            - 0x20000678   0x400


*******************************************************************************
*** INIT TABLE
***

          Address     Size
          -------     ----
Zero (__iar_zero_init3)
    1 destination range, total size 0x11a:
          0x2000015c  0x11a

Copy (__iar_copy_init3)
    1 source range, total size 0x15c:
          0x00001cac  0x15c
    1 destination range, total size 0x15c:
          0x20000000  0x15c



*******************************************************************************
*** MODULE SUMMARY
***

    Module             ro code  rw code  ro data  rw data
    ------             -------  -------  -------  -------
D:\Firmware\my-project-hihack\trunk\ my-project-hihack --username kaiser.ren@gmail.com\energymicro\kits\EFM32TG_STK3300\examples\userpage\iar\userpage\Debug\Obj: [1]
    bsp_stk_leds.o         188                 8
    bsp_trace.o            208
    em_cmu.o             2 196
    em_emu.o                20                          2
    em_gpio.o              392
    em_lcd.o               620
    em_msc.o               164      340      340
    em_rtc.o               116
    em_timer.o             332
    rtcdrv.o               328                          9
    segmentlcd.o           652               346
    startup_efm32tg.o      300
    system_efm32tg.o       284                 8       12
    userpage.o             814                28      267
    -----------------------------------------------------
    Total:               6 614      340      730      290

command line: [2]
    -----------------------------------------------------
    Total:

dl7M_tln.a: [3]
    abs.o                    8
    exit.o                   4
    low_level_init.o         4
    -----------------------------------------------------
    Total:                  16

rt7M_tl.a: [4]
    ABImemset.o            102
    XXexit.o                12
    bwt_init3c.o
    cexit.o                 10
    cmain.o                 22
    copy_init3.o            46
    cstartup_M.o            12
    data_init3.o            44
    zero_init3.o            34
    -----------------------------------------------------
    Total:                 282

    Gaps                     2
    Linker created           8                36    1 024
---------------------------------------------------------
    Grand Total:         6 922      340      766    1 314


*******************************************************************************
*** ENTRY LIST
***

Entry                      Address   Size  Type      Object
-----                      -------   ----  ----      ------
?main                   0x00001ba1         Code  Gb  cmain.o [4]
ACMP0_IRQHandler        0x00001c65         Code  Wk  startup_efm32tg.o [1]
ADC0_IRQHandler         0x00001c69         Code  Wk  startup_efm32tg.o [1]
AES_IRQHandler          0x00001ca9         Code  Wk  startup_efm32tg.o [1]
BITBAND_Peripheral      0x0000009d    0xe  Code  Lc  em_cmu.o [1]
BITBAND_Peripheral      0x000010f5    0xe  Code  Lc  em_gpio.o [1]
BITBAND_Peripheral      0x00001757    0xe  Code  Lc  em_lcd.o [1]
BITBAND_Peripheral      0x00001999    0xe  Code  Lc  em_rtc.o [1]
BSP_LedClear            0x0000163d   0x28  Code  Gb  bsp_stk_leds.o [1]
BSP_LedSet              0x00001665   0x28  Code  Gb  bsp_stk_leds.o [1]
BSP_LedsInit            0x00001605   0x38  Code  Gb  bsp_stk_leds.o [1]
BSP_TraceProfilerSetup  0x000015c9   0x18  Code  Gb  bsp_trace.o [1]
BSP_TraceSwoSetup       0x00001511   0x80  Code  Gb  bsp_trace.o [1]
BusFault_Handler        0x00001c39         Code  Wk  startup_efm32tg.o [1]
CHIP_Init               0x00000ab9    0x2  Code  Lc  userpage.o [1]
CMU_AUXClkGet           0x00000149   0x64  Code  Lc  em_cmu.o [1]
CMU_ClockDivSet         0x00000259  0x158  Code  Gb  em_cmu.o [1]
CMU_ClockEnable         0x000003b1   0x86  Code  Gb  em_cmu.o [1]
CMU_ClockFreqGet        0x00000437  0x14c  Code  Gb  em_cmu.o [1]
CMU_ClockSelectGet      0x00000583   0xf2  Code  Gb  em_cmu.o [1]
CMU_ClockSelectSet      0x00000675  0x176  Code  Gb  em_cmu.o [1]
CMU_DBGClkGet           0x000001ad   0x30  Code  Lc  em_cmu.o [1]
CMU_DivToLog2           0x000000df    0xe  Code  Lc  em_cmu.o [1]
CMU_FlashWaitStateControl
                        0x000000ed   0x5c  Code  Lc  em_cmu.o [1]
CMU_FlashWaitStateMax   0x000000ab   0x34  Code  Lc  em_cmu.o [1]
CMU_IRQHandler          0x00001c99         Code  Wk  startup_efm32tg.o [1]
CMU_LCDClkFDIVSet       0x000007eb   0x1c  Code  Gb  em_cmu.o [1]
CMU_LFClkGet            0x000001dd   0x66  Code  Lc  em_cmu.o [1]
CMU_OscillatorEnable    0x00000807   0x9c  Code  Gb  em_cmu.o [1]
CMU_Sync                0x00000243   0x16  Code  Lc  em_cmu.o [1]
CSTACK$$Base            0x20000278          --   Gb  - Linker created -
CSTACK$$Limit           0x20000678          --   Gb  - Linker created -
DAC0_IRQHandler         0x00001c6d         Code  Wk  startup_efm32tg.o [1]
DMA_IRQHandler          0x00001c51         Code  Wk  startup_efm32tg.o [1]
DebugMon_Handler        0x00001c45         Code  Wk  startup_efm32tg.o [1]
EFM_Display             0x00001a0c  0x120  Data  Lc  segmentlcd.o [1]
EFM_Numbers             0x00001b58   0x24  Data  Lc  segmentlcd.o [1]
EM2Sleep                0x00000bd7   0x2e  Code  Gb  userpage.o [1]
EMU_EnterEM1            0x00000abb   0x10  Code  Lc  userpage.o [1]
EMU_UpdateOscConfig     0x00000a4d    0xa  Code  Gb  em_emu.o [1]
GPIO_EVEN_IRQHandler    0x00000b49   0x2a  Code  Gb  userpage.o [1]
GPIO_IntClear           0x00000acb    0x6  Code  Lc  userpage.o [1]
GPIO_IntConfig          0x00001103   0x90  Code  Gb  em_gpio.o [1]
GPIO_ODD_IRQHandler     0x00000aed   0x5c  Code  Gb  userpage.o [1]
GPIO_PinModeSet         0x00001193   0xcc  Code  Gb  em_gpio.o [1]
GPIO_PinOutClear        0x000015e1   0x12  Code  Lc  bsp_stk_leds.o [1]
GPIO_PinOutSet          0x000015f3   0x12  Code  Lc  bsp_stk_leds.o [1]
GetProdRev              0x00000931    0xa  Code  Lc  system_efm32tg.o [1]
HIJACK_CompareConfig    0x00000c05   0x4c  Code  Lc  userpage.o [1]
HardFault_Handler       0x00001c31         Code  Wk  startup_efm32tg.o [1]
I2C0_IRQHandler         0x00001c71         Code  Wk  startup_efm32tg.o [1]
LCD_Enable              0x0000172d   0x2a  Code  Lc  em_lcd.o [1]
LCD_FreezeEnable        0x00000e69   0x1a  Code  Lc  segmentlcd.o [1]
LCD_IRQHandler          0x00001ca1         Code  Wk  startup_efm32tg.o [1]
LCD_Init                0x00001765   0x38  Code  Gb  em_lcd.o [1]
LCD_IntDisable          0x00000e8f   0x10  Code  Lc  segmentlcd.o [1]
LCD_SegmentRangeEnable  0x000017bf   0x22  Code  Gb  em_lcd.o [1]
LCD_SegmentSet          0x000017e1   0xb6  Code  Gb  em_lcd.o [1]
LCD_SegmentSetLow       0x00001897   0xc2  Code  Gb  em_lcd.o [1]
LCD_SyncBusyDelay       0x00000e83    0xc  Code  Lc  segmentlcd.o [1]
LCD_VBoostSet           0x00001959   0x10  Code  Gb  em_lcd.o [1]
LCD_VLCDSelect          0x0000179d   0x22  Code  Gb  em_lcd.o [1]
LESENSE_IRQHandler      0x00001c85         Code  Wk  startup_efm32tg.o [1]
LETIMER0_IRQHandler     0x00001c8d         Code  Wk  startup_efm32tg.o [1]
LEUART0_IRQHandler      0x00001c89         Code  Wk  startup_efm32tg.o [1]
MSC_Deinit              0x00000df7   0x14  Code  Gb  em_msc.o [1]
MSC_IRQHandler          0x00001ca5         Code  Wk  startup_efm32tg.o [1]
MSC_Init                0x00000d81   0x76  Code  Gb  em_msc.o [1]
MSC_WriteWord           0x20000099   0xa0  Code  Gb  em_msc.o [1]
MemManage_Handler       0x00001c35         Code  Wk  startup_efm32tg.o [1]
MscLoadAddress          0x20000001   0x36  Code  Gb  em_msc.o [1]
MscLoadData             0x20000037   0x62  Code  Gb  em_msc.o [1]
NMI_Handler             0x00001c2d         Code  Wk  startup_efm32tg.o [1]
NVIC_ClearPendingIRQ    0x00001295   0x18  Code  Lc  rtcdrv.o [1]
NVIC_ClearPendingIRQ    0x00000a99   0x18  Code  Lc  userpage.o [1]
NVIC_DisableIRQ         0x00000a81   0x18  Code  Lc  userpage.o [1]
NVIC_EnableIRQ          0x0000127d   0x18  Code  Lc  rtcdrv.o [1]
NVIC_EnableIRQ          0x00000a69   0x18  Code  Lc  userpage.o [1]
PCNT0_IRQHandler        0x00001c91         Code  Wk  startup_efm32tg.o [1]
PendSV_Handler          0x00001c49         Code  Wk  startup_efm32tg.o [1]
RTCDRV_Setup            0x000012cb   0x64  Code  Gb  rtcdrv.o [1]
RTCDRV_Trigger          0x00001353   0x48  Code  Gb  rtcdrv.o [1]
RTC_CompareSet          0x000019a7   0x1c  Code  Gb  em_rtc.o [1]
RTC_Enable              0x000019c3   0x12  Code  Gb  em_rtc.o [1]
RTC_IRQHandler          0x0000132f   0x24  Code  Gb  rtcdrv.o [1]
RTC_Init                0x000019d5   0x2a  Code  Gb  em_rtc.o [1]
RTC_IntClear            0x000012ad    0x6  Code  Lc  rtcdrv.o [1]
RTC_IntDisable          0x000012b3    0xc  Code  Lc  rtcdrv.o [1]
RTC_IntEnable           0x000012bf    0xc  Code  Lc  rtcdrv.o [1]
RTC_TimeOutHandler      0x00000bcf    0x8  Code  Gb  userpage.o [1]
Region$$Table$$Base     0x00001b7c          --   Gb  - Linker created -
Region$$Table$$Limit    0x00001ba0          --   Gb  - Linker created -
Reset_Handler           0x00001bfd         Code  Wk  startup_efm32tg.o [1]
SVC_Handler             0x00001c41         Code  Wk  startup_efm32tg.o [1]
SegmentLCD_AllOff       0x00000feb   0x64  Code  Gb  segmentlcd.o [1]
SegmentLCD_Init         0x0000104f   0x70  Code  Gb  segmentlcd.o [1]
SegmentLCD_Number       0x00000e9f   0xe8  Code  Gb  segmentlcd.o [1]
SegmentLCD_NumberOff    0x00000f87   0x64  Code  Gb  segmentlcd.o [1]
SysTick_Handler         0x00001c4d         Code  Wk  startup_efm32tg.o [1]
SystemCoreClock         0x2000026c    0x4  Data  Gb  system_efm32tg.o [1]
SystemCoreClockGet      0x0000093b   0x1a  Code  Gb  system_efm32tg.o [1]
SystemCoreClockUpdate   0x00000ab1    0x8  Code  Lc  userpage.o [1]
SystemHFClockGet        0x00000955   0xa6  Code  Gb  system_efm32tg.o [1]
SystemHFXOClock         0x20000154    0x4  Data  Lc  system_efm32tg.o [1]
SystemInit              0x000009fb    0x2  Code  Gb  system_efm32tg.o [1]
SystemLFRCOClockGet     0x000009fd    0x6  Code  Gb  system_efm32tg.o [1]
SystemLFXOClock         0x20000158    0x4  Data  Lc  system_efm32tg.o [1]
SystemLFXOClockGet      0x00000a09    0x6  Code  Gb  system_efm32tg.o [1]
SystemULFRCOClockGet    0x00000a03    0x6  Code  Gb  system_efm32tg.o [1]
TIMER0_IRQHandler       0x00001c59         Code  Wk  startup_efm32tg.o [1]
TIMER1_IRQHandler       0x00000d0f   0x28  Code  Gb  userpage.o [1]
TIMER_CompareSet        0x00000ad1    0x8  Code  Lc  userpage.o [1]
TIMER_CounterSet        0x00000ad9    0x4  Code  Lc  userpage.o [1]
TIMER_Enable            0x000013c5   0x12  Code  Gb  em_timer.o [1]
TIMER_Init              0x000013d7   0xbc  Code  Gb  em_timer.o [1]
TIMER_InitCC            0x00001493   0x7e  Code  Gb  em_timer.o [1]
TIMER_IntClear          0x00000add    0x4  Code  Lc  userpage.o [1]
TIMER_IntEnable         0x00000ae1    0x8  Code  Lc  userpage.o [1]
TIMER_IntGet            0x00000ae9    0x4  Code  Lc  userpage.o [1]
USART0_RX_IRQHandler    0x00001c5d         Code  Wk  startup_efm32tg.o [1]
USART0_TX_IRQHandler    0x00001c61         Code  Wk  startup_efm32tg.o [1]
USART1_RX_IRQHandler    0x00001c7d         Code  Wk  startup_efm32tg.o [1]
USART1_TX_IRQHandler    0x00001c81         Code  Wk  startup_efm32tg.o [1]
UsageFault_Handler      0x00001c3d         Code  Wk  startup_efm32tg.o [1]
VCMP_IRQHandler         0x00001c9d         Code  Wk  startup_efm32tg.o [1]
__Vectors               0x00000000          --   Gb  startup_efm32tg.o [1]
__Vectors_End           0x0000009c         Data  Gb  startup_efm32tg.o [1]
__Vectors_Size {Abs}    0x0000009c          --   Gb  startup_efm32tg.o [1]
__aeabi_memset          0x0000169d         Code  Gb  ABImemset.o [4]
__cmain                 0x00001ba1         Code  Gb  cmain.o [4]
__exit                  0x00001bcd         Code  Gb  XXexit.o [4]
__iar_Memset            0x0000169d         Code  Gb  ABImemset.o [4]
__iar_Memset_word       0x000016a5         Code  Gb  ABImemset.o [4]
__iar_SB                0x00001cac         Data  Gb  bwt_init3c.o [4]
__iar_copy_init3        0x00000e3b   0x2e  Code  Gb  copy_init3.o [4]
__iar_data_init3        0x00001b2d   0x2c  Code  Gb  data_init3.o [4]
__iar_program_start     0x00001c19         Code  Gb  cstartup_M.o [4]
__iar_zero_init3        0x0000170b   0x22  Code  Gb  zero_init3.o [4]
__low_level_init        0x00001bb7    0x4  Code  Gb  low_level_init.o [3]
__vector_table          0x00000000         Data  Gb  startup_efm32tg.o [1]
__vector_table_0x1c     0x0000001c         Data  Gb  startup_efm32tg.o [1]
_call_main              0x00001bad         Code  Gb  cmain.o [4]
_exit                   0x00001bc1         Code  Gb  cexit.o [4]
_main                   0x00001bb3         Code  Gb  cmain.o [4]
abs                     0x00001703    0x8  Code  Gb  abs.o [3]
cmuStatus               0x20000270    0x2  Data  Lc  em_emu.o [1]
currentError            0x20000275    0x1  Data  Gb  userpage.o [1]
enc_init                0x00000c51   0x5a  Code  Gb  userpage.o [1]
exit                    0x00001bbb    0x4  Code  Gb  exit.o [3]
gpioSetup               0x00000b73   0x5c  Code  Gb  userpage.o [1]
lcdInit                 0x00001bd8   0x14  Data  Lc  segmentlcd.o [1]
ledArray                0x00001c24    0x8  Data  Lc  bsp_stk_leds.o [1]
main                    0x00000cab   0x64  Code  Gb  userpage.o [1]
memset                  0x00000e25   0x16  Code  Gb  userpage.o [1]
recentlySaved           0x20000274    0x1  Data  Gb  userpage.o [1]
rtcCb                   0x20000264    0x4  Data  Lc  rtcdrv.o [1]
rtcFlag                 0x20000273    0x1  Data  Gb  userpage.o [1]
rtcFreq                 0x20000268    0x4  Data  Lc  rtcdrv.o [1]
rtcInitialized          0x20000272    0x1  Data  Lc  rtcdrv.o [1]
signIndex               0x00001bbe    0x2  Data  Lc  segmentlcd.o [1]
userData                0x2000015c  0x108  Data  Gb  userpage.o [1]


[1] = D:\Firmware\my-project-hihack\trunk\ my-project-hihack --username kaiser.ren@gmail.com\energymicro\kits\EFM32TG_STK3300\examples\userpage\iar\userpage\Debug\Obj
[2] = command line
[3] = dl7M_tln.a
[4] = rt7M_tl.a

  6 922 bytes of readonly  code memory
    340 bytes of readwrite code memory
    766 bytes of readonly  data memory
  1 314 bytes of readwrite data memory

Errors: none
Warnings: none
