###############################################################################
#                                                                             #
# IAR ELF Linker V6.30.6.53336/W32 for ARM              17/Jan/2013  16:13:39 #
# Copyright 2007-2012 IAR Systems AB.                                         #
#                                                                             #
#    Output file  =  D:\Firmware\my-project-hihack\trunk\ my-project-hihack   #
#                    --username kaiser.ren@gmail.com\energymicro\kits\EFM32TG #
#                    _STK3300\examples\an0045_efm32_uart_rs-232\iar\uart_rs-2 #
#                    32\Debug\Exe\uart_rs-232.out                             #
#    Map file     =  D:\Firmware\my-project-hihack\trunk\ my-project-hihack   #
#                    --username kaiser.ren@gmail.com\energymicro\kits\EFM32TG #
#                    _STK3300\examples\an0045_efm32_uart_rs-232\iar\uart_rs-2 #
#                    32\Debug\List\uart_rs-232.map                            #
#    Command line =  "D:\Firmware\my-project-hihack\trunk\ my-project-hihack  #
#                    --username kaiser.ren@gmail.com\energymicro\kits\EFM32TG #
#                    _STK3300\examples\an0045_efm32_uart_rs-232\iar\uart_rs-2 #
#                    32\Debug\Obj\bsp_stk.o" "D:\Firmware\my-project-hihack\t #
#                    runk\ my-project-hihack --username                       #
#                    kaiser.ren@gmail.com\energymicro\kits\EFM32TG_STK3300\ex #
#                    amples\an0045_efm32_uart_rs-232\iar\uart_rs-232\Debug\Ob #
#                    j\bsp_stk_leds.o" "D:\Firmware\my-project-hihack\trunk\  #
#                    my-project-hihack --username                             #
#                    kaiser.ren@gmail.com\energymicro\kits\EFM32TG_STK3300\ex #
#                    amples\an0045_efm32_uart_rs-232\iar\uart_rs-232\Debug\Ob #
#                    j\bsp_trace.o" "D:\Firmware\my-project-hihack\trunk\     #
#                    my-project-hihack --username                             #
#                    kaiser.ren@gmail.com\energymicro\kits\EFM32TG_STK3300\ex #
#                    amples\an0045_efm32_uart_rs-232\iar\uart_rs-232\Debug\Ob #
#                    j\em_cmu.o" "D:\Firmware\my-project-hihack\trunk\        #
#                    my-project-hihack --username                             #
#                    kaiser.ren@gmail.com\energymicro\kits\EFM32TG_STK3300\ex #
#                    amples\an0045_efm32_uart_rs-232\iar\uart_rs-232\Debug\Ob #
#                    j\em_ebi.o" "D:\Firmware\my-project-hihack\trunk\        #
#                    my-project-hihack --username                             #
#                    kaiser.ren@gmail.com\energymicro\kits\EFM32TG_STK3300\ex #
#                    amples\an0045_efm32_uart_rs-232\iar\uart_rs-232\Debug\Ob #
#                    j\em_emu.o" "D:\Firmware\my-project-hihack\trunk\        #
#                    my-project-hihack --username                             #
#                    kaiser.ren@gmail.com\energymicro\kits\EFM32TG_STK3300\ex #
#                    amples\an0045_efm32_uart_rs-232\iar\uart_rs-232\Debug\Ob #
#                    j\em_gpio.o" "D:\Firmware\my-project-hihack\trunk\       #
#                    my-project-hihack --username                             #
#                    kaiser.ren@gmail.com\energymicro\kits\EFM32TG_STK3300\ex #
#                    amples\an0045_efm32_uart_rs-232\iar\uart_rs-232\Debug\Ob #
#                    j\em_system.o" "D:\Firmware\my-project-hihack\trunk\     #
#                    my-project-hihack --username                             #
#                    kaiser.ren@gmail.com\energymicro\kits\EFM32TG_STK3300\ex #
#                    amples\an0045_efm32_uart_rs-232\iar\uart_rs-232\Debug\Ob #
#                    j\em_usart.o" "D:\Firmware\my-project-hihack\trunk\      #
#                    my-project-hihack --username                             #
#                    kaiser.ren@gmail.com\energymicro\kits\EFM32TG_STK3300\ex #
#                    amples\an0045_efm32_uart_rs-232\iar\uart_rs-232\Debug\Ob #
#                    j\main.o" "D:\Firmware\my-project-hihack\trunk\          #
#                    my-project-hihack --username                             #
#                    kaiser.ren@gmail.com\energymicro\kits\EFM32TG_STK3300\ex #
#                    amples\an0045_efm32_uart_rs-232\iar\uart_rs-232\Debug\Ob #
#                    j\startup_efm32tg.o" "D:\Firmware\my-project-hihack\trun #
#                    k\ my-project-hihack --username                          #
#                    kaiser.ren@gmail.com\energymicro\kits\EFM32TG_STK3300\ex #
#                    amples\an0045_efm32_uart_rs-232\iar\uart_rs-232\Debug\Ob #
#                    j\system_efm32tg.o" --redirect _Printf=_PrintfFull       #
#                    --redirect _Scanf=_ScanfFull -o                          #
#                    "D:\Firmware\my-project-hihack\trunk\ my-project-hihack  #
#                    --username kaiser.ren@gmail.com\energymicro\kits\EFM32TG #
#                    _STK3300\examples\an0045_efm32_uart_rs-232\iar\uart_rs-2 #
#                    32\Debug\Exe\uart_rs-232.out" --map                      #
#                    "D:\Firmware\my-project-hihack\trunk\ my-project-hihack  #
#                    --username kaiser.ren@gmail.com\energymicro\kits\EFM32TG #
#                    _STK3300\examples\an0045_efm32_uart_rs-232\iar\uart_rs-2 #
#                    32\Debug\List\uart_rs-232.map" --config "D:\Program      #
#                    Files\IAR Systems\Embedded Workbench                     #
#                    6.0_3\arm\config\linker\EnergyMicro\EFM32GG990F1024.icf" #
#                     --entry __iar_program_start --vfe                       #
#                                                                             #
#                                                                             #
###############################################################################

*******************************************************************************
*** RUNTIME MODEL ATTRIBUTES
***

CppFlavor       = *
__SystemLibrary = DLib


*******************************************************************************
*** PLACEMENT SUMMARY
***

"A1":  place at 0x00000000 { ro section .intvec };
"P1":  place in [from 0x00000000 to 0x000fffff] { ro };
"P2":  place in [from 0x20000000 to 0x2001ffff] { rw, block CSTACK, block HEAP };

  Section            Kind        Address   Size  Object
  -------            ----        -------   ----  ------
"A1":                                      0x9c
  .intvec            ro code  0x00000000   0x9c  startup_efm32tg.o [1]
                            - 0x0000009c   0x9c

"P1":                                     0xd88
  .text              ro code  0x0000009c  0x448  em_cmu.o [1]
  .text              ro code  0x000004e4  0x11c  system_efm32tg.o [1]
  .text              ro code  0x00000600  0x394  main.o [1]
  .text              ro code  0x00000994   0x78  bsp_stk.o [1]
  .text              ro code  0x00000a0c   0xd4  em_gpio.o [1]
  .text              ro code  0x00000ae0  0x14c  em_usart.o [1]
  .text              ro code  0x00000c2c   0x2e  copy_init3.o [4]
  .text              ro code  0x00000c5a   0x22  zero_init3.o [4]
  .rodata            const    0x00000c7c   0x2c  main.o [1]
  .text              ro code  0x00000ca8   0x2c  data_init3.o [4]
  .iar.init_table    const    0x00000cd4   0x24  - Linker created -
  .text              ro code  0x00000cf8   0x16  cmain.o [4]
  .text              ro code  0x00000d0e    0x4  low_level_init.o [3]
  .text              ro code  0x00000d12    0x4  exit.o [3]
  .text              ro code  0x00000d18    0xa  cexit.o [4]
  .text              ro code  0x00000d24    0xc  XXexit.o [4]
  .rodata            const    0x00000d30   0x14  main.o [1]
  .text              ro code  0x00000d44   0x10  startup_efm32tg.o [1]
  .text              ro code  0x00000d54    0xc  cstartup_M.o [4]
  .rodata            const    0x00000d60    0x4  main.o [1]
  .rodata            const    0x00000d64    0x4  main.o [1]
  .text              ro code  0x00000d68    0x4  startup_efm32tg.o [1]
  .text              ro code  0x00000d6c    0x4  startup_efm32tg.o [1]
  .text              ro code  0x00000d70    0x4  startup_efm32tg.o [1]
  .text              ro code  0x00000d74    0x4  startup_efm32tg.o [1]
  .text              ro code  0x00000d78    0x4  startup_efm32tg.o [1]
  .text              ro code  0x00000d7c    0x4  startup_efm32tg.o [1]
  .text              ro code  0x00000d80    0x4  startup_efm32tg.o [1]
  .text              ro code  0x00000d84    0x4  startup_efm32tg.o [1]
  .text              ro code  0x00000d88    0x4  startup_efm32tg.o [1]
  .text              ro code  0x00000d8c    0x4  startup_efm32tg.o [1]
  .text              ro code  0x00000d90    0x4  startup_efm32tg.o [1]
  .text              ro code  0x00000d94    0x4  startup_efm32tg.o [1]
  .text              ro code  0x00000d98    0x4  startup_efm32tg.o [1]
  .text              ro code  0x00000d9c    0x4  startup_efm32tg.o [1]
  .text              ro code  0x00000da0    0x4  startup_efm32tg.o [1]
  .text              ro code  0x00000da4    0x4  startup_efm32tg.o [1]
  .text              ro code  0x00000da8    0x4  startup_efm32tg.o [1]
  .text              ro code  0x00000dac    0x4  startup_efm32tg.o [1]
  .text              ro code  0x00000db0    0x4  startup_efm32tg.o [1]
  .text              ro code  0x00000db4    0x4  startup_efm32tg.o [1]
  .text              ro code  0x00000db8    0x4  startup_efm32tg.o [1]
  .text              ro code  0x00000dbc    0x4  startup_efm32tg.o [1]
  .text              ro code  0x00000dc0    0x4  startup_efm32tg.o [1]
  .text              ro code  0x00000dc4    0x4  startup_efm32tg.o [1]
  .text              ro code  0x00000dc8    0x4  startup_efm32tg.o [1]
  .text              ro code  0x00000dcc    0x4  startup_efm32tg.o [1]
  .text              ro code  0x00000dd0    0x4  startup_efm32tg.o [1]
  .text              ro code  0x00000dd4    0x4  startup_efm32tg.o [1]
  .text              ro code  0x00000dd8    0x4  startup_efm32tg.o [1]
  .text              ro code  0x00000ddc    0x4  startup_efm32tg.o [1]
  .text              ro code  0x00000de0    0x4  startup_efm32tg.o [1]
  .text              ro code  0x00000de4    0x4  startup_efm32tg.o [1]
  .rodata            const    0x00000de8    0x0  bwt_init3c.o [4]
  Initializer bytes  ro data  0x00000de8   0x3c  <for P2 s0>
                            - 0x00000e24  0xd88

"P2", part 1 of 3:                         0x3c
  P2 s0                       0x20000000   0x3c  <Init block>
    .data            inited   0x20000000   0x18  bsp_stk.o [1]
    .data            inited   0x20000018   0x18  main.o [1]
    .data            inited   0x20000030    0x4  main.o [1]
    .data            inited   0x20000034    0x4  system_efm32tg.o [1]
    .data            inited   0x20000038    0x4  system_efm32tg.o [1]
                            - 0x2000003c   0x3c

"P2", part 2 of 3:                        0x224
  .bss               zero     0x2000003c  0x110  main.o [1]
  .bss               zero     0x2000014c  0x110  main.o [1]
  .bss               zero     0x2000025c    0x4  system_efm32tg.o [1]
                            - 0x20000260  0x224

"P2", part 3 of 3:                        0x400
  CSTACK                      0x20000260  0x400  <Block>
    CSTACK           uninit   0x20000260  0x400  <Block tail>
                            - 0x20000660  0x400


*******************************************************************************
*** INIT TABLE
***

          Address     Size
          -------     ----
Zero (__iar_zero_init3)
    1 destination range, total size 0x224:
          0x2000003c  0x224

Copy (__iar_copy_init3)
    1 source range, total size 0x3c:
          0x00000de8   0x3c
    1 destination range, total size 0x3c:
          0x20000000   0x3c



*******************************************************************************
*** MODULE SUMMARY
***

    Module             ro code  ro data  rw data
    ------             -------  -------  -------
D:\Firmware\my-project-hihack\trunk\ my-project-hihack --username kaiser.ren@gmail.com\energymicro\kits\EFM32TG_STK3300\examples\an0045_efm32_uart_rs-232\iar\uart_rs-232\Debug\Obj: [1]
    bsp_stk.o              120       24       24
    em_cmu.o             1 096
    em_gpio.o              212
    em_usart.o             332
    main.o                 916      100      572
    startup_efm32tg.o      300
    system_efm32tg.o       284        8       12
    --------------------------------------------
    Total:               3 260      132      608

command line: [2]
    --------------------------------------------
    Total:

dl7M_tln.a: [3]
    exit.o                   4
    low_level_init.o         4
    --------------------------------------------
    Total:                   8

rt7M_tl.a: [4]
    XXexit.o                12
    bwt_init3c.o
    cexit.o                 10
    cmain.o                 22
    copy_init3.o            46
    cstartup_M.o            12
    data_init3.o            44
    zero_init3.o            34
    --------------------------------------------
    Total:                 180

    Gaps                     4
    Linker created                   36    1 024
------------------------------------------------
    Grand Total:         3 452      168    1 632


*******************************************************************************
*** ENTRY LIST
***

Entry                      Address   Size  Type      Object
-----                      -------   ----  ----      ------
?main                   0x00000cf9         Code  Gb  cmain.o [4]
ACMP0_IRQHandler        0x00000da1         Code  Wk  startup_efm32tg.o [1]
ADC0_IRQHandler         0x00000da5         Code  Wk  startup_efm32tg.o [1]
AES_IRQHandler          0x00000de5         Code  Wk  startup_efm32tg.o [1]
BITBAND_Peripheral      0x0000009d    0xe  Code  Lc  em_cmu.o [1]
BSP_Disable             0x00000995    0x6  Code  Gb  bsp_stk.o [1]
BSP_Init                0x0000099b   0x5a  Code  Gb  bsp_stk.o [1]
BusFault_Handler        0x00000d75         Code  Wk  startup_efm32tg.o [1]
CHIP_Init               0x00000635    0x2  Code  Lc  main.o [1]
CMU_AUXClkGet           0x000000b9   0x64  Code  Lc  em_cmu.o [1]
CMU_ClockEnable         0x000001c9   0x86  Code  Gb  em_cmu.o [1]
CMU_ClockFreqGet        0x0000024f  0x14c  Code  Gb  em_cmu.o [1]
CMU_ClockSelectGet      0x0000039b   0xf2  Code  Gb  em_cmu.o [1]
CMU_DBGClkGet           0x0000011d   0x30  Code  Lc  em_cmu.o [1]
CMU_DivToLog2           0x000000ab    0xe  Code  Lc  em_cmu.o [1]
CMU_IRQHandler          0x00000dd5         Code  Wk  startup_efm32tg.o [1]
CMU_LFClkGet            0x0000014d   0x66  Code  Lc  em_cmu.o [1]
CMU_Sync                0x000001b3   0x16  Code  Lc  em_cmu.o [1]
CSTACK$$Base            0x20000260          --   Gb  - Linker created -
CSTACK$$Limit           0x20000660          --   Gb  - Linker created -
DAC0_IRQHandler         0x00000da9         Code  Wk  startup_efm32tg.o [1]
DMA_IRQHandler          0x00000d8d         Code  Wk  startup_efm32tg.o [1]
DebugMon_Handler        0x00000d81         Code  Wk  startup_efm32tg.o [1]
EMU_EnterEM1            0x00000637   0x14  Code  Lc  main.o [1]
GPIO_EVEN_IRQHandler    0x00000d91         Code  Wk  startup_efm32tg.o [1]
GPIO_ODD_IRQHandler     0x00000db1         Code  Wk  startup_efm32tg.o [1]
GPIO_PinModeSet         0x00000a0d   0xcc  Code  Gb  em_gpio.o [1]
GetProdRev              0x000004e5    0xa  Code  Lc  system_efm32tg.o [1]
HardFault_Handler       0x00000d6d         Code  Wk  startup_efm32tg.o [1]
I2C0_IRQHandler         0x00000dad         Code  Wk  startup_efm32tg.o [1]
LCD_IRQHandler          0x00000ddd         Code  Wk  startup_efm32tg.o [1]
LESENSE_IRQHandler      0x00000dc1         Code  Wk  startup_efm32tg.o [1]
LETIMER0_IRQHandler     0x00000dc9         Code  Wk  startup_efm32tg.o [1]
LEUART0_IRQHandler      0x00000dc5         Code  Wk  startup_efm32tg.o [1]
MSC_IRQHandler          0x00000de1         Code  Wk  startup_efm32tg.o [1]
MemManage_Handler       0x00000d71         Code  Wk  startup_efm32tg.o [1]
NMI_Handler             0x00000d69         Code  Wk  startup_efm32tg.o [1]
NVIC_ClearPendingIRQ    0x0000061b   0x1a  Code  Lc  main.o [1]
NVIC_EnableIRQ          0x00000601   0x1a  Code  Lc  main.o [1]
PCNT0_IRQHandler        0x00000dcd         Code  Wk  startup_efm32tg.o [1]
PendSV_Handler          0x00000d85         Code  Wk  startup_efm32tg.o [1]
RTC_IRQHandler          0x00000dd1         Code  Wk  startup_efm32tg.o [1]
Region$$Table$$Base     0x00000cd4          --   Gb  - Linker created -
Region$$Table$$Limit    0x00000cf8          --   Gb  - Linker created -
Reset_Handler           0x00000d45         Code  Wk  startup_efm32tg.o [1]
SVC_Handler             0x00000d7d         Code  Wk  startup_efm32tg.o [1]
SysTick_Handler         0x00000d89         Code  Wk  startup_efm32tg.o [1]
SystemCoreClock         0x2000025c    0x4  Data  Gb  system_efm32tg.o [1]
SystemCoreClockGet      0x000004ef   0x1a  Code  Gb  system_efm32tg.o [1]
SystemHFClockGet        0x00000509   0xa6  Code  Gb  system_efm32tg.o [1]
SystemHFXOClock         0x20000034    0x4  Data  Lc  system_efm32tg.o [1]
SystemInit              0x000005af    0x2  Code  Gb  system_efm32tg.o [1]
SystemLFRCOClockGet     0x000005b1    0x6  Code  Gb  system_efm32tg.o [1]
SystemLFXOClock         0x20000038    0x4  Data  Lc  system_efm32tg.o [1]
SystemLFXOClockGet      0x000005bd    0x6  Code  Gb  system_efm32tg.o [1]
SystemULFRCOClockGet    0x000005b7    0x6  Code  Gb  system_efm32tg.o [1]
TIMER0_IRQHandler       0x00000d95         Code  Wk  startup_efm32tg.o [1]
TIMER1_IRQHandler       0x00000db5         Code  Wk  startup_efm32tg.o [1]
USART0_RX_IRQHandler    0x00000d99         Code  Wk  startup_efm32tg.o [1]
USART0_TX_IRQHandler    0x00000d9d         Code  Wk  startup_efm32tg.o [1]
USART1_RX_IRQHandler    0x00000885   0x66  Code  Gb  main.o [1]
USART1_TX_IRQHandler    0x000008eb   0x6c  Code  Gb  main.o [1]
USART_BaudrateAsyncSet  0x00000ae1   0x84  Code  Gb  em_usart.o [1]
USART_Enable            0x00000b65   0x14  Code  Gb  em_usart.o [1]
USART_InitAsync         0x00000b79   0x4a  Code  Gb  em_usart.o [1]
USART_IntClear          0x0000064b    0x4  Code  Lc  main.o [1]
USART_IntDisable        0x0000064f    0x8  Code  Lc  main.o [1]
USART_IntEnable         0x00000657    0x8  Code  Lc  main.o [1]
USART_IntGet            0x0000065f    0x4  Code  Lc  main.o [1]
USART_Reset             0x00000bc3   0x40  Code  Gb  em_usart.o [1]
USART_Rx                0x00000c15    0xc  Code  Gb  em_usart.o [1]
USART_Tx                0x00000c21    0xc  Code  Gb  em_usart.o [1]
UsageFault_Handler      0x00000d79         Code  Wk  startup_efm32tg.o [1]
VCMP_IRQHandler         0x00000dd9         Code  Wk  startup_efm32tg.o [1]
__Vectors               0x00000000          --   Gb  startup_efm32tg.o [1]
__Vectors_End           0x0000009c         Data  Gb  startup_efm32tg.o [1]
__Vectors_Size {Abs}    0x0000009c          --   Gb  startup_efm32tg.o [1]
__cmain                 0x00000cf9         Code  Gb  cmain.o [4]
__exit                  0x00000d25         Code  Gb  XXexit.o [4]
__iar_SB                0x00000de8         Data  Gb  bwt_init3c.o [4]
__iar_copy_init3        0x00000c2d   0x2e  Code  Gb  copy_init3.o [4]
__iar_data_init3        0x00000ca9   0x2c  Code  Gb  data_init3.o [4]
__iar_program_start     0x00000d55         Code  Gb  cstartup_M.o [4]
__iar_zero_init3        0x00000c5b   0x22  Code  Gb  zero_init3.o [4]
__low_level_init        0x00000d0f    0x4  Code  Gb  low_level_init.o [3]
__vector_table          0x00000000         Data  Gb  startup_efm32tg.o [1]
__vector_table_0x1c     0x0000001c         Data  Gb  startup_efm32tg.o [1]
_call_main              0x00000d05         Code  Gb  cmain.o [4]
_exit                   0x00000d19         Code  Gb  cexit.o [4]
_main                   0x00000d0b         Code  Gb  cmain.o [4]
cmuSetup                0x00000871   0x14  Code  Gb  main.o [1]
exit                    0x00000d13    0x4  Code  Gb  exit.o [3]
main                    0x00000663   0x84  Code  Gb  main.o [1]
ofsLen                  0x00000d64    0x4  Data  Gb  main.o [1]
overflowString          0x00000d30   0x14  Data  Gb  main.o [1]
rxBuf                   0x2000003c  0x110  Data  Gb  main.o [1]
txBuf                   0x2000014c  0x110  Data  Gb  main.o [1]
uart                    0x20000030    0x4  Data  Lc  main.o [1]
uartGetData             0x0000080b   0x66  Code  Gb  main.o [1]
uartInit                0x20000018   0x18  Data  Lc  main.o [1]
uartPutData             0x00000799   0x72  Code  Gb  main.o [1]
uartSetup               0x000006e7   0xb2  Code  Gb  main.o [1]
usartInit               0x20000000   0x18  Data  Lc  bsp_stk.o [1]
welLen                  0x00000d60    0x4  Data  Gb  main.o [1]
welcomeString           0x00000c7c   0x2c  Data  Gb  main.o [1]


[1] = D:\Firmware\my-project-hihack\trunk\ my-project-hihack --username kaiser.ren@gmail.com\energymicro\kits\EFM32TG_STK3300\examples\an0045_efm32_uart_rs-232\iar\uart_rs-232\Debug\Obj
[2] = command line
[3] = dl7M_tln.a
[4] = rt7M_tl.a

  3 452 bytes of readonly  code memory
    168 bytes of readonly  data memory
  1 632 bytes of readwrite data memory

Errors: none
Warnings: none
