###############################################################################
#                                                                             #
# IAR ELF Linker V6.30.6.53336/W32 for ARM              17/Jan/2013  15:20:10 #
# Copyright 2007-2012 IAR Systems AB.                                         #
#                                                                             #
#    Output file  =  D:\Firmware\my-project-hihack\trunk\ my-project-hihack   #
#                    --username kaiser.ren@gmail.com\energymicro\kits\EFM32TG #
#                    _STK3300\examples\an0045_efm32_uart_rs-232\iar\uart_rs-2 #
#                    32\Debug\Exe\uart_rs-232.out                             #
#    Map file     =  D:\Firmware\my-project-hihack\trunk\ my-project-hihack   #
#                    --username kaiser.ren@gmail.com\energymicro\kits\EFM32TG #
#                    _STK3300\examples\an0045_efm32_uart_rs-232\iar\uart_rs-2 #
#                    32\Debug\List\uart_rs-232.map                            #
#    Command line =  "D:\Firmware\my-project-hihack\trunk\ my-project-hihack  #
#                    --username kaiser.ren@gmail.com\energymicro\kits\EFM32TG #
#                    _STK3300\examples\an0045_efm32_uart_rs-232\iar\uart_rs-2 #
#                    32\Debug\Obj\bsp_stk.o" "D:\Firmware\my-project-hihack\t #
#                    runk\ my-project-hihack --username                       #
#                    kaiser.ren@gmail.com\energymicro\kits\EFM32TG_STK3300\ex #
#                    amples\an0045_efm32_uart_rs-232\iar\uart_rs-232\Debug\Ob #
#                    j\bsp_stk_leds.o" "D:\Firmware\my-project-hihack\trunk\  #
#                    my-project-hihack --username                             #
#                    kaiser.ren@gmail.com\energymicro\kits\EFM32TG_STK3300\ex #
#                    amples\an0045_efm32_uart_rs-232\iar\uart_rs-232\Debug\Ob #
#                    j\bsp_trace.o" "D:\Firmware\my-project-hihack\trunk\     #
#                    my-project-hihack --username                             #
#                    kaiser.ren@gmail.com\energymicro\kits\EFM32TG_STK3300\ex #
#                    amples\an0045_efm32_uart_rs-232\iar\uart_rs-232\Debug\Ob #
#                    j\em_cmu.o" "D:\Firmware\my-project-hihack\trunk\        #
#                    my-project-hihack --username                             #
#                    kaiser.ren@gmail.com\energymicro\kits\EFM32TG_STK3300\ex #
#                    amples\an0045_efm32_uart_rs-232\iar\uart_rs-232\Debug\Ob #
#                    j\em_ebi.o" "D:\Firmware\my-project-hihack\trunk\        #
#                    my-project-hihack --username                             #
#                    kaiser.ren@gmail.com\energymicro\kits\EFM32TG_STK3300\ex #
#                    amples\an0045_efm32_uart_rs-232\iar\uart_rs-232\Debug\Ob #
#                    j\em_emu.o" "D:\Firmware\my-project-hihack\trunk\        #
#                    my-project-hihack --username                             #
#                    kaiser.ren@gmail.com\energymicro\kits\EFM32TG_STK3300\ex #
#                    amples\an0045_efm32_uart_rs-232\iar\uart_rs-232\Debug\Ob #
#                    j\em_gpio.o" "D:\Firmware\my-project-hihack\trunk\       #
#                    my-project-hihack --username                             #
#                    kaiser.ren@gmail.com\energymicro\kits\EFM32TG_STK3300\ex #
#                    amples\an0045_efm32_uart_rs-232\iar\uart_rs-232\Debug\Ob #
#                    j\em_system.o" "D:\Firmware\my-project-hihack\trunk\     #
#                    my-project-hihack --username                             #
#                    kaiser.ren@gmail.com\energymicro\kits\EFM32TG_STK3300\ex #
#                    amples\an0045_efm32_uart_rs-232\iar\uart_rs-232\Debug\Ob #
#                    j\em_usart.o" "D:\Firmware\my-project-hihack\trunk\      #
#                    my-project-hihack --username                             #
#                    kaiser.ren@gmail.com\energymicro\kits\EFM32TG_STK3300\ex #
#                    amples\an0045_efm32_uart_rs-232\iar\uart_rs-232\Debug\Ob #
#                    j\main.o" "D:\Firmware\my-project-hihack\trunk\          #
#                    my-project-hihack --username                             #
#                    kaiser.ren@gmail.com\energymicro\kits\EFM32TG_STK3300\ex #
#                    amples\an0045_efm32_uart_rs-232\iar\uart_rs-232\Debug\Ob #
#                    j\startup_efm32tg.o" "D:\Firmware\my-project-hihack\trun #
#                    k\ my-project-hihack --username                          #
#                    kaiser.ren@gmail.com\energymicro\kits\EFM32TG_STK3300\ex #
#                    amples\an0045_efm32_uart_rs-232\iar\uart_rs-232\Debug\Ob #
#                    j\system_efm32tg.o" --redirect _Printf=_PrintfFull       #
#                    --redirect _Scanf=_ScanfFull -o                          #
#                    "D:\Firmware\my-project-hihack\trunk\ my-project-hihack  #
#                    --username kaiser.ren@gmail.com\energymicro\kits\EFM32TG #
#                    _STK3300\examples\an0045_efm32_uart_rs-232\iar\uart_rs-2 #
#                    32\Debug\Exe\uart_rs-232.out" --map                      #
#                    "D:\Firmware\my-project-hihack\trunk\ my-project-hihack  #
#                    --username kaiser.ren@gmail.com\energymicro\kits\EFM32TG #
#                    _STK3300\examples\an0045_efm32_uart_rs-232\iar\uart_rs-2 #
#                    32\Debug\List\uart_rs-232.map" --config "D:\Program      #
#                    Files\IAR Systems\Embedded Workbench                     #
#                    6.0_3\arm\config\linker\EnergyMicro\EFM32GG990F1024.icf" #
#                     --entry __iar_program_start --vfe                       #
#                                                                             #
#                                                                             #
###############################################################################

*******************************************************************************
*** RUNTIME MODEL ATTRIBUTES
***

CppFlavor       = *
__SystemLibrary = DLib


*******************************************************************************
*** PLACEMENT SUMMARY
***

"A1":  place at 0x00000000 { ro section .intvec };
"P1":  place in [from 0x00000000 to 0x000fffff] { ro };
"P2":  place in [from 0x20000000 to 0x2001ffff] { rw, block CSTACK, block HEAP };

  Section            Kind        Address   Size  Object
  -------            ----        -------   ----  ------
"A1":                                      0x9c
  .intvec            ro code  0x00000000   0x9c  startup_efm32tg.o [1]
                            - 0x0000009c   0x9c

"P1":                                     0xc8c
  .text              ro code  0x0000009c  0x448  em_cmu.o [1]
  .text              ro code  0x000004e4  0x11c  system_efm32tg.o [1]
  .text              ro code  0x00000600  0x2b0  main.o [1]
  .text              ro code  0x000008b0   0x78  bsp_stk.o [1]
  .text              ro code  0x00000928   0xd4  em_gpio.o [1]
  .text              ro code  0x000009fc  0x134  em_usart.o [1]
  .text              ro code  0x00000b30   0x2e  copy_init3.o [4]
  .text              ro code  0x00000b5e   0x22  zero_init3.o [4]
  .rodata            const    0x00000b80   0x2c  main.o [1]
  .text              ro code  0x00000bac   0x2c  data_init3.o [4]
  .iar.init_table    const    0x00000bd8   0x24  - Linker created -
  .text              ro code  0x00000bfc   0x16  cmain.o [4]
  .text              ro code  0x00000c12    0x4  low_level_init.o [3]
  .text              ro code  0x00000c16    0x4  exit.o [3]
  .text              ro code  0x00000c1c    0xa  cexit.o [4]
  .text              ro code  0x00000c28    0xc  XXexit.o [4]
  .rodata            const    0x00000c34   0x14  main.o [1]
  .text              ro code  0x00000c48   0x10  startup_efm32tg.o [1]
  .text              ro code  0x00000c58    0xc  cstartup_M.o [4]
  .rodata            const    0x00000c64    0x4  main.o [1]
  .rodata            const    0x00000c68    0x4  main.o [1]
  .text              ro code  0x00000c6c    0x4  startup_efm32tg.o [1]
  .text              ro code  0x00000c70    0x4  startup_efm32tg.o [1]
  .text              ro code  0x00000c74    0x4  startup_efm32tg.o [1]
  .text              ro code  0x00000c78    0x4  startup_efm32tg.o [1]
  .text              ro code  0x00000c7c    0x4  startup_efm32tg.o [1]
  .text              ro code  0x00000c80    0x4  startup_efm32tg.o [1]
  .text              ro code  0x00000c84    0x4  startup_efm32tg.o [1]
  .text              ro code  0x00000c88    0x4  startup_efm32tg.o [1]
  .text              ro code  0x00000c8c    0x4  startup_efm32tg.o [1]
  .text              ro code  0x00000c90    0x4  startup_efm32tg.o [1]
  .text              ro code  0x00000c94    0x4  startup_efm32tg.o [1]
  .text              ro code  0x00000c98    0x4  startup_efm32tg.o [1]
  .text              ro code  0x00000c9c    0x4  startup_efm32tg.o [1]
  .text              ro code  0x00000ca0    0x4  startup_efm32tg.o [1]
  .text              ro code  0x00000ca4    0x4  startup_efm32tg.o [1]
  .text              ro code  0x00000ca8    0x4  startup_efm32tg.o [1]
  .text              ro code  0x00000cac    0x4  startup_efm32tg.o [1]
  .text              ro code  0x00000cb0    0x4  startup_efm32tg.o [1]
  .text              ro code  0x00000cb4    0x4  startup_efm32tg.o [1]
  .text              ro code  0x00000cb8    0x4  startup_efm32tg.o [1]
  .text              ro code  0x00000cbc    0x4  startup_efm32tg.o [1]
  .text              ro code  0x00000cc0    0x4  startup_efm32tg.o [1]
  .text              ro code  0x00000cc4    0x4  startup_efm32tg.o [1]
  .text              ro code  0x00000cc8    0x4  startup_efm32tg.o [1]
  .text              ro code  0x00000ccc    0x4  startup_efm32tg.o [1]
  .text              ro code  0x00000cd0    0x4  startup_efm32tg.o [1]
  .text              ro code  0x00000cd4    0x4  startup_efm32tg.o [1]
  .text              ro code  0x00000cd8    0x4  startup_efm32tg.o [1]
  .text              ro code  0x00000cdc    0x4  startup_efm32tg.o [1]
  .text              ro code  0x00000ce0    0x4  startup_efm32tg.o [1]
  .text              ro code  0x00000ce4    0x4  startup_efm32tg.o [1]
  .text              ro code  0x00000ce8    0x4  startup_efm32tg.o [1]
  .rodata            const    0x00000cec    0x0  bwt_init3c.o [4]
  Initializer bytes  ro data  0x00000cec   0x3c  <for P2 s0>
                            - 0x00000d28  0xc8c

"P2", part 1 of 3:                         0x3c
  P2 s0                       0x20000000   0x3c  <Init block>
    .data            inited   0x20000000   0x18  bsp_stk.o [1]
    .data            inited   0x20000018   0x18  main.o [1]
    .data            inited   0x20000030    0x4  main.o [1]
    .data            inited   0x20000034    0x4  system_efm32tg.o [1]
    .data            inited   0x20000038    0x4  system_efm32tg.o [1]
                            - 0x2000003c   0x3c

"P2", part 2 of 3:                        0x224
  .bss               zero     0x2000003c  0x110  main.o [1]
  .bss               zero     0x2000014c  0x110  main.o [1]
  .bss               zero     0x2000025c    0x4  system_efm32tg.o [1]
                            - 0x20000260  0x224

"P2", part 3 of 3:                        0x400
  CSTACK                      0x20000260  0x400  <Block>
    CSTACK           uninit   0x20000260  0x400  <Block tail>
                            - 0x20000660  0x400


*******************************************************************************
*** INIT TABLE
***

          Address     Size
          -------     ----
Zero (__iar_zero_init3)
    1 destination range, total size 0x224:
          0x2000003c  0x224

Copy (__iar_copy_init3)
    1 source range, total size 0x3c:
          0x00000cec   0x3c
    1 destination range, total size 0x3c:
          0x20000000   0x3c



*******************************************************************************
*** MODULE SUMMARY
***

    Module             ro code  ro data  rw data
    ------             -------  -------  -------
D:\Firmware\my-project-hihack\trunk\ my-project-hihack --username kaiser.ren@gmail.com\energymicro\kits\EFM32TG_STK3300\examples\an0045_efm32_uart_rs-232\iar\uart_rs-232\Debug\Obj: [1]
    bsp_stk.o              120       24       24
    em_cmu.o             1 096
    em_gpio.o              212
    em_usart.o             308
    main.o                 688      100      572
    startup_efm32tg.o      300
    system_efm32tg.o       284        8       12
    --------------------------------------------
    Total:               3 008      132      608

command line: [2]
    --------------------------------------------
    Total:

dl7M_tln.a: [3]
    exit.o                   4
    low_level_init.o         4
    --------------------------------------------
    Total:                   8

rt7M_tl.a: [4]
    XXexit.o                12
    bwt_init3c.o
    cexit.o                 10
    cmain.o                 22
    copy_init3.o            46
    cstartup_M.o            12
    data_init3.o            44
    zero_init3.o            34
    --------------------------------------------
    Total:                 180

    Gaps                     4
    Linker created                   36    1 024
------------------------------------------------
    Grand Total:         3 200      168    1 632


*******************************************************************************
*** ENTRY LIST
***

Entry                      Address   Size  Type      Object
-----                      -------   ----  ----      ------
?main                   0x00000bfd         Code  Gb  cmain.o [4]
ACMP0_IRQHandler        0x00000ca5         Code  Wk  startup_efm32tg.o [1]
ADC0_IRQHandler         0x00000ca9         Code  Wk  startup_efm32tg.o [1]
AES_IRQHandler          0x00000ce9         Code  Wk  startup_efm32tg.o [1]
BITBAND_Peripheral      0x0000009d    0xe  Code  Lc  em_cmu.o [1]
BSP_Disable             0x000008b1    0x6  Code  Gb  bsp_stk.o [1]
BSP_Init                0x000008b7   0x5a  Code  Gb  bsp_stk.o [1]
BusFault_Handler        0x00000c79         Code  Wk  startup_efm32tg.o [1]
CHIP_Init               0x00000635    0x2  Code  Lc  main.o [1]
CMU_AUXClkGet           0x000000b9   0x64  Code  Lc  em_cmu.o [1]
CMU_ClockEnable         0x000001c9   0x86  Code  Gb  em_cmu.o [1]
CMU_ClockFreqGet        0x0000024f  0x14c  Code  Gb  em_cmu.o [1]
CMU_ClockSelectGet      0x0000039b   0xf2  Code  Gb  em_cmu.o [1]
CMU_DBGClkGet           0x0000011d   0x30  Code  Lc  em_cmu.o [1]
CMU_DivToLog2           0x000000ab    0xe  Code  Lc  em_cmu.o [1]
CMU_IRQHandler          0x00000cd9         Code  Wk  startup_efm32tg.o [1]
CMU_LFClkGet            0x0000014d   0x66  Code  Lc  em_cmu.o [1]
CMU_Sync                0x000001b3   0x16  Code  Lc  em_cmu.o [1]
CSTACK$$Base            0x20000260          --   Gb  - Linker created -
CSTACK$$Limit           0x20000660          --   Gb  - Linker created -
DAC0_IRQHandler         0x00000cad         Code  Wk  startup_efm32tg.o [1]
DMA_IRQHandler          0x00000c91         Code  Wk  startup_efm32tg.o [1]
DebugMon_Handler        0x00000c85         Code  Wk  startup_efm32tg.o [1]
EMU_EnterEM1            0x00000637   0x14  Code  Lc  main.o [1]
GPIO_EVEN_IRQHandler    0x00000c95         Code  Wk  startup_efm32tg.o [1]
GPIO_ODD_IRQHandler     0x00000cb5         Code  Wk  startup_efm32tg.o [1]
GPIO_PinModeSet         0x00000929   0xcc  Code  Gb  em_gpio.o [1]
GetProdRev              0x000004e5    0xa  Code  Lc  system_efm32tg.o [1]
HardFault_Handler       0x00000c71         Code  Wk  startup_efm32tg.o [1]
I2C0_IRQHandler         0x00000cb1         Code  Wk  startup_efm32tg.o [1]
LCD_IRQHandler          0x00000ce1         Code  Wk  startup_efm32tg.o [1]
LESENSE_IRQHandler      0x00000cc5         Code  Wk  startup_efm32tg.o [1]
LETIMER0_IRQHandler     0x00000ccd         Code  Wk  startup_efm32tg.o [1]
LEUART0_IRQHandler      0x00000cc9         Code  Wk  startup_efm32tg.o [1]
MSC_IRQHandler          0x00000ce5         Code  Wk  startup_efm32tg.o [1]
MemManage_Handler       0x00000c75         Code  Wk  startup_efm32tg.o [1]
NMI_Handler             0x00000c6d         Code  Wk  startup_efm32tg.o [1]
NVIC_ClearPendingIRQ    0x0000061b   0x1a  Code  Lc  main.o [1]
NVIC_EnableIRQ          0x00000601   0x1a  Code  Lc  main.o [1]
PCNT0_IRQHandler        0x00000cd1         Code  Wk  startup_efm32tg.o [1]
PendSV_Handler          0x00000c89         Code  Wk  startup_efm32tg.o [1]
RTC_IRQHandler          0x00000cd5         Code  Wk  startup_efm32tg.o [1]
Region$$Table$$Base     0x00000bd8          --   Gb  - Linker created -
Region$$Table$$Limit    0x00000bfc          --   Gb  - Linker created -
Reset_Handler           0x00000c49         Code  Wk  startup_efm32tg.o [1]
SVC_Handler             0x00000c81         Code  Wk  startup_efm32tg.o [1]
SysTick_Handler         0x00000c8d         Code  Wk  startup_efm32tg.o [1]
SystemCoreClock         0x2000025c    0x4  Data  Gb  system_efm32tg.o [1]
SystemCoreClockGet      0x000004ef   0x1a  Code  Gb  system_efm32tg.o [1]
SystemHFClockGet        0x00000509   0xa6  Code  Gb  system_efm32tg.o [1]
SystemHFXOClock         0x20000034    0x4  Data  Lc  system_efm32tg.o [1]
SystemInit              0x000005af    0x2  Code  Gb  system_efm32tg.o [1]
SystemLFRCOClockGet     0x000005b1    0x6  Code  Gb  system_efm32tg.o [1]
SystemLFXOClock         0x20000038    0x4  Data  Lc  system_efm32tg.o [1]
SystemLFXOClockGet      0x000005bd    0x6  Code  Gb  system_efm32tg.o [1]
SystemULFRCOClockGet    0x000005b7    0x6  Code  Gb  system_efm32tg.o [1]
TIMER0_IRQHandler       0x00000c99         Code  Wk  startup_efm32tg.o [1]
TIMER1_IRQHandler       0x00000cb9         Code  Wk  startup_efm32tg.o [1]
USART0_RX_IRQHandler    0x00000c9d         Code  Wk  startup_efm32tg.o [1]
USART0_TX_IRQHandler    0x00000ca1         Code  Wk  startup_efm32tg.o [1]
USART1_RX_IRQHandler    0x00000cbd         Code  Wk  startup_efm32tg.o [1]
USART1_TX_IRQHandler    0x00000cc1         Code  Wk  startup_efm32tg.o [1]
USART_BaudrateAsyncSet  0x000009fd   0x84  Code  Gb  em_usart.o [1]
USART_Enable            0x00000a81   0x14  Code  Gb  em_usart.o [1]
USART_InitAsync         0x00000a95   0x4a  Code  Gb  em_usart.o [1]
USART_IntClear          0x0000064b    0x4  Code  Lc  main.o [1]
USART_IntEnable         0x0000064f    0x8  Code  Lc  main.o [1]
USART_Reset             0x00000adf   0x40  Code  Gb  em_usart.o [1]
UsageFault_Handler      0x00000c7d         Code  Wk  startup_efm32tg.o [1]
VCMP_IRQHandler         0x00000cdd         Code  Wk  startup_efm32tg.o [1]
__Vectors               0x00000000          --   Gb  startup_efm32tg.o [1]
__Vectors_End           0x0000009c         Data  Gb  startup_efm32tg.o [1]
__Vectors_Size {Abs}    0x0000009c          --   Gb  startup_efm32tg.o [1]
__cmain                 0x00000bfd         Code  Gb  cmain.o [4]
__exit                  0x00000c29         Code  Gb  XXexit.o [4]
__iar_SB                0x00000cec         Data  Gb  bwt_init3c.o [4]
__iar_copy_init3        0x00000b31   0x2e  Code  Gb  copy_init3.o [4]
__iar_data_init3        0x00000bad   0x2c  Code  Gb  data_init3.o [4]
__iar_program_start     0x00000c59         Code  Gb  cstartup_M.o [4]
__iar_zero_init3        0x00000b5f   0x22  Code  Gb  zero_init3.o [4]
__low_level_init        0x00000c13    0x4  Code  Gb  low_level_init.o [3]
__vector_table          0x00000000         Data  Gb  startup_efm32tg.o [1]
__vector_table_0x1c     0x0000001c         Data  Gb  startup_efm32tg.o [1]
_call_main              0x00000c09         Code  Gb  cmain.o [4]
_exit                   0x00000c1d         Code  Gb  cexit.o [4]
_main                   0x00000c0f         Code  Gb  cmain.o [4]
cmuSetup                0x00000865   0x14  Code  Gb  main.o [1]
exit                    0x00000c17    0x4  Code  Gb  exit.o [3]
main                    0x00000657   0x84  Code  Gb  main.o [1]
ofsLen                  0x00000c68    0x4  Data  Gb  main.o [1]
overflowString          0x00000c34   0x14  Data  Gb  main.o [1]
rxBuf                   0x2000003c  0x110  Data  Gb  main.o [1]
txBuf                   0x2000014c  0x110  Data  Gb  main.o [1]
uart                    0x20000030    0x4  Data  Lc  main.o [1]
uartGetData             0x000007ff   0x66  Code  Gb  main.o [1]
uartInit                0x20000018   0x18  Data  Lc  main.o [1]
uartPutData             0x0000078d   0x72  Code  Gb  main.o [1]
uartSetup               0x000006db   0xb2  Code  Gb  main.o [1]
usartInit               0x20000000   0x18  Data  Lc  bsp_stk.o [1]
welLen                  0x00000c64    0x4  Data  Gb  main.o [1]
welcomeString           0x00000b80   0x2c  Data  Gb  main.o [1]


[1] = D:\Firmware\my-project-hihack\trunk\ my-project-hihack --username kaiser.ren@gmail.com\energymicro\kits\EFM32TG_STK3300\examples\an0045_efm32_uart_rs-232\iar\uart_rs-232\Debug\Obj
[2] = command line
[3] = dl7M_tln.a
[4] = rt7M_tl.a

  3 200 bytes of readonly  code memory
    168 bytes of readonly  data memory
  1 632 bytes of readwrite data memory

Errors: none
Warnings: none
