################################################################################
#                                                                              #
#      IAR Universal Linker V5.2.5.17                                          #
#                                                                              #
#           Link time     =  24/Nov/2012  12:23:00                             #
#           Target CPU    =  A90                                               #
#           List file     =  D:\HiJack\Applications\TAL_Examples\Performance_T #
#                            est\ATmega1281\AT86RF212\Debug\List\RM900.map     #
#           Output file 1 =  D:\HiJack\Applications\TAL_Examples\Performance_T #
#                            est\ATmega1281\AT86RF212\Debug\Exe\RM900.srec     #
#                            Format: motorola-s28                              #
#           Output file 2 =  D:\HiJack\Applications\TAL_Examples\Performance_T #
#                            est\ATmega1281\AT86RF212\Debug\Exe\RM900.hex      #
#                            Format: intel-extended, variant: -Y2              #
#           Output file 3 =  D:\HiJack\Applications\TAL_Examples\Performance_T #
#                            est\ATmega1281\AT86RF212\Debug\Exe\RM900.d90      #
#                            Format: debug                                     #
#                            UBROF version 10.0.6                              #
#                            Using library modules for C-SPY (-rt)             #
#           Command line  =  -Omotorola-s28=.srec                              #
#                            D:\HiJack\Applications\TAL_Examples\Performance_T #
#                            est\ATmega1281\AT86RF212\Debug\Obj\hal.r90        #
#                            D:\HiJack\Applications\TAL_Examples\Performance_T #
#                            est\ATmega1281\AT86RF212\Debug\Obj\main.r90       #
#                            D:\HiJack\Applications\TAL_Examples\Performance_T #
#                            est\ATmega1281\AT86RF212\Debug\Obj\pal_board.r90  #
#                            D:\HiJack\Applications\TAL_Examples\Performance_T #
#                            est\ATmega1281\AT86RF212\Debug\Obj\pal_sio_hub.r9 #
#                            0                                                 #
#                            D:\HiJack\Applications\TAL_Examples\Performance_T #
#                            est\ATmega1281\AT86RF212\Debug\Obj\pal_uart.r90   #
#                            D:\HiJack\Applications\TAL_Examples\Performance_T #
#                            est\ATmega1281\AT86RF212\Debug\Obj\pal_utils.r90  #
#                            D:\HiJack\Applications\TAL_Examples\Performance_T #
#                            est\ATmega1281\AT86RF212\Debug\Obj\sio_handler.r9 #
#                            0                                                 #
#                            D:\HiJack\Applications\TAL_Examples\Performance_T #
#                            est\ATmega1281\AT86RF212\Debug\Obj\timer.r90      #
#                            D:\HiJack\Applications\TAL_Examples\Performance_T #
#                            est\ATmega1281\AT86RF212\Debug\Obj\write.r90      #
#                            -o                                                #
#                            D:\HiJack\Applications\TAL_Examples\Performance_T #
#                            est\ATmega1281\AT86RF212\Debug\Exe\RM900.d90      #
#                            -z -l                                             #
#                            D:\HiJack\Applications\TAL_Examples\Performance_T #
#                            est\ATmega1281\AT86RF212\Debug\List\RM900.map     #
#                            -xmsn                                             #
#                            "-ID:\Program Files\IAR Systems\Embedded Workbenc #
#                            h 6.0\avr\LIB\"                                   #
#                            -f                                                #
#                            "D:\Program Files\IAR Systems\Embedded Workbench  #
#                            6.0\avr\src\template\cfgm1281.xcl"                #
#                            (-D_..X_INTVEC_SIZE=CC -D_..X_FLASH_NEND=FFFF     #
#                            -D_..X_FLASH_END=1FFFF -D_..X_SRAM_BASE=200       #
#                            -D_..X_SRAM_TBASE=0 -D_..X_SRAM_TSIZE=0           #
#                            -D_..X_SRAM_END=21FF -D_..X_EEPROM_END=FFF        #
#                            -D_..X_EEPROM_START=0) -D_..X_HEAP_SIZE=0         #
#                            -D_..X_TINY_HEAP_SIZE=0                           #
#                            -D_..X_NEAR_HEAP_SIZE=40 -D_..X_FAR_HEAP_SIZE=0   #
#                            -D_..X_HUGE_HEAP_SIZE=0 -D_..X_CSTACK_SIZE=200    #
#                            -D_..X_RSTACK_SIZE=50                             #
#                            -D_..X_FLASH_CODE_END=1FFFF -f                    #
#                            "D:\Program Files\IAR Systems\Embedded Workbench  #
#                            6.0\avr\src\template\cfg3soim.xcl"                #
#                            (-ca90 -w29                                       #
#                            -Z(CODE)INTVEC=0-(_..X_INTVEC_SIZE-1)             #
#                            -Z(CODE)TINY_F=_..X_FLASH_BASE-FF                 #
#                            -Z(CODE)NEAR_F=_..X_FLASH_BASE-_..X_FLASH_NEND    #
#                            -Z(CODE)SWITCH=_..X_FLASH_BASE-_..X_FLASH_NEND    #
#                            -Z(CODE)DIFUNCT=_..X_FLASH_BASE-_..X_FLASH_NEND   #
#                            -Z(CODE)CODE=_..X_FLASH_BASE-_..X_FLASH_END       #
#                            -P(CODE)FAR_F=[_..X_FLASH_BASE-_..X_FLASH_END]/10 #
#                            000                                               #
#                            -Z(CODE)INITTAB=_..X_FLASH_BASE-_..X_FLASH_END    #
#                            -Z(CODE)HUGE_F=_..X_FLASH_BASE-_..X_FLASH_END     #
#                            -Z(CODE)TINY_ID=_..X_FLASH_BASE-_..X_FLASH_END    #
#                            -Z(CODE)NEAR_ID=_..X_FLASH_BASE-_..X_FLASH_END    #
#                            -Z(CODE)CHECKSUM#_..X_FLASH_END                   #
#                            -Z(DATA)TINY_I,TINY_Z,TINY_N=_..X_SRAM_TBASE:+_.. #
#                            X_SRAM_TSIZE                                      #
#                            -Z(DATA)CSTACK+_..X_CSTACK_SIZE=_..X_CSTACK_BASE- #
#                            _..X_CSTACK_END                                   #
#                            -Z(DATA)HEAP+_..X_HEAP_SIZE=_..X_SRAM_BASE-_..X_S #
#                            RAM_END                                           #
#                            -Z(DATA)IOSTREAM_N#_..X_SRAM_BASE-_..X_SRAM_END   #
#                            -Z(DATA)NEAR_HEAP+_..X_NEAR_HEAP_SIZE=_..X_SRAM_B #
#                            ASE-_..X_SRAM_END                                 #
#                            -Z(DATA)RSTACK+_..X_RSTACK_SIZE=_..X_RSTACK_BASE- #
#                            _..X_RSTACK_END                                   #
#                            -Z(DATA)NEAR_I,NEAR_Z,NEAR_N=_..X_SRAM_BASE-_..X_ #
#                            SRAM_END                                          #
#                            -Z(XDATA)EEPROM_I,EEPROM_N=_..X_EEPROM_START-_..X #
#                            _EEPROM_END)                                      #
#                            -D_..X_FLASH_BASE=_..X_INTVEC_SIZE -H1895         #
#                            -h(CODE)0-(_..X_INTVEC_SIZE-1)                    #
#                            -D_..X_EXT_SRAM_BASE=_..X_SRAM_END                #
#                            -D_..X_EXT_SRAM_SIZE=0                            #
#                            -D_..X_EXT_ROM_BASE=_..X_SRAM_END                 #
#                            -D_..X_EXT_ROM_SIZE=0                             #
#                            -D_..X_EXT_NV_BASE=_..X_SRAM_END                  #
#                            -D_..X_EXT_NV_SIZE=0                              #
#                            -D_..X_CSTACK_BASE=_..X_SRAM_BASE                 #
#                            -D_..X_CSTACK_END=_..X_SRAM_END                   #
#                            -D_..X_RSTACK_BASE=_..X_SRAM_BASE                 #
#                            -D_..X_RSTACK_END=_..X_SRAM_END -rt               #
#                            -Ointel-extended,2=D:\HiJack\Applications\TAL_Exa #
#                            mples\Performance_Test\ATmega1281\AT86RF212\Debug #
#                            \Exe\RM900.hex                                    #
#                            -s __program_start                                #
#                            "D:\Program Files\IAR Systems\Embedded Workbench  #
#                            6.0\avr\LIB\DLIB\dlAVR-3s-ec_mul-n.r90"           #
#                            -e_PrintfLarge=_Printf -e_ScanfSmall=_Scanf       #
#                                                                              #
#                           Copyright (C) 1987-2011 IAR Systems AB.            #
################################################################################





                ****************************************
                *                                      *
                *           CROSS REFERENCE            *
                *                                      *
                ****************************************

       Program entry at : CODE      00000000  Relocatable, from module : ?RESET




                ****************************************
                *                                      *
                *            RUNTIME MODEL             *
                *                                      *
                ****************************************

  R10                        = REG
  R11                        = REG
  R12                        = REG
  R13                        = REG
  R14                        = REG
  R15                        = REG
  R4                         = REG
  R5                         = REG
  R6                         = REG
  R7                         = REG
  R8                         = REG
  R9                         = REG
  __64bit_doubles            = disabled
  __Heap_Handler             = Basic
  __SystemLibrary            = DLib
  __cpu                      = 3
  __cpu_name                 = ATmega1281
  __dlib_file_descriptor     = 0
  __dlib_full_locale_support = 0
  __enhanced_core            = enabled
  __has_elpm                 = true
  __memory_model             = 2
  __no_rampd                 = enabled
  __rt_version               = 3
  __tiny_avr                 = false

                ****************************************
                *                                      *
                *    AUTOMATIC SYMBOL REDIRECTIONS     *
                *                                      *
                ****************************************

                  There are no automatic symbol redirections.



                ****************************************
                *                                      *
                *              MODULE MAP              *
                *                                      *
                ****************************************


  DEFINED ABSOLUTE ENTRIES
  PROGRAM MODULE, NAME : ?ABS_ENTRY_MOD

Absolute parts
           ENTRY                   ADDRESS         REF BY
           =====                   =======         ======
           _..X_RSTACK_END         000021FF 
           _..X_RSTACK_BASE        00000200 
           _..X_CSTACK_END         000021FF 
           _..X_CSTACK_BASE        00000200 
           _..X_EXT_NV_SIZE        00000000 
           _..X_EXT_NV_BASE        000021FF 
           _..X_EXT_ROM_SIZE       00000000 
           _..X_EXT_ROM_BASE       000021FF 
           _..X_EXT_SRAM_SIZE      00000000 
           _..X_EXT_SRAM_BASE      000021FF 
           _..X_FLASH_BASE         000000CC 
           _..X_FLASH_CODE_END     0001FFFF 
           _..X_RSTACK_SIZE        00000050 
           _..X_CSTACK_SIZE        00000200 
           _..X_HUGE_HEAP_SIZE     00000000 
           _..X_FAR_HEAP_SIZE      00000000 
           _..X_NEAR_HEAP_SIZE     00000040 
           _..X_TINY_HEAP_SIZE     00000000 
           _..X_HEAP_SIZE          00000000 
           _..X_EEPROM_START       00000000 
           _..X_EEPROM_END         00000FFF 
           _..X_SRAM_END           000021FF 
           _..X_SRAM_TSIZE         00000000 
           _..X_SRAM_TBASE         00000000 
           _..X_SRAM_BASE          00000200 
           _..X_FLASH_END          0001FFFF 
           _..X_FLASH_NEND         0000FFFF 
           _..X_INTVEC_SIZE        000000CC 
    *************************************************************************

  FILE NAME : D:\HiJack\Applications\TAL_Examples\Performance_Test\ATmega1281\AT86RF212\Debug\Obj\hal.r90
  PROGRAM MODULE, NAME : hal

  SEGMENTS IN THE MODULE
  ======================
ABSOLUTE
  Relative segment, address: DATA 00000061 - 00000061 (0x1 bytes), align: 0
  Segment part 1. ROOT.       Intra module refs:   mcu_clock_init
           ENTRY                   ADDRESS         REF BY
           =====                   =======         ======
           _A_CLKPR                00000061 
           LOCAL                   ADDRESS         
           =====                   =======         
           CLKPR                   00000061 
    -------------------------------------------------------------------------
ABSOLUTE
  Relative segment, address: DATA 00000060 - 00000060 (0x1 bytes), align: 0
  Segment part 2. ROOT.       Intra module refs:   wdt_init
           ENTRY                   ADDRESS         REF BY
           =====                   =======         ======
           _A_WDTCSR               00000060 
           LOCAL                   ADDRESS         
           =====                   =======         
           WDTCSR                  00000060 
    -------------------------------------------------------------------------
ABSOLUTE
  Relative segment, address: DATA 0000005F - 0000005F (0x1 bytes), align: 0
  Segment part 3. ROOT.       Intra module refs:   handler_TIMER1_CAPT_vect (timer)
                                                   mcu_clock_init
           ENTRY                   ADDRESS         REF BY
           =====                   =======         ======
           _A_SREG                 0000005F 
           LOCAL                   ADDRESS         
           =====                   =======         
           SREG                    0000005F 
    -------------------------------------------------------------------------
ABSOLUTE
  Relative segment, address: DATA 00000054 - 00000054 (0x1 bytes), align: 0
  Segment part 4. ROOT.       Intra module refs:   wdt_init
           ENTRY                   ADDRESS         REF BY
           =====                   =======         ======
           _A_MCUSR                00000054 
           LOCAL                   ADDRESS         
           =====                   =======         
           MCUSR                   00000054 
    -------------------------------------------------------------------------
CODE
  Relative segment, address: CODE 00000104 - 00000107 (0x4 bytes), align: 1
  Segment part 11.            Intra module refs:   hal_init
           LOCAL                   ADDRESS         
           =====                   =======         
           pal_global_irq_enable   00000104 
               RSTACK = 00000000 ( 00000002 )
    -------------------------------------------------------------------------
CODE
  Relative segment, address: CODE 00000108 - 0000011B (0x14 bytes), align: 1
  Segment part 12.            Intra module refs:   hal_init
           LOCAL                   ADDRESS         
           =====                   =======         
           mcu_clock_init          00000108 
               RSTACK = 00000000 ( 00000002 )
    -------------------------------------------------------------------------
CODE
  Relative segment, address: CODE 0000011C - 00000135 (0x1a bytes), align: 1
  Segment part 13.            Intra module refs:   hal_init
           LOCAL                   ADDRESS         
           =====                   =======         
           wdt_init                0000011C 
               RSTACK = 00000000 ( 00000002 )
    -------------------------------------------------------------------------
CODE
  Relative segment, address: CODE 00000136 - 00000147 (0x12 bytes), align: 1
  Segment part 14.
           ENTRY                   ADDRESS         REF BY
           =====                   =======         ======
           hal_init                00000136        main (main)
               calls direct
               RSTACK = 00000000 ( 00000002 )
    -------------------------------------------------------------------------
ABSOLUTE
  Relative segment, address: DATA 0000001F, align: 0
  Segment part 5. ROOT.
           ENTRY                   ADDRESS         REF BY
           =====                   =======         ======
           __?EECR                 0000001F 
    -------------------------------------------------------------------------
ABSOLUTE
  Relative segment, address: DATA 00000020, align: 0
  Segment part 6. ROOT.
           ENTRY                   ADDRESS         REF BY
           =====                   =======         ======
           __?EEDR                 00000020 
    -------------------------------------------------------------------------
ABSOLUTE
  Relative segment, address: DATA 00000021, align: 0
  Segment part 7. ROOT.
           ENTRY                   ADDRESS         REF BY
           =====                   =======         ======
           __?EEARL                00000021 
    -------------------------------------------------------------------------
ABSOLUTE
  Relative segment, address: DATA 00000022, align: 0
  Segment part 8. ROOT.
           ENTRY                   ADDRESS         REF BY
           =====                   =======         ======
           __?EEARH                00000022 

    *************************************************************************

  FILE NAME : D:\HiJack\Applications\TAL_Examples\Performance_Test\ATmega1281\AT86RF212\Debug\Obj\main.r90
  PROGRAM MODULE, NAME : main

  SEGMENTS IN THE MODULE
  ======================
CODE
  Relative segment, address: CODE 00000148 - 00000161 (0x1a bytes), align: 1
  Segment part 15.            Intra module refs:   _LocaleC_toupper
           ENTRY                   ADDRESS         REF BY
           =====                   =======         ======
           _LocaleC_islower        00000148 
               RSTACK = 00000000 ( 00000002 )
    -------------------------------------------------------------------------
CODE
  Relative segment, address: CODE 00000162 - 0000017F (0x1e bytes), align: 1
  Segment part 16.            Intra module refs:   toupper
           ENTRY                   ADDRESS         REF BY
           =====                   =======         ======
           _LocaleC_toupper        00000162 
               calls direct
               CSTACK = 00000000 ( 00000002 )
               RSTACK = 00000000 ( 00000002 )
    -------------------------------------------------------------------------
CODE
  Relative segment, address: CODE 00000180 - 00000191 (0x12 bytes), align: 1
  Segment part 17.            Intra module refs:   print_main_menu
           ENTRY                   ADDRESS         REF BY
           =====                   =======         ======
           toupper                 00000180 
               calls direct
               CSTACK = 00000000 ( 00000002 )
               RSTACK = 00000000 ( 00000002 )
    -------------------------------------------------------------------------
FAR_F
  Relative segment, address: CODE 0001DFFC - 0001DFFF (0x4 bytes), align: 0
  Segment part 1. ROOT.
           ENTRY                   ADDRESS         REF BY
           =====                   =======         ======
           Bf_Appflag              0001DFFC 
    -------------------------------------------------------------------------
CODE
  Relative segment, address: CODE 00000192 - 000001BB (0x2a bytes), align: 1
  Segment part 18.
           ENTRY                   ADDRESS         REF BY
           =====                   =======         ======
           main                    00000192        ?cstartup_call_main (?C_STARTUP)
               calls direct
               CSTACK = 00000000 ( 00000004 )
               RSTACK = 00000000 ( 00000002 )
    -------------------------------------------------------------------------
CODE
  Relative segment, address: CODE 000001BC - 000001D7 (0x1c bytes), align: 1
  Segment part 19.            Intra module refs:   main
           LOCAL                   ADDRESS         
           =====                   =======         
           print_main_menu         000001BC 
               calls direct
               CSTACK = 00000000 ( 00000001 )
               RSTACK = 00000000 ( 00000002 )
    -------------------------------------------------------------------------
CODE
  Relative segment, address: CODE 000001D8 - 00000211 (0x3a bytes), align: 1
  Segment part 20.            Intra module refs:   print_main_menu
           LOCAL                   ADDRESS         
           =====                   =======         
           get_analog_cmp_freq     000001D8 
               calls direct
               CSTACK = 00000000 ( 00000004 )
               RSTACK = 00000000 ( 00000004 )
    -------------------------------------------------------------------------
NEAR_ID
  Relative segment, address: CODE 00001EA6 - 00001ECD (0x28 bytes), align: 0
  Segment part 9.             Intra module refs:   Segment part 8
    -------------------------------------------------------------------------
INITTAB
  Relative segment, address: CODE 00001E98 - 00001E9E (0x7 bytes), align: 0
  Segment part 10.            Intra module refs:   Segment part 11
                                                   Segment part 13
                                                   Segment part 3 (?xprintflarge)
                                                   Segment part 6 (?xprintflarge)
                                                   Segment part 8
                                                   Segment part 8 (?xprintflarge)
                                                   __Constant_0_0 (?xprintflarge)
           ENTRY                   ADDRESS         REF BY
           =====                   =======         ======
           ?<Segment init: NEAR_I>
                                   00001E98 
    -------------------------------------------------------------------------
NEAR_ID
  Relative segment, address: CODE 00001ECE - 00001EF2 (0x25 bytes), align: 0
  Segment part 12.            Intra module refs:   Segment part 11
    -------------------------------------------------------------------------
NEAR_ID
  Relative segment, address: CODE 00001EF3 - 00001F00 (0xe bytes), align: 0
  Segment part 14.            Intra module refs:   Segment part 13
    -------------------------------------------------------------------------
NEAR_I
  Relative segment, address: DATA 00000450 - 00000477 (0x28 bytes), align: 0
  Segment part 8.             Intra module refs:   main
    -------------------------------------------------------------------------
NEAR_I
  Relative segment, address: DATA 00000478 - 0000049C (0x25 bytes), align: 0
  Segment part 11.            Intra module refs:   main
    -------------------------------------------------------------------------
NEAR_I
  Relative segment, address: DATA 0000049D - 000004AA (0xe bytes), align: 0
  Segment part 13.            Intra module refs:   get_analog_cmp_freq

    *************************************************************************

  FILE NAME : D:\HiJack\Applications\TAL_Examples\Performance_Test\ATmega1281\AT86RF212\Debug\Obj\pal_board.r90
  PROGRAM MODULE, NAME : pal_board

  SEGMENTS IN THE MODULE
  ======================
ABSOLUTE
  Relative segment, address: DATA 000000B6 - 000000B6 (0x1 bytes), align: 0
  Segment part 1. ROOT.
           ENTRY                   ADDRESS         REF BY
           =====                   =======         ======
           _A_ASSR                 000000B6 
           LOCAL                   ADDRESS         
           =====                   =======         
           ASSR                    000000B6 
    -------------------------------------------------------------------------
ABSOLUTE
  Relative segment, address: DATA 000000B2 - 000000B2 (0x1 bytes), align: 0
  Segment part 2. ROOT.
           ENTRY                   ADDRESS         REF BY
           =====                   =======         ======
           _A_TCNT2                000000B2 
           LOCAL                   ADDRESS         
           =====                   =======         
           TCNT2                   000000B2 
    -------------------------------------------------------------------------
ABSOLUTE
  Relative segment, address: DATA 000000B1 - 000000B1 (0x1 bytes), align: 0
  Segment part 3. ROOT.
           ENTRY                   ADDRESS         REF BY
           =====                   =======         ======
           _A_TCCR2B               000000B1 
           LOCAL                   ADDRESS         
           =====                   =======         
           TCCR2B                  000000B1 
    -------------------------------------------------------------------------
ABSOLUTE
  Relative segment, address: DATA 00000086 - 00000087 (0x2 bytes), align: 0
  Segment part 4. ROOT.       Intra module refs:   handler_TIMER1_CAPT_vect (timer)
           ENTRY                   ADDRESS         REF BY
           =====                   =======         ======
           _A_ICR1                 00000086 
           LOCAL                   ADDRESS         
           =====                   =======         
           ICR1                    00000086 
           ICR1H                   00000087 
           ICR1L                   00000086 
    -------------------------------------------------------------------------
ABSOLUTE
  Relative segment, address: DATA 00000084 - 00000085 (0x2 bytes), align: 0
  Segment part 5. ROOT.
           ENTRY                   ADDRESS         REF BY
           =====                   =======         ======
           _A_TCNT1                00000084 
           LOCAL                   ADDRESS         
           =====                   =======         
           TCNT1                   00000084 
           TCNT1H                  00000085 
           TCNT1L                  00000084 
    -------------------------------------------------------------------------
ABSOLUTE
  Relative segment, address: DATA 00000081 - 00000081 (0x1 bytes), align: 0
  Segment part 6. ROOT.       Intra module refs:   ac_init (timer)
           ENTRY                   ADDRESS         REF BY
           =====                   =======         ======
           _A_TCCR1B               00000081 
           LOCAL                   ADDRESS         
           =====                   =======         
           TCCR1B                  00000081 
    -------------------------------------------------------------------------
ABSOLUTE
  Relative segment, address: DATA 00000080 - 00000080 (0x1 bytes), align: 0
  Segment part 7. ROOT.
           ENTRY                   ADDRESS         REF BY
           =====                   =======         ======
           _A_TCCR1A               00000080 
           LOCAL                   ADDRESS         
           =====                   =======         
           TCCR1A                  00000080 
    -------------------------------------------------------------------------
ABSOLUTE
  Relative segment, address: DATA 0000006F - 0000006F (0x1 bytes), align: 0
  Segment part 8. ROOT.       Intra module refs:   ac_init (timer)
           ENTRY                   ADDRESS         REF BY
           =====                   =======         ======
           _A_TIMSK1               0000006F 
           LOCAL                   ADDRESS         
           =====                   =======         
           TIMSK1                  0000006F 
    -------------------------------------------------------------------------
ABSOLUTE
  Relative segment, address: DATA 00000066 - 00000066 (0x1 bytes), align: 0
  Segment part 9. ROOT.
           ENTRY                   ADDRESS         REF BY
           =====                   =======         ======
           _A_OSCCAL               00000066 
           LOCAL                   ADDRESS         
           =====                   =======         
           OSCCAL                  00000066 
    -------------------------------------------------------------------------
ABSOLUTE
  Relative segment, address: DATA 00000037 - 00000037 (0x1 bytes), align: 0
  Segment part 11. ROOT.
           ENTRY                   ADDRESS         REF BY
           =====                   =======         ======
           _A_TIFR2                00000037 
           LOCAL                   ADDRESS         
           =====                   =======         
           TIFR2                   00000037 
    -------------------------------------------------------------------------
ABSOLUTE
  Relative segment, address: DATA 00000036 - 00000036 (0x1 bytes), align: 0
  Segment part 12. ROOT.      Intra module refs:   ac_init (timer)
           ENTRY                   ADDRESS         REF BY
           =====                   =======         ======
           _A_TIFR1                00000036 
           LOCAL                   ADDRESS         
           =====                   =======         
           TIFR1                   00000036 
    -------------------------------------------------------------------------
ABSOLUTE
  Relative segment, address: DATA 0000002E - 0000002E (0x1 bytes), align: 0
  Segment part 13. ROOT.
           ENTRY                   ADDRESS         REF BY
           =====                   =======         ======
           _A_PORTE                0000002E 
           LOCAL                   ADDRESS         
           =====                   =======         
           PORTE                   0000002E 
    -------------------------------------------------------------------------
ABSOLUTE
  Relative segment, address: DATA 0000002D - 0000002D (0x1 bytes), align: 0
  Segment part 14. ROOT.
           ENTRY                   ADDRESS         REF BY
           =====                   =======         ======
           _A_DDRE                 0000002D 
           LOCAL                   ADDRESS         
           =====                   =======         
           DDRE                    0000002D 
    -------------------------------------------------------------------------
ABSOLUTE
  Relative segment, address: DATA 0000002C - 0000002C (0x1 bytes), align: 0
  Segment part 15. ROOT.
           ENTRY                   ADDRESS         REF BY
           =====                   =======         ======
           _A_PINE                 0000002C 
           LOCAL                   ADDRESS         
           =====                   =======         
           PINE                    0000002C 
    -------------------------------------------------------------------------
ABSOLUTE
  Relative segment, address: DATA 00000025 - 00000025 (0x1 bytes), align: 0
  Segment part 16. ROOT.
           ENTRY                   ADDRESS         REF BY
           =====                   =======         ======
           _A_PORTB                00000025 
           LOCAL                   ADDRESS         
           =====                   =======         
           PORTB                   00000025 
    -------------------------------------------------------------------------
ABSOLUTE
  Relative segment, address: DATA 00000024 - 00000024 (0x1 bytes), align: 0
  Segment part 17. ROOT.
           ENTRY                   ADDRESS         REF BY
           =====                   =======         ======
           _A_DDRB                 00000024 
           LOCAL                   ADDRESS         
           =====                   =======         
           DDRB                    00000024 
    -------------------------------------------------------------------------
ABSOLUTE
  Relative segment, address: DATA 00000021 - 00000021 (0x1 bytes), align: 0
  Segment part 18. ROOT.
           ENTRY                   ADDRESS         REF BY
           =====                   =======         ======
           _A_DDRA                 00000021 
           LOCAL                   ADDRESS         
           =====                   =======         
           DDRA                    00000021 

    *************************************************************************

  FILE NAME : D:\HiJack\Applications\TAL_Examples\Performance_Test\ATmega1281\AT86RF212\Debug\Obj\pal_sio_hub.r90
  PROGRAM MODULE, NAME : pal_sio_hub

  SEGMENTS IN THE MODULE
  ======================
CODE
  Relative segment, address: CODE 00000212 - 00000235 (0x24 bytes), align: 1
  Segment part 7.
           ENTRY                   ADDRESS         REF BY
           =====                   =======         ======
           pal_sio_init            00000212        hal_init (hal)
               calls direct
               CSTACK = 00000000 ( 00000002 )
               RSTACK = 00000000 ( 00000002 )
    -------------------------------------------------------------------------
CODE
  Relative segment, address: CODE 00000236 - 00000259 (0x24 bytes), align: 1
  Segment part 8.
           ENTRY                   ADDRESS         REF BY
           =====                   =======         ======
           pal_sio_tx              00000236        _sio_putchar (sio_handler)
               calls direct
               CSTACK = 00000000 ( 00000005 )
               RSTACK = 00000000 ( 00000002 )
    -------------------------------------------------------------------------
CODE
  Relative segment, address: CODE 0000025A - 0000027D (0x24 bytes), align: 1
  Segment part 9.
           ENTRY                   ADDRESS         REF BY
           =====                   =======         ======
           pal_sio_rx              0000025A        _sio_getchar (sio_handler)
               calls direct
               CSTACK = 00000000 ( 00000005 )
               RSTACK = 00000000 ( 00000002 )

    *************************************************************************

  FILE NAME : D:\HiJack\Applications\TAL_Examples\Performance_Test\ATmega1281\AT86RF212\Debug\Obj\pal_uart.r90
  PROGRAM MODULE, NAME : pal_uart

  SEGMENTS IN THE MODULE
  ======================
ABSOLUTE
  Relative segment, address: DATA 000000CE - 000000CE (0x1 bytes), align: 0
  Segment part 1. ROOT.       Intra module refs:   handler_USART1_RX_vect
                                                   handler_USART1_TX_vect
                                                   sio_uart_1_tx
           ENTRY                   ADDRESS         REF BY
           =====                   =======         ======
           _A_UDR1                 000000CE 
           LOCAL                   ADDRESS         
           =====                   =======         
           UDR1                    000000CE 
    -------------------------------------------------------------------------
ABSOLUTE
  Relative segment, address: DATA 000000CC - 000000CD (0x2 bytes), align: 0
  Segment part 2. ROOT.       Intra module refs:   sio_uart_1_init
           ENTRY                   ADDRESS         REF BY
           =====                   =======         ======
           _A_UBRR1                000000CC 
           LOCAL                   ADDRESS         
           =====                   =======         
           UBRR1                   000000CC 
           UBRR1H                  000000CD 
           UBRR1L                  000000CC 
    -------------------------------------------------------------------------
ABSOLUTE
  Relative segment, address: DATA 000000CA - 000000CA (0x1 bytes), align: 0
  Segment part 3. ROOT.       Intra module refs:   sio_uart_1_init
           ENTRY                   ADDRESS         REF BY
           =====                   =======         ======
           _A_UCSR1C               000000CA 
           LOCAL                   ADDRESS         
           =====                   =======         
           UCSR1C                  000000CA 
    -------------------------------------------------------------------------
ABSOLUTE
  Relative segment, address: DATA 000000C9 - 000000C9 (0x1 bytes), align: 0
  Segment part 4. ROOT.       Intra module refs:   sio_uart_1_init
                                                   sio_uart_1_rx
                                                   sio_uart_1_tx
           ENTRY                   ADDRESS         REF BY
           =====                   =======         ======
           _A_UCSR1B               000000C9 
           LOCAL                   ADDRESS         
           =====                   =======         
           UCSR1B                  000000C9 
    -------------------------------------------------------------------------
ABSOLUTE
  Relative segment, address: DATA 000000C8 - 000000C8 (0x1 bytes), align: 0
  Segment part 5. ROOT.       Intra module refs:   sio_uart_1_init
           ENTRY                   ADDRESS         REF BY
           =====                   =======         ======
           _A_UCSR1A               000000C8 
           LOCAL                   ADDRESS         
           =====                   =======         
           UCSR1A                  000000C8 
    -------------------------------------------------------------------------
NEAR_Z
  Relative segment, address: DATA 000004CC - 000004E5 (0x1a bytes), align: 0
  Segment part 14.            Intra module refs:   handler_USART1_RX_vect
                                                   handler_USART1_TX_vect
                                                   sio_uart_1_rx
                                                   sio_uart_1_tx
           ENTRY                   ADDRESS         REF BY
           =====                   =======         ======
           uart_1_buffer           000004CC 
    -------------------------------------------------------------------------
CODE
  Relative segment, address: CODE 0000027E - 000002E9 (0x6c bytes), align: 1
  Segment part 16.
           ENTRY                   ADDRESS         REF BY
           =====                   =======         ======
           sio_uart_1_init         0000027E        pal_sio_init (pal_sio_hub)
               CSTACK = 00000000 ( 00000008 )
               RSTACK = 00000000 ( 00000004 )
    -------------------------------------------------------------------------
CODE
  Relative segment, address: CODE 000002EA - 0000038B (0xa2 bytes), align: 1
  Segment part 17.
           ENTRY                   ADDRESS         REF BY
           =====                   =======         ======
           sio_uart_1_tx           000002EA        pal_sio_tx (pal_sio_hub)
               RSTACK = 00000000 ( 00000002 )
    -------------------------------------------------------------------------
CODE
  Relative segment, address: CODE 0000038C - 00000423 (0x98 bytes), align: 1
  Segment part 18.
           ENTRY                   ADDRESS         REF BY
           =====                   =======         ======
           sio_uart_1_rx           0000038C        pal_sio_rx (pal_sio_hub)
               RSTACK = 00000000 ( 00000002 )
    -------------------------------------------------------------------------
CODE
  Relative segment, address: CODE 00000424 - 0000047F (0x5c bytes), align: 1
  Segment part 19.            Intra module refs:   handler_USART1_RX_vect::??INTVEC 144
           ENTRY                   ADDRESS         REF BY
           =====                   =======         ======
           handler_USART1_RX_vect
                                   00000424 
               interrupt function
               CSTACK = 00000000 ( 00000007 )
               RSTACK = 00000000 ( 00000002 )
    -------------------------------------------------------------------------
CODE
  Relative segment, address: CODE 00000480 - 000004E1 (0x62 bytes), align: 1
  Segment part 20.            Intra module refs:   handler_USART1_TX_vect::??INTVEC 152
           ENTRY                   ADDRESS         REF BY
           =====                   =======         ======
           handler_USART1_TX_vect
                                   00000480 
               interrupt function
               CSTACK = 00000000 ( 00000006 )
               RSTACK = 00000000 ( 00000002 )
    -------------------------------------------------------------------------
INTVEC
  Common segment, address: CODE 00000000 - 00000093 (0x94 bytes), align: 1
  Segment part 10. ROOT.
           ENTRY                   ADDRESS         REF BY
           =====                   =======         ======
           handler_USART1_RX_vect::??INTVEC 144
                                   00000090 
    -------------------------------------------------------------------------
INTVEC
  Common segment, address: CODE 00000000 - 0000009B (0x9c bytes), align: 1
  Segment part 11. ROOT.
           ENTRY                   ADDRESS         REF BY
           =====                   =======         ======
           handler_USART1_TX_vect::??INTVEC 152
                                   00000098 
    -------------------------------------------------------------------------
INITTAB
  Relative segment, address: CODE 00001E9F - 00001EA5 (0x7 bytes), align: 0
  Segment part 15.            Intra module refs:   ac_cap_para (timer)
                                                   uart_1_buffer
           ENTRY                   ADDRESS         REF BY
           =====                   =======         ======
           ?<Segment init: NEAR_Z>
                                   00001E9F 

    *************************************************************************

  FILE NAME : D:\HiJack\Applications\TAL_Examples\Performance_Test\ATmega1281\AT86RF212\Debug\Obj\pal_utils.r90
    *************************************************************************

  FILE NAME : D:\HiJack\Applications\TAL_Examples\Performance_Test\ATmega1281\AT86RF212\Debug\Obj\sio_handler.r90
  PROGRAM MODULE, NAME : sio_handler

  SEGMENTS IN THE MODULE
  ======================
CODE
  Relative segment, address: CODE 000004E2 - 0000051B (0x3a bytes), align: 1
  Segment part 7.
           ENTRY                   ADDRESS         REF BY
           =====                   =======         ======
           _sio_putchar            000004E2        low_level_putchar (?__write)
               calls direct
               CSTACK = 00000000 ( 00000002 )
               RSTACK = 00000000 ( 00000002 )
    -------------------------------------------------------------------------
CODE
  Relative segment, address: CODE 0000051C - 00000533 (0x18 bytes), align: 1
  Segment part 8.
           ENTRY                   ADDRESS         REF BY
           =====                   =======         ======
           _sio_getchar            0000051C        print_main_menu (main)
               calls direct
               CSTACK = 00000000 ( 00000001 )
               RSTACK = 00000000 ( 00000002 )

    *************************************************************************

  FILE NAME : D:\HiJack\Applications\TAL_Examples\Performance_Test\ATmega1281\AT86RF212\Debug\Obj\timer.r90
  PROGRAM MODULE, NAME : timer

  SEGMENTS IN THE MODULE
  ======================
ABSOLUTE
  Relative segment, address: DATA 0000007C - 0000007C (0x1 bytes), align: 0
  Segment part 3. ROOT.       Intra module refs:   ac_init
           ENTRY                   ADDRESS         REF BY
           =====                   =======         ======
           _A_ADMUX                0000007C 
           LOCAL                   ADDRESS         
           =====                   =======         
           ADMUX                   0000007C 
    -------------------------------------------------------------------------
ABSOLUTE
  Relative segment, address: DATA 0000007B - 0000007B (0x1 bytes), align: 0
  Segment part 4. ROOT.       Intra module refs:   ac_init
           ENTRY                   ADDRESS         REF BY
           =====                   =======         ======
           _A_ADCSRB               0000007B 
           LOCAL                   ADDRESS         
           =====                   =======         
           ADCSRB                  0000007B 
    -------------------------------------------------------------------------
ABSOLUTE
  Relative segment, address: DATA 0000007A - 0000007A (0x1 bytes), align: 0
  Segment part 5. ROOT.       Intra module refs:   ac_init
           ENTRY                   ADDRESS         REF BY
           =====                   =======         ======
           _A_ADCSRA               0000007A 
           LOCAL                   ADDRESS         
           =====                   =======         
           ADCSRA                  0000007A 
    -------------------------------------------------------------------------
ABSOLUTE
  Relative segment, address: DATA 00000050 - 00000050 (0x1 bytes), align: 0
  Segment part 8. ROOT.       Intra module refs:   ac_init
           ENTRY                   ADDRESS         REF BY
           =====                   =======         ======
           _A_ACSR                 00000050 
           LOCAL                   ADDRESS         
           =====                   =======         
           ACSR                    00000050 
    -------------------------------------------------------------------------
NEAR_Z
  Relative segment, address: DATA 000004E6 - 000004EA (0x5 bytes), align: 0
  Segment part 17.            Intra module refs:   ac_init
                                                   handler_TIMER1_CAPT_vect
           ENTRY                   ADDRESS         REF BY
           =====                   =======         ======
           ac_cap_para             000004E6        get_analog_cmp_freq (main)
    -------------------------------------------------------------------------
CODE
  Relative segment, address: CODE 00000534 - 0000056F (0x3c bytes), align: 1
  Segment part 19.
           ENTRY                   ADDRESS         REF BY
           =====                   =======         ======
           ac_init                 00000534        hal_init (hal)
               calls direct
               RSTACK = 00000000 ( 00000002 )
    -------------------------------------------------------------------------
CODE
  Relative segment, address: CODE 00000570 - 000005EB (0x7c bytes), align: 1
  Segment part 20.            Intra module refs:   handler_TIMER1_CAPT_vect::??INTVEC 64
           ENTRY                   ADDRESS         REF BY
           =====                   =======         ======
           handler_TIMER1_CAPT_vect
                                   00000570 
               interrupt function
               CSTACK = 00000000 ( 0000000A )
               RSTACK = 00000000 ( 00000002 )
    -------------------------------------------------------------------------
INTVEC
  Common segment, address: CODE 00000000 - 00000043 (0x44 bytes), align: 1
  Segment part 14. ROOT.
           ENTRY                   ADDRESS         REF BY
           =====                   =======         ======
           handler_TIMER1_CAPT_vect::??INTVEC 64
                                   00000040 

    *************************************************************************

  FILE NAME : D:\HiJack\Applications\TAL_Examples\Performance_Test\ATmega1281\AT86RF212\Debug\Obj\write.r90
  PROGRAM MODULE, NAME : ?__write

  SEGMENTS IN THE MODULE
  ======================
CODE
  Relative segment, address: CODE 000005EC - 000005FD (0x12 bytes), align: 1
  Segment part 7.             Intra module refs:   __write
           ENTRY                   ADDRESS         REF BY
           =====                   =======         ======
           low_level_putchar       000005EC 
               calls direct
               CSTACK = 00000000 ( 00000002 )
               RSTACK = 00000000 ( 00000002 )
    -------------------------------------------------------------------------
CODE
  Relative segment, address: CODE 000005FE - 0000065F (0x62 bytes), align: 1
  Segment part 8.
           ENTRY                   ADDRESS         REF BY
           =====                   =======         ======
           __write                 000005FE        putchar (?putchar)
               calls direct
               CSTACK = 00000000 ( 00000008 )
               RSTACK = 00000000 ( 00000002 )

    *************************************************************************

  FILE NAME : D:\Program Files\IAR Systems\Embedded Workbench 6.0\avr\LIB\DLIB\dlAVR-3s-ec_mul-n.r90
  LIBRARY MODULE, NAME : ?__dbg_break

  SEGMENTS IN THE MODULE
  ======================
CODE
  Relative segment, address: CODE 00000660 - 00000661 (0x2 bytes), align: 1
  Segment part 3.
           ENTRY                   ADDRESS         REF BY
           =====                   =======         ======
           __DebugBreak            00000660        __exit (?__exit)

    -------------------------------------------------------------------------
  LIBRARY MODULE, NAME : ?__exit

  SEGMENTS IN THE MODULE
  ======================
CODE
  Relative segment, address: CODE 00000662 - 00000677 (0x16 bytes), align: 1
  Segment part 3.
           ENTRY                   ADDRESS         REF BY
           =====                   =======         ======
           __exit                  00000662        Segment part 5 (?_exit)
               calls direct

    -------------------------------------------------------------------------
  LIBRARY MODULE, NAME : ?_exit

  SEGMENTS IN THE MODULE
  ======================
CODE
  Relative segment, address: CODE 00000678, align: 1
  Segment part 0.
           ENTRY                   ADDRESS         REF BY
           =====                   =======         ======
           _exit                   00000678        ?cstartup_call_main (?C_STARTUP)
                                                   exit (?exit)
    -------------------------------------------------------------------------
CODE
  Relative segment, address: CODE 00000678 - 0000067B (0x4 bytes), align: 1
  Segment part 5.             Intra module refs:   _exit

    -------------------------------------------------------------------------
  LIBRARY MODULE, NAME : ?RESET

  SEGMENTS IN THE MODULE
  ======================
INTVEC
  Common segment, address: CODE 00000000 - 00000003 (0x4 bytes), align: 1
  Segment part 0. ROOT.
           ENTRY                   ADDRESS         REF BY
           =====                   =======         ======
           __program_start         00000000        Absolute parts (?ABS_ENTRY_MOD)
           ?RESET                  00000000        Segment part 2 (?C_STARTUP)

    -------------------------------------------------------------------------
  LIBRARY MODULE, NAME : ?C_STARTUP

  SEGMENTS IN THE MODULE
  ======================
CODE
  Relative segment, address: CODE 0000067C, align: 1
  Segment part 2.
           ENTRY                   ADDRESS         REF BY
           =====                   =======         ======
           ?C_STARTUP              0000067C        Segment part 0 (?RESET)
           __RESTART               0000067C 
    -------------------------------------------------------------------------
CODE
  Relative segment, address: CODE 0000067C - 00000687 (0xc bytes), align: 1
  Segment part 5.             Intra module refs:   Segment part 2
    -------------------------------------------------------------------------
CODE
  Relative segment, address: CODE 00000688 - 0000068B (0x4 bytes), align: 1
  Segment part 7.             Intra module refs:   Segment part 5
           ENTRY                   ADDRESS         REF BY
           =====                   =======         ======
           ?call_low_level_init    00000688 
    -------------------------------------------------------------------------
CODE
  Relative segment, address: CODE 0000068C - 00000693 (0x8 bytes), align: 1
  Segment part 8.
           ENTRY                   ADDRESS         REF BY
           =====                   =======         ======
           ?need_segment_init      0000068C        ?<Segment init: NEAR_I> (main)
                                                   ?<Segment init: NEAR_Z> (pal_uart)
    -------------------------------------------------------------------------
CODE
  Relative segment, address: CODE 00000694 - 0000069F (0xc bytes), align: 1
  Segment part 11.            Intra module refs:   ?call_low_level_init
           ENTRY                   ADDRESS         REF BY
           =====                   =======         ======
           ?cstartup_call_main     00000694 

    -------------------------------------------------------------------------
  LIBRARY MODULE, NAME : ?div

  SEGMENTS IN THE MODULE
  ======================
CODE
  Relative segment, address: CODE 000006A0 - 000006C3 (0x24 bytes), align: 1
  Segment part 3.
           ENTRY                   ADDRESS         REF BY
           =====                   =======         ======
           div                     000006A0        _GenldLarge (?xprintflarge)
               CSTACK = 00000000 ( 00000008 )
               RSTACK = 00000000 ( 00000004 )

    -------------------------------------------------------------------------
  LIBRARY MODULE, NAME : ?exit

  SEGMENTS IN THE MODULE
  ======================
CODE
  Relative segment, address: CODE 000006C4 - 000006C7 (0x4 bytes), align: 1
  Segment part 3.
           ENTRY                   ADDRESS         REF BY
           =====                   =======         ======
           exit                    000006C4        ?cstartup_call_main (?C_STARTUP)
               calls direct
               RSTACK = 00000000 ( 00000002 )

    -------------------------------------------------------------------------
  LIBRARY MODULE, NAME : ?S_EC_MUL_L02

  SEGMENTS IN THE MODULE
  ======================
CODE
  Relative segment, address: CODE 000006C8 - 000006D7 (0x10 bytes), align: 1
  Segment part 0.
           ENTRY                   ADDRESS         REF BY
           =====                   =======         ======
           ?S_EC_MUL_L02           000006C8        Segment part 21 (?xprintflarge)
                                                   div (?div)

    -------------------------------------------------------------------------
  LIBRARY MODULE, NAME : ?US_DIVMOD_L02

  SEGMENTS IN THE MODULE
  ======================
CODE
  Relative segment, address: CODE 000006D8 - 000006FF (0x28 bytes), align: 1
  Segment part 0.
           ENTRY                   ADDRESS         REF BY
           =====                   =======         ======
           ?US_DIVMOD_L02          000006D8        ?SS_DIVMOD_L02 (?SS_DIVMOD_L02)

    -------------------------------------------------------------------------
  LIBRARY MODULE, NAME : ?SS_DIVMOD_L02

  SEGMENTS IN THE MODULE
  ======================
CODE
  Relative segment, address: CODE 00000700 - 0000072F (0x30 bytes), align: 1
  Segment part 0.
           ENTRY                   ADDRESS         REF BY
           =====                   =======         ======
           ?SS_DIVMOD_L02          00000708        div (?div)

    -------------------------------------------------------------------------
  LIBRARY MODULE, NAME : ?L_EC_MUL_L03

  SEGMENTS IN THE MODULE
  ======================
CODE
  Relative segment, address: CODE 00000730 - 0000076F (0x40 bytes), align: 1
  Segment part 0.
           ENTRY                   ADDRESS         REF BY
           =====                   =======         ======
           ?L_EC_MUL_L03           00000730        _LdtobLarge (?xprintflarge)
                                                   sio_uart_1_init (pal_uart)

    -------------------------------------------------------------------------
  LIBRARY MODULE, NAME : ?UL_SHR_L03

  SEGMENTS IN THE MODULE
  ======================
CODE
  Relative segment, address: CODE 00000770 - 0000077F (0x10 bytes), align: 1
  Segment part 0.
           ENTRY                   ADDRESS         REF BY
           =====                   =======         ======
           ?UL_SHR_L03             00000770        Segment part 9 (?FLOATS_L04)

    -------------------------------------------------------------------------
  LIBRARY MODULE, NAME : ?UL_DIVMOD_L03

  SEGMENTS IN THE MODULE
  ======================
CODE
  Relative segment, address: CODE 00000780 - 000007C5 (0x46 bytes), align: 1
  Segment part 0.
           ENTRY                   ADDRESS         REF BY
           =====                   =======         ======
           ?UL_DIVMOD_L03          00000780        ?SL_DIVMOD_L03 (?SL_DIVMOD_L03)
                                                   Segment part 81 (?xprintflarge)
                                                   get_analog_cmp_freq (main)
                                                   sio_uart_1_init (pal_uart)

    -------------------------------------------------------------------------
  LIBRARY MODULE, NAME : ?SL_DIVMOD_L03

  SEGMENTS IN THE MODULE
  ======================
CODE
  Relative segment, address: CODE 000007C6 - 000007E9 (0x24 bytes), align: 1
  Segment part 0.
           ENTRY                   ADDRESS         REF BY
           =====                   =======         ======
           ?SL_DIVMOD_L03          000007C6        _LdtobLarge (?xprintflarge)
    -------------------------------------------------------------------------
CODE
  Relative segment, address: CODE 000007EA - 000007F9 (0x10 bytes), align: 1
  Segment part 1.             Intra module refs:   ?SL_DIVMOD_L03
           ENTRY                   ADDRESS         REF BY
           =====                   =======         ======
           ?L_NEG_L03              000007EA        Segment part 9 (?FLOATS_L04)
    -------------------------------------------------------------------------
CODE
  Relative segment, address: CODE 000007FA - 00000809 (0x10 bytes), align: 1
  Segment part 2.             Intra module refs:   ?SL_DIVMOD_L03
           ENTRY                   ADDRESS         REF BY
           =====                   =======         ======
           ?L_NEG_Q_L03            000007FA 

    -------------------------------------------------------------------------
  LIBRARY MODULE, NAME : ?FLOATS_L04

  SEGMENTS IN THE MODULE
  ======================
CODE
  Relative segment, address: CODE 0000080A - 00000833 (0x2a bytes), align: 1
  Segment part 0.             Intra module refs:   ?F2UL_L04
                                                   ?F_ADD_L04
                                                   ?F_DIV_L04
                                                   ?F_MUL_L04
    -------------------------------------------------------------------------
CODE
  Relative segment, address: CODE 00000834 - 00000887 (0x54 bytes), align: 1
  Segment part 1.             Intra module refs:   ?F_ADD_L04
                                                   ?F_DIV_L04
                                                   ?F_MUL_L04
                                                   Segment part 5
           ENTRY                   ADDRESS         REF BY
           =====                   =======         ======
           ?F_ROUND_L04            00000854 
    -------------------------------------------------------------------------
CODE
  Relative segment, address: CODE 00000888 - 00000889 (0x2 bytes), align: 1
  Segment part 3.             Intra module refs:   ?F_ROUND_L04
    -------------------------------------------------------------------------
CODE
  Relative segment, address: CODE 0000088A - 00000895 (0xc bytes), align: 1
  Segment part 5.             Intra module refs:   ?UL2F_L04
    -------------------------------------------------------------------------
CODE
  Relative segment, address: CODE 00000896 - 00000899 (0x4 bytes), align: 1
  Segment part 6.
           ENTRY                   ADDRESS         REF BY
           =====                   =======         ======
           ?UL2F_L04               00000896        _LdtobLarge (?xprintflarge)
    -------------------------------------------------------------------------
CODE
  Relative segment, address: CODE 0000089A - 000008AD (0x14 bytes), align: 1
  Segment part 7.
           ENTRY                   ADDRESS         REF BY
           =====                   =======         ======
           ?F2UL_L04               0000089A        _LdtobLarge (?xprintflarge)
    -------------------------------------------------------------------------
CODE
  Relative segment, address: CODE 000008AE - 000008D1 (0x24 bytes), align: 1
  Segment part 9.             Intra module refs:   ?F2UL_L04
    -------------------------------------------------------------------------
CODE
  Relative segment, address: CODE 000008D2 - 000008FF (0x2e bytes), align: 1
  Segment part 10.            Intra module refs:   ?F_ADD_L04
                                                   ?F_CMP_LT_L04
                                                   ?F_DIV_L04
                                                   ?F_MUL_L04
                                                   Segment part 11
           ENTRY                   ADDRESS         REF BY
           =====                   =======         ======
           ?TEST_P_L04             000008D2 
    -------------------------------------------------------------------------
CODE
  Relative segment, address: CODE 00000900 - 0000091F (0x20 bytes), align: 1
  Segment part 11.            Intra module refs:   ?F_ADD_L04
                                                   ?F_CMP_LT_L04
                                                   ?F_DIV_L04
                                                   ?F_MUL_L04
                                                   Segment part 17
                                                   Segment part 22
    -------------------------------------------------------------------------
CODE
  Relative segment, address: CODE 00000920 - 000009C7 (0xa8 bytes), align: 1
  Segment part 12.            Intra module refs:   ?F_SUB_L04
                                                   Segment part 17
           ENTRY                   ADDRESS         REF BY
           =====                   =======         ======
           ?F_ADD_L04              00000940 
    -------------------------------------------------------------------------
CODE
  Relative segment, address: CODE 000009C8 - 000009CD (0x6 bytes), align: 1
  Segment part 13.
           ENTRY                   ADDRESS         REF BY
           =====                   =======         ======
           ?F_SUB_L04              000009C8        _LdtobLarge (?xprintflarge)
    -------------------------------------------------------------------------
CODE
  Relative segment, address: CODE 000009CE - 000009D9 (0xc bytes), align: 1
  Segment part 14.            Intra module refs:   ?F_DIV_L04
                                                   ?F_INFINITE_L04
                                                   ?F_MUL_L04
                                                   ?F_NAN_L04
                                                   Segment part 9
           ENTRY                   ADDRESS         REF BY
           =====                   =======         ======
           ?F_ZERO_L04             000009CE 
    -------------------------------------------------------------------------
CODE
  Relative segment, address: CODE 000009DA - 000009E1 (0x8 bytes), align: 1
  Segment part 15.            Intra module refs:   ?F_DIV_L04
                                                   ?F_MUL_L04
                                                   Segment part 3
           ENTRY                   ADDRESS         REF BY
           =====                   =======         ======
           ?F_INFINITE_L04         000009DA 
    -------------------------------------------------------------------------
CODE
  Relative segment, address: CODE 000009E2 - 000009E7 (0x6 bytes), align: 1
  Segment part 16.            Intra module refs:   ?F_ADD_L04
                                                   ?F_DIV_L04
                                                   ?F_MUL_L04
                                                   Segment part 17
           ENTRY                   ADDRESS         REF BY
           =====                   =======         ======
           ?F_NAN_L04              000009E2 
    -------------------------------------------------------------------------
CODE
  Relative segment, address: CODE 000009E8 - 00000A01 (0x1a bytes), align: 1
  Segment part 17.            Intra module refs:   ?F_DIV_L04
                                                   ?F_MUL_L04
    -------------------------------------------------------------------------
CODE
  Relative segment, address: CODE 00000A02 - 00000AD7 (0xd6 bytes), align: 1
  Segment part 18.
           ENTRY                   ADDRESS         REF BY
           =====                   =======         ======
           ?F_MUL_L04              00000A02        Segment part 75 (?xprintflarge)
                                                   scale (?xprintflarge)
    -------------------------------------------------------------------------
CODE
  Relative segment, address: CODE 00000AD8 - 00000BE7 (0x110 bytes), align: 1
  Segment part 19.
           ENTRY                   ADDRESS         REF BY
           =====                   =======         ======
           ?F_DIV_L04              00000AF4        _LdtobLarge (?xprintflarge)
    -------------------------------------------------------------------------
CODE
  Relative segment, address: CODE 00000BE8 - 00000BEF (0x8 bytes), align: 1
  Segment part 21.
           ENTRY                   ADDRESS         REF BY
           =====                   =======         ======
           ?F_CMP_LT_L04           00000BE8        _LdtobLarge (?xprintflarge)
    -------------------------------------------------------------------------
CODE
  Relative segment, address: CODE 00000BF0 - 00000C17 (0x28 bytes), align: 1
  Segment part 22.            Intra module refs:   ?F_CMP_LT_L04

    -------------------------------------------------------------------------
  LIBRARY MODULE, NAME : ?xV_SWITCH_L06

  SEGMENTS IN THE MODULE
  ======================
CODE
  Relative segment, address: CODE 00000C18 - 00000CB3 (0x9c bytes), align: 1
  Segment part 0.
           ENTRY                   ADDRESS         REF BY
           =====                   =======         ======
           ?CV_SWITCH_L06          00000C2A        _PrintfLarge (?xprintflarge)
           ?SV_SWITCH_L06          00000C32 
           ?LV_SWITCH_L06          00000C3E 

    -------------------------------------------------------------------------
  LIBRARY MODULE, NAME : ?MOVE_LONG_L07

  SEGMENTS IN THE MODULE
  ======================
CODE
  Relative segment, address: CODE 00000CB4 - 00000CC9 (0x16 bytes), align: 1
  Segment part 0.
           ENTRY                   ADDRESS         REF BY
           =====                   =======         ======
           ?ML_SRAM_SRAM_16_L07    00000CB4        Segment part 72 (?xprintflarge)

    -------------------------------------------------------------------------
  LIBRARY MODULE, NAME : ?PROLOGUE_L09

  SEGMENTS IN THE MODULE
  ======================
CODE
  Relative segment, address: CODE 00000CCA - 00000CCB (0x2 bytes), align: 1
  Segment part 0.
           ENTRY                   ADDRESS         REF BY
           =====                   =======         ======
           ?PROLOGUE16_L09         00000CCA        _LdtobLarge (?xprintflarge)
                                                   _LitobLarge (?xprintflarge)
    -------------------------------------------------------------------------
CODE
  Relative segment, address: CODE 00000CCC - 00000CCD (0x2 bytes), align: 1
  Segment part 1.             Intra module refs:   ?PROLOGUE16_L09
           ENTRY                   ADDRESS         REF BY
           =====                   =======         ======
           ?PROLOGUE15_L09         00000CCC 
    -------------------------------------------------------------------------
CODE
  Relative segment, address: CODE 00000CCE - 00000CCF (0x2 bytes), align: 1
  Segment part 2.             Intra module refs:   ?PROLOGUE15_L09
           ENTRY                   ADDRESS         REF BY
           =====                   =======         ======
           ?PROLOGUE14_L09         00000CCE 
    -------------------------------------------------------------------------
CODE
  Relative segment, address: CODE 00000CD0 - 00000CD1 (0x2 bytes), align: 1
  Segment part 3.             Intra module refs:   ?PROLOGUE14_L09
           ENTRY                   ADDRESS         REF BY
           =====                   =======         ======
           ?PROLOGUE13_L09         00000CD0 
    -------------------------------------------------------------------------
CODE
  Relative segment, address: CODE 00000CD2 - 00000CD3 (0x2 bytes), align: 1
  Segment part 4.             Intra module refs:   ?PROLOGUE13_L09
           ENTRY                   ADDRESS         REF BY
           =====                   =======         ======
           ?PROLOGUE12_L09         00000CD2 
    -------------------------------------------------------------------------
CODE
  Relative segment, address: CODE 00000CD4 - 00000CD5 (0x2 bytes), align: 1
  Segment part 5.             Intra module refs:   ?PROLOGUE12_L09
           ENTRY                   ADDRESS         REF BY
           =====                   =======         ======
           ?PROLOGUE11_L09         00000CD4        _GenldLarge (?xprintflarge)
    -------------------------------------------------------------------------
CODE
  Relative segment, address: CODE 00000CD6 - 00000CD7 (0x2 bytes), align: 1
  Segment part 6.             Intra module refs:   ?PROLOGUE11_L09
           ENTRY                   ADDRESS         REF BY
           =====                   =======         ======
           ?PROLOGUE10_L09         00000CD6        scale (?xprintflarge)
    -------------------------------------------------------------------------
CODE
  Relative segment, address: CODE 00000CD8 - 00000CD9 (0x2 bytes), align: 1
  Segment part 7.             Intra module refs:   ?PROLOGUE10_L09
           ENTRY                   ADDRESS         REF BY
           =====                   =======         ======
           ?PROLOGUE9_L09          00000CD8 
    -------------------------------------------------------------------------
CODE
  Relative segment, address: CODE 00000CDA - 00000CDB (0x2 bytes), align: 1
  Segment part 8.             Intra module refs:   ?PROLOGUE9_L09
           ENTRY                   ADDRESS         REF BY
           =====                   =======         ======
           ?PROLOGUE8_L09          00000CDA        Segment part 61 (?xprintflarge)
                                                   __write (?__write)
                                                   div (?div)
                                                   sio_uart_1_init (pal_uart)
    -------------------------------------------------------------------------
CODE
  Relative segment, address: CODE 00000CDC - 00000CDD (0x2 bytes), align: 1
  Segment part 9.             Intra module refs:   ?PROLOGUE8_L09
           ENTRY                   ADDRESS         REF BY
           =====                   =======         ======
           ?PROLOGUE7_L09          00000CDC 
    -------------------------------------------------------------------------
CODE
  Relative segment, address: CODE 00000CDE - 00000CDF (0x2 bytes), align: 1
  Segment part 10.            Intra module refs:   ?PROLOGUE7_L09
           ENTRY                   ADDRESS         REF BY
           =====                   =======         ======
           ?PROLOGUE6_L09          00000CDE 
    -------------------------------------------------------------------------
CODE
  Relative segment, address: CODE 00000CE0 - 00000CE1 (0x2 bytes), align: 1
  Segment part 11.            Intra module refs:   ?PROLOGUE6_L09
           ENTRY                   ADDRESS         REF BY
           =====                   =======         ======
           ?PROLOGUE5_L09          00000CE0        pal_sio_rx (pal_sio_hub)
                                                   pal_sio_tx (pal_sio_hub)
    -------------------------------------------------------------------------
CODE
  Relative segment, address: CODE 00000CE2 - 00000CE3 (0x2 bytes), align: 1
  Segment part 12.            Intra module refs:   ?PROLOGUE5_L09
           ENTRY                   ADDRESS         REF BY
           =====                   =======         ======
           ?PROLOGUE4_L09          00000CE2        _Prout (?xprout)
                                                   __iar_Dunscale (?xdunscal)
    -------------------------------------------------------------------------
CODE
  Relative segment, address: CODE 00000CE4 - 00000CE5 (0x2 bytes), align: 1
  Segment part 13.            Intra module refs:   ?PROLOGUE4_L09
           ENTRY                   ADDRESS         REF BY
           =====                   =======         ======
           ?PROLOGUE3_L09          00000CE4 
    -------------------------------------------------------------------------
CODE
  Relative segment, address: CODE 00000CE6 - 00000CE7 (0x2 bytes), align: 1
  Segment part 14.            Intra module refs:   ?PROLOGUE3_L09
           ENTRY                   ADDRESS         REF BY
           =====                   =======         ======
           ?PROLOGUE2_L09          00000CE6 
    -------------------------------------------------------------------------
CODE
  Relative segment, address: CODE 00000CE8 - 00000CE9 (0x2 bytes), align: 1
  Segment part 15.            Intra module refs:   ?PROLOGUE2_L09
           ENTRY                   ADDRESS         REF BY
           =====                   =======         ======
           ?PROLOGUE1_L09          00000CE8 
    -------------------------------------------------------------------------
CODE
  Relative segment, address: CODE 00000CEA - 00000CEB (0x2 bytes), align: 1
  Segment part 16.            Intra module refs:   ?PROLOGUE1_L09

    -------------------------------------------------------------------------
  LIBRARY MODULE, NAME : ?EPILOGUE_B_L09

  SEGMENTS IN THE MODULE
  ======================
CODE
  Relative segment, address: CODE 00000CEC - 00000CED (0x2 bytes), align: 1
  Segment part 0.
           ENTRY                   ADDRESS         REF BY
           =====                   =======         ======
           ?EPILOGUE_B16_L09       00000CEC        Segment part 63 (?xprintflarge)
    -------------------------------------------------------------------------
CODE
  Relative segment, address: CODE 00000CEE - 00000CEF (0x2 bytes), align: 1
  Segment part 1.             Intra module refs:   ?EPILOGUE_B16_L09
           ENTRY                   ADDRESS         REF BY
           =====                   =======         ======
           ?EPILOGUE_B15_L09       00000CEE 
    -------------------------------------------------------------------------
CODE
  Relative segment, address: CODE 00000CF0 - 00000CF1 (0x2 bytes), align: 1
  Segment part 2.             Intra module refs:   ?EPILOGUE_B15_L09
           ENTRY                   ADDRESS         REF BY
           =====                   =======         ======
           ?EPILOGUE_B14_L09       00000CF0 
    -------------------------------------------------------------------------
CODE
  Relative segment, address: CODE 00000CF2 - 00000CF3 (0x2 bytes), align: 1
  Segment part 3.             Intra module refs:   ?EPILOGUE_B14_L09
           ENTRY                   ADDRESS         REF BY
           =====                   =======         ======
           ?EPILOGUE_B13_L09       00000CF2 
    -------------------------------------------------------------------------
CODE
  Relative segment, address: CODE 00000CF4 - 00000CF5 (0x2 bytes), align: 1
  Segment part 4.             Intra module refs:   ?EPILOGUE_B13_L09
           ENTRY                   ADDRESS         REF BY
           =====                   =======         ======
           ?EPILOGUE_B12_L09       00000CF4 
    -------------------------------------------------------------------------
CODE
  Relative segment, address: CODE 00000CF6 - 00000CF7 (0x2 bytes), align: 1
  Segment part 5.             Intra module refs:   ?EPILOGUE_B12_L09
           ENTRY                   ADDRESS         REF BY
           =====                   =======         ======
           ?EPILOGUE_B11_L09       00000CF6        _GenldLarge (?xprintflarge)
    -------------------------------------------------------------------------
CODE
  Relative segment, address: CODE 00000CF8 - 00000CF9 (0x2 bytes), align: 1
  Segment part 6.             Intra module refs:   ?EPILOGUE_B11_L09
           ENTRY                   ADDRESS         REF BY
           =====                   =======         ======
           ?EPILOGUE_B10_L09       00000CF8        scale (?xprintflarge)
    -------------------------------------------------------------------------
CODE
  Relative segment, address: CODE 00000CFA - 00000CFB (0x2 bytes), align: 1
  Segment part 7.             Intra module refs:   ?EPILOGUE_B10_L09
           ENTRY                   ADDRESS         REF BY
           =====                   =======         ======
           ?EPILOGUE_B9_L09        00000CFA 
    -------------------------------------------------------------------------
CODE
  Relative segment, address: CODE 00000CFC - 00000CFD (0x2 bytes), align: 1
  Segment part 8.             Intra module refs:   ?EPILOGUE_B9_L09
           ENTRY                   ADDRESS         REF BY
           =====                   =======         ======
           ?EPILOGUE_B8_L09        00000CFC        Segment part 13 (?xprintflarge)
                                                   __write (?__write)
                                                   div (?div)
                                                   sio_uart_1_init (pal_uart)
    -------------------------------------------------------------------------
CODE
  Relative segment, address: CODE 00000CFE - 00000CFF (0x2 bytes), align: 1
  Segment part 9.             Intra module refs:   ?EPILOGUE_B8_L09
           ENTRY                   ADDRESS         REF BY
           =====                   =======         ======
           ?EPILOGUE_B7_L09        00000CFE 
    -------------------------------------------------------------------------
CODE
  Relative segment, address: CODE 00000D00 - 00000D01 (0x2 bytes), align: 1
  Segment part 10.            Intra module refs:   ?EPILOGUE_B7_L09
           ENTRY                   ADDRESS         REF BY
           =====                   =======         ======
           ?EPILOGUE_B6_L09        00000D00 
    -------------------------------------------------------------------------
CODE
  Relative segment, address: CODE 00000D02 - 00000D03 (0x2 bytes), align: 1
  Segment part 11.            Intra module refs:   ?EPILOGUE_B6_L09
           ENTRY                   ADDRESS         REF BY
           =====                   =======         ======
           ?EPILOGUE_B5_L09        00000D02        pal_sio_rx (pal_sio_hub)
                                                   pal_sio_tx (pal_sio_hub)
    -------------------------------------------------------------------------
CODE
  Relative segment, address: CODE 00000D04 - 00000D05 (0x2 bytes), align: 1
  Segment part 12.            Intra module refs:   ?EPILOGUE_B5_L09
           ENTRY                   ADDRESS         REF BY
           =====                   =======         ======
           ?EPILOGUE_B4_L09        00000D04        _Prout (?xprout)
                                                   __iar_Dunscale (?xdunscal)
    -------------------------------------------------------------------------
CODE
  Relative segment, address: CODE 00000D06 - 00000D07 (0x2 bytes), align: 1
  Segment part 13.            Intra module refs:   ?EPILOGUE_B4_L09
           ENTRY                   ADDRESS         REF BY
           =====                   =======         ======
           ?EPILOGUE_B3_L09        00000D06 
    -------------------------------------------------------------------------
CODE
  Relative segment, address: CODE 00000D08 - 00000D09 (0x2 bytes), align: 1
  Segment part 14.            Intra module refs:   ?EPILOGUE_B3_L09
           ENTRY                   ADDRESS         REF BY
           =====                   =======         ======
           ?EPILOGUE_B2_L09        00000D08 
    -------------------------------------------------------------------------
CODE
  Relative segment, address: CODE 00000D0A - 00000D0B (0x2 bytes), align: 1
  Segment part 15.            Intra module refs:   ?EPILOGUE_B2_L09
           ENTRY                   ADDRESS         REF BY
           =====                   =======         ======
           ?EPILOGUE_B1_L09        00000D0A 
    -------------------------------------------------------------------------
CODE
  Relative segment, address: CODE 00000D0C - 00000D15 (0xa bytes), align: 1
  Segment part 16.            Intra module refs:   ?EPILOGUE_B1_L09
           ENTRY                   ADDRESS         REF BY
           =====                   =======         ======
           ?EPILOGUE_B0_L09        00000D0C 

    -------------------------------------------------------------------------
  LIBRARY MODULE, NAME : ?REGISTER_CGREGR4_L10

  SEGMENTS IN THE MODULE
  ======================
CODE
  Relative segment, address: CODE 00000D16, align: 1
  Segment part 0.
           ENTRY                   ADDRESS         REF BY
           =====                   =======         ======
           ?Register_R4_is_cg_reg
                                   00000D16        ?ULL_DIV_L12 (?LL_DIV_L12)
                                                   ?ULL_MOD_L12 (?LL_DIV_L12)
                                                   Segment part 1 (?LL_DIV_L12)
                                                   Segment part 2 (?LL_DIV_L12)
                                                   Segment part 3 (?LL_DIV_L12)
                                                   _GenldLarge (?xprintflarge)
                                                   _LdtobLarge (?xprintflarge)
                                                   _LitobLarge (?xprintflarge)
                                                   _PrintfLarge (?xprintflarge)
                                                   _PutcharsLarge (?xprintflarge)
                                                   __write (?__write)
                                                   pad (?xprintflarge)
                                                   pal_sio_rx (pal_sio_hub)
                                                   pal_sio_tx (pal_sio_hub)
                                                   scale (?xprintflarge)
                                                   sio_uart_1_init (pal_uart)

    -------------------------------------------------------------------------
  LIBRARY MODULE, NAME : ?REGISTER_CGREGR5_L10

  SEGMENTS IN THE MODULE
  ======================
CODE
  Relative segment, address: CODE 00000D16, align: 1
  Segment part 0.
           ENTRY                   ADDRESS         REF BY
           =====                   =======         ======
           ?Register_R5_is_cg_reg
                                   00000D16        _GenldLarge (?xprintflarge)
                                                   _LdtobLarge (?xprintflarge)
                                                   _LitobLarge (?xprintflarge)
                                                   _PrintfLarge (?xprintflarge)
                                                   _PutcharsLarge (?xprintflarge)
                                                   __write (?__write)
                                                   pad (?xprintflarge)
                                                   scale (?xprintflarge)
                                                   sio_uart_1_init (pal_uart)

    -------------------------------------------------------------------------
  LIBRARY MODULE, NAME : ?REGISTER_CGREGR6_L10

  SEGMENTS IN THE MODULE
  ======================
CODE
  Relative segment, address: CODE 00000D16, align: 1
  Segment part 0.
           ENTRY                   ADDRESS         REF BY
           =====                   =======         ======
           ?Register_R6_is_cg_reg
                                   00000D16        _GenldLarge (?xprintflarge)
                                                   _LdtobLarge (?xprintflarge)
                                                   _LitobLarge (?xprintflarge)
                                                   _PrintfLarge (?xprintflarge)
                                                   _PutcharsLarge (?xprintflarge)
                                                   __write (?__write)
                                                   div (?div)
                                                   pad (?xprintflarge)
                                                   scale (?xprintflarge)
                                                   sio_uart_1_init (pal_uart)

    -------------------------------------------------------------------------
  LIBRARY MODULE, NAME : ?REGISTER_CGREGR7_L10

  SEGMENTS IN THE MODULE
  ======================
CODE
  Relative segment, address: CODE 00000D16, align: 1
  Segment part 0.
           ENTRY                   ADDRESS         REF BY
           =====                   =======         ======
           ?Register_R7_is_cg_reg
                                   00000D16        _GenldLarge (?xprintflarge)
                                                   _LdtobLarge (?xprintflarge)
                                                   _LitobLarge (?xprintflarge)
                                                   _PrintfLarge (?xprintflarge)
                                                   _PutcharsLarge (?xprintflarge)
                                                   __write (?__write)
                                                   div (?div)
                                                   pad (?xprintflarge)
                                                   scale (?xprintflarge)
                                                   sio_uart_1_init (pal_uart)

    -------------------------------------------------------------------------
  LIBRARY MODULE, NAME : ?REGISTER_CGREGR8_L10

  SEGMENTS IN THE MODULE
  ======================
CODE
  Relative segment, address: CODE 00000D16, align: 1
  Segment part 0.
           ENTRY                   ADDRESS         REF BY
           =====                   =======         ======
           ?Register_R8_is_cg_reg
                                   00000D16        _GenldLarge (?xprintflarge)
                                                   _LdtobLarge (?xprintflarge)
                                                   _LitobLarge (?xprintflarge)
                                                   scale (?xprintflarge)

    -------------------------------------------------------------------------
  LIBRARY MODULE, NAME : ?REGISTER_CGREGR9_L10

  SEGMENTS IN THE MODULE
  ======================
CODE
  Relative segment, address: CODE 00000D16, align: 1
  Segment part 0.
           ENTRY                   ADDRESS         REF BY
           =====                   =======         ======
           ?Register_R9_is_cg_reg
                                   00000D16        _GenldLarge (?xprintflarge)
                                                   _LdtobLarge (?xprintflarge)
                                                   _LitobLarge (?xprintflarge)
                                                   scale (?xprintflarge)

    -------------------------------------------------------------------------
  LIBRARY MODULE, NAME : ?REGISTER_CGREGR10_L10

  SEGMENTS IN THE MODULE
  ======================
CODE
  Relative segment, address: CODE 00000D16, align: 1
  Segment part 0.
           ENTRY                   ADDRESS         REF BY
           =====                   =======         ======
           ?Register_R10_is_cg_reg
                                   00000D16        _GenldLarge (?xprintflarge)
                                                   _LdtobLarge (?xprintflarge)
                                                   _LitobLarge (?xprintflarge)

    -------------------------------------------------------------------------
  LIBRARY MODULE, NAME : ?REGISTER_CGREGR11_L10

  SEGMENTS IN THE MODULE
  ======================
CODE
  Relative segment, address: CODE 00000D16, align: 1
  Segment part 0.
           ENTRY                   ADDRESS         REF BY
           =====                   =======         ======
           ?Register_R11_is_cg_reg
                                   00000D16        _LdtobLarge (?xprintflarge)
                                                   _LitobLarge (?xprintflarge)

    -------------------------------------------------------------------------
  LIBRARY MODULE, NAME : ?REGISTER_CGREGR12_L10

  SEGMENTS IN THE MODULE
  ======================
CODE
  Relative segment, address: CODE 00000D16, align: 1
  Segment part 0.
           ENTRY                   ADDRESS         REF BY
           =====                   =======         ======
           ?Register_R12_is_cg_reg
                                   00000D16        _LdtobLarge (?xprintflarge)
                                                   _LitobLarge (?xprintflarge)

    -------------------------------------------------------------------------
  LIBRARY MODULE, NAME : ?REGISTER_CGREGR13_L10

  SEGMENTS IN THE MODULE
  ======================
CODE
  Relative segment, address: CODE 00000D16, align: 1
  Segment part 0.
           ENTRY                   ADDRESS         REF BY
           =====                   =======         ======
           ?Register_R13_is_cg_reg
                                   00000D16        _LdtobLarge (?xprintflarge)
                                                   _LitobLarge (?xprintflarge)

    -------------------------------------------------------------------------
  LIBRARY MODULE, NAME : ?REGISTER_CGREGR14_L10

  SEGMENTS IN THE MODULE
  ======================
CODE
  Relative segment, address: CODE 00000D16, align: 1
  Segment part 0.
           ENTRY                   ADDRESS         REF BY
           =====                   =======         ======
           ?Register_R14_is_cg_reg
                                   00000D16        _LdtobLarge (?xprintflarge)
                                                   _LitobLarge (?xprintflarge)

    -------------------------------------------------------------------------
  LIBRARY MODULE, NAME : ?REGISTER_CGREGR15_L10

  SEGMENTS IN THE MODULE
  ======================
CODE
  Relative segment, address: CODE 00000D16, align: 1
  Segment part 0.
           ENTRY                   ADDRESS         REF BY
           =====                   =======         ======
           ?Register_R15_is_cg_reg
                                   00000D16        _LdtobLarge (?xprintflarge)
                                                   _LitobLarge (?xprintflarge)

    -------------------------------------------------------------------------
  LIBRARY MODULE, NAME : ?LL_DIV_L12

  SEGMENTS IN THE MODULE
  ======================
CODE
  Relative segment, address: CODE 00000D16 - 00000D1B (0x6 bytes), align: 1
  Segment part 0.
           ENTRY                   ADDRESS         REF BY
           =====                   =======         ======
           ?ULL_DIV_L12            00000D16        _LitobLarge (?xprintflarge)
    -------------------------------------------------------------------------
CODE
  Relative segment, address: CODE 00000D1C - 00000D37 (0x1c bytes), align: 1
  Segment part 1.             Intra module refs:   ?ULL_DIV_L12
                                                   ?ULL_MOD_L12
    -------------------------------------------------------------------------
CODE
  Relative segment, address: CODE 00000D38 - 00000D67 (0x30 bytes), align: 1
  Segment part 2.             Intra module refs:   ?ULL_DIV_L12
    -------------------------------------------------------------------------
CODE
  Relative segment, address: CODE 00000D68 - 00000D73 (0xc bytes), align: 1
  Segment part 3.             Intra module refs:   ?ULL_MOD_L12
                                                   Segment part 2
    -------------------------------------------------------------------------
CODE
  Relative segment, address: CODE 00000D74 - 00000DD7 (0x64 bytes), align: 1
  Segment part 4.             Intra module refs:   ?ULL_DIV_L12
                                                   ?ULL_MOD_L12
    -------------------------------------------------------------------------
CODE
  Relative segment, address: CODE 00000DD8 - 00000DDF (0x8 bytes), align: 1
  Segment part 5.
           ENTRY                   ADDRESS         REF BY
           =====                   =======         ======
           ?ULL_MOD_L12            00000DD8        _LitobLarge (?xprintflarge)

    -------------------------------------------------------------------------
  LIBRARY MODULE, NAME : ?LONGLONG

  SEGMENTS IN THE MODULE
  ======================
CODE
  Relative segment, address: CODE 00000DE0 - 00000DFF (0x20 bytes), align: 1
  Segment part 8.
           ENTRY                   ADDRESS         REF BY
           =====                   =======         ======
           ?LL_NEG_L12             00000DE0        _LitobLarge (?xprintflarge)
    -------------------------------------------------------------------------
CODE
  Relative segment, address: CODE 00000E00 - 00000E21 (0x22 bytes), align: 1
  Segment part 9.
           ENTRY                   ADDRESS         REF BY
           =====                   =======         ======
           ?LL_CMP_L12             00000E00        Segment part 67 (?xprintflarge)

    -------------------------------------------------------------------------
  LIBRARY MODULE, NAME : ?low_level_init

  SEGMENTS IN THE MODULE
  ======================
CODE
  Relative segment, address: CODE 00000E22 - 00000E25 (0x4 bytes), align: 1
  Segment part 3.
           ENTRY                   ADDRESS         REF BY
           =====                   =======         ======
           __low_level_init        00000E22        ?call_low_level_init (?C_STARTUP)
               RSTACK = 00000000 ( 00000002 )

    -------------------------------------------------------------------------
  LIBRARY MODULE, NAME : ?memchr

  SEGMENTS IN THE MODULE
  ======================
CODE
  Relative segment, address: CODE 00000E26 - 00000E45 (0x20 bytes), align: 1
  Segment part 4.
           ENTRY                   ADDRESS         REF BY
           =====                   =======         ======
           __iar_Memchr            00000E26        _PrintfLarge (?xprintflarge)
               RSTACK = 00000000 ( 00000002 )

    -------------------------------------------------------------------------
  LIBRARY MODULE, NAME : ?memcpy

  SEGMENTS IN THE MODULE
  ======================
CODE
  Relative segment, address: CODE 00000E46 - 00000E5F (0x1a bytes), align: 1
  Segment part 3.
           ENTRY                   ADDRESS         REF BY
           =====                   =======         ======
           memcpy                  00000E46        Segment part 87 (?xprintflarge)
               RSTACK = 00000000 ( 00000002 )

    -------------------------------------------------------------------------
  LIBRARY MODULE, NAME : ?memset

  SEGMENTS IN THE MODULE
  ======================
CODE
  Relative segment, address: CODE 00000E60 - 00000E71 (0x12 bytes), align: 1
  Segment part 3.
           ENTRY                   ADDRESS         REF BY
           =====                   =======         ======
           memset                  00000E60        ac_init (timer)
               RSTACK = 00000000 ( 00000002 )

    -------------------------------------------------------------------------
  LIBRARY MODULE, NAME : ?printf

  SEGMENTS IN THE MODULE
  ======================
CODE
  Relative segment, address: CODE 00000E72 - 00000E91 (0x20 bytes), align: 1
  Segment part 3.
           ENTRY                   ADDRESS         REF BY
           =====                   =======         ======
           printf                  00000E72        get_analog_cmp_freq (main)
                                                   main (main)
               calls direct
               CSTACK = 00000000 ( 00000002 )
               RSTACK = 00000000 ( 00000002 )

    -------------------------------------------------------------------------
  LIBRARY MODULE, NAME : ?putchar

  SEGMENTS IN THE MODULE
  ======================
CODE
  Relative segment, address: CODE 00000E92 - 00000EC5 (0x34 bytes), align: 1
  Segment part 3.
           ENTRY                   ADDRESS         REF BY
           =====                   =======         ======
           putchar                 00000E92        _Prout (?xprout)
               calls direct
               CSTACK = 00000000 ( 00000003 )
               RSTACK = 00000000 ( 00000002 )

    -------------------------------------------------------------------------
  LIBRARY MODULE, NAME : ?segment_init

  SEGMENTS IN THE MODULE
  ======================
CODE
  Relative segment, address: CODE 00000EC6 - 00000ECD (0x8 bytes), align: 1
  Segment part 3.             Intra module refs:   __segment_init
           LOCAL                   ADDRESS         
           =====                   =======         
           __memclr                00000EC6 
               RSTACK = 00000000 ( 00000002 )
    -------------------------------------------------------------------------
CODE
  Relative segment, address: CODE 00000ECE - 00000ED9 (0xc bytes), align: 1
  Segment part 4.             Intra module refs:   __segment_init
           LOCAL                   ADDRESS         
           =====                   =======         
           __flashcpy              00000ECE 
               RSTACK = 00000000 ( 00000002 )
    -------------------------------------------------------------------------
CODE
  Relative segment, address: CODE 00000EDA - 00000EE5 (0xc bytes), align: 1
  Segment part 5.             Intra module refs:   __flashcpy
                                                   __memclr
    -------------------------------------------------------------------------
CODE
  Relative segment, address: CODE 00000EE6 - 00000F45 (0x60 bytes), align: 1
  Segment part 6.
           ENTRY                   ADDRESS         REF BY
           =====                   =======         ======
           __segment_init          00000EE6        ?need_segment_init (?C_STARTUP)
               calls direct
               RSTACK = 00000000 ( 00000002 )

    -------------------------------------------------------------------------
  LIBRARY MODULE, NAME : ?strchr

  SEGMENTS IN THE MODULE
  ======================
CODE
  Relative segment, address: CODE 00000F46 - 00000F59 (0x14 bytes), align: 1
  Segment part 4.
           ENTRY                   ADDRESS         REF BY
           =====                   =======         ======
           __iar_Strchr            00000F46        _PrintfLarge (?xprintflarge)
               RSTACK = 00000000 ( 00000002 )

    -------------------------------------------------------------------------
  LIBRARY MODULE, NAME : ?strlen

  SEGMENTS IN THE MODULE
  ======================
CODE
  Relative segment, address: CODE 00000F5A - 00000F6D (0x14 bytes), align: 1
  Segment part 3.
           ENTRY                   ADDRESS         REF BY
           =====                   =======         ======
           strlen                  00000F5A        _PrintfLarge (?xprintflarge)
               RSTACK = 00000000 ( 00000002 )

    -------------------------------------------------------------------------
  LIBRARY MODULE, NAME : ?xdnorm

  SEGMENTS IN THE MODULE
  ======================
CODE
  Relative segment, address: CODE 00000F6E - 00000FCB (0x5e bytes), align: 1
  Segment part 3.
           ENTRY                   ADDRESS         REF BY
           =====                   =======         ======
           __iar_Dnorm             00000F6E        __iar_Dunscale (?xdunscal)
               RSTACK = 00000000 ( 00000002 )

    -------------------------------------------------------------------------
  LIBRARY MODULE, NAME : ?xdunscal

  SEGMENTS IN THE MODULE
  ======================
CODE
  Relative segment, address: CODE 00000FCC - 00001043 (0x78 bytes), align: 1
  Segment part 3.
           ENTRY                   ADDRESS         REF BY
           =====                   =======         ======
           __iar_Dunscale          00000FCC        _LdtobLarge (?xprintflarge)
               calls direct
               CSTACK = 00000000 ( 00000004 )
               RSTACK = 00000000 ( 00000002 )

    -------------------------------------------------------------------------
  LIBRARY MODULE, NAME : ?xprintflarge

  SEGMENTS IN THE MODULE
  ======================
CODE
  Relative segment, address: CODE 00001044 - 000013E1 (0x39e bytes), align: 1
  Segment part 12.            Intra module refs:   Segment part 108
           ENTRY                   ADDRESS         REF BY
           =====                   =======         ======
           _PrintfLarge            00001044        printf (?printf)
               calls direct
               CSTACK = 00000000 ( 00000067 )
               RSTACK = 00000000 ( 00000004 )
    -------------------------------------------------------------------------
CODE
  Relative segment, address: CODE 000013E2 - 000013E7 (0x6 bytes), align: 1
  Segment part 13.            Intra module refs:   _PrintfLarge
                                                   _PutcharsLarge
                                                   pad
    -------------------------------------------------------------------------
CODE
  Relative segment, address: CODE 000013E8 - 000013F3 (0xc bytes), align: 1
  Segment part 14.            Intra module refs:   _PrintfLarge
    -------------------------------------------------------------------------
CODE
  Relative segment, address: CODE 000013F4 - 000013F9 (0x6 bytes), align: 1
  Segment part 15.            Intra module refs:   _PrintfLarge
    -------------------------------------------------------------------------
CODE
  Relative segment, address: CODE 000013FA - 000013FF (0x6 bytes), align: 1
  Segment part 16.            Intra module refs:   _PrintfLarge
    -------------------------------------------------------------------------
CODE
  Relative segment, address: CODE 00001400 - 0000140D (0xe bytes), align: 1
  Segment part 17.            Intra module refs:   _PrintfLarge
    -------------------------------------------------------------------------
CODE
  Relative segment, address: CODE 0000140E - 00001419 (0xc bytes), align: 1
  Segment part 18.            Intra module refs:   _PrintfLarge
    -------------------------------------------------------------------------
CODE
  Relative segment, address: CODE 0000141A - 00001429 (0x10 bytes), align: 1
  Segment part 19.            Intra module refs:   _PrintfLarge
    -------------------------------------------------------------------------
CODE
  Relative segment, address: CODE 0000142A - 0000142F (0x6 bytes), align: 1
  Segment part 20.            Intra module refs:   Segment part 19
                                                   _LdtobLarge
                                                   _LitobLarge
                                                   _PrintfLarge
    -------------------------------------------------------------------------
CODE
  Relative segment, address: CODE 00001430 - 00001443 (0x14 bytes), align: 1
  Segment part 21.            Intra module refs:   _PrintfLarge
    -------------------------------------------------------------------------
CODE
  Relative segment, address: CODE 00001444 - 00001445 (0x2 bytes), align: 1
  Segment part 22.            Intra module refs:   Segment part 44
                                                   _PrintfLarge
    -------------------------------------------------------------------------
CODE
  Relative segment, address: CODE 00001446 - 0000144B (0x6 bytes), align: 1
  Segment part 23.            Intra module refs:   Segment part 22
                                                   Segment part 51
    -------------------------------------------------------------------------
CODE
  Relative segment, address: CODE 0000144C - 0000144F (0x4 bytes), align: 1
  Segment part 24.            Intra module refs:   Segment part 22
                                                   Segment part 23
                                                   Segment part 30
    -------------------------------------------------------------------------
CODE
  Relative segment, address: CODE 00001450 - 0000145F (0x10 bytes), align: 1
  Segment part 25.            Intra module refs:   _PrintfLarge
    -------------------------------------------------------------------------
CODE
  Relative segment, address: CODE 00001460 - 00001465 (0x6 bytes), align: 1
  Segment part 26.            Intra module refs:   Segment part 18
                                                   Segment part 25
                                                   Segment part 46
                                                   _PrintfLarge
    -------------------------------------------------------------------------
CODE
  Relative segment, address: CODE 00001466 - 00001469 (0x4 bytes), align: 1
  Segment part 27.            Intra module refs:   Segment part 25
                                                   _PrintfLarge
    -------------------------------------------------------------------------
CODE
  Relative segment, address: CODE 0000146A - 0000146D (0x4 bytes), align: 1
  Segment part 28.            Intra module refs:   Segment part 105
                                                   Segment part 27
    -------------------------------------------------------------------------
CODE
  Relative segment, address: CODE 0000146E - 00001473 (0x6 bytes), align: 1
  Segment part 29.            Intra module refs:   _PrintfLarge
    -------------------------------------------------------------------------
CODE
  Relative segment, address: CODE 00001474 - 00001485 (0x12 bytes), align: 1
  Segment part 30.            Intra module refs:   Segment part 29
                                                   _PrintfLarge
    -------------------------------------------------------------------------
CODE
  Relative segment, address: CODE 00001486 - 0000148F (0xa bytes), align: 1
  Segment part 31.            Intra module refs:   _PrintfLarge
    -------------------------------------------------------------------------
CODE
  Relative segment, address: CODE 00001490 - 00001497 (0x8 bytes), align: 1
  Segment part 32.            Intra module refs:   _PrintfLarge
    -------------------------------------------------------------------------
CODE
  Relative segment, address: CODE 00001498 - 0000149D (0x6 bytes), align: 1
  Segment part 33.            Intra module refs:   _PrintfLarge
    -------------------------------------------------------------------------
CODE
  Relative segment, address: CODE 0000149E - 000014A1 (0x4 bytes), align: 1
  Segment part 34.            Intra module refs:   Segment part 33
                                                   Segment part 36
    -------------------------------------------------------------------------
CODE
  Relative segment, address: CODE 000014A2 - 000014A5 (0x4 bytes), align: 1
  Segment part 35.            Intra module refs:   _PrintfLarge
    -------------------------------------------------------------------------
CODE
  Relative segment, address: CODE 000014A6 - 000014AD (0x8 bytes), align: 1
  Segment part 36.            Intra module refs:   Segment part 35
                                                   _PrintfLarge
    -------------------------------------------------------------------------
CODE
  Relative segment, address: CODE 000014AE - 000014AF (0x2 bytes), align: 1
  Segment part 37.            Intra module refs:   _PrintfLarge
    -------------------------------------------------------------------------
CODE
  Relative segment, address: CODE 000014B0 - 000014B3 (0x4 bytes), align: 1
  Segment part 38.            Intra module refs:   Segment part 37
                                                   Segment part 88
    -------------------------------------------------------------------------
CODE
  Relative segment, address: CODE 000014B4 - 000014BD (0xa bytes), align: 1
  Segment part 39.            Intra module refs:   Segment part 37
                                                   _PrintfLarge
    -------------------------------------------------------------------------
CODE
  Relative segment, address: CODE 000014BE - 000014C3 (0x6 bytes), align: 1
  Segment part 40.            Intra module refs:   _PrintfLarge
    -------------------------------------------------------------------------
CODE
  Relative segment, address: CODE 000014C4 - 000014C9 (0x6 bytes), align: 1
  Segment part 41.            Intra module refs:   Segment part 40
                                                   _PrintfLarge
    -------------------------------------------------------------------------
CODE
  Relative segment, address: CODE 000014CA - 000014D3 (0xa bytes), align: 1
  Segment part 42.            Intra module refs:   _PrintfLarge
    -------------------------------------------------------------------------
CODE
  Relative segment, address: CODE 000014D4 - 000014D7 (0x4 bytes), align: 1
  Segment part 43.            Intra module refs:   _PrintfLarge
    -------------------------------------------------------------------------
CODE
  Relative segment, address: CODE 000014D8 - 000014E1 (0xa bytes), align: 1
  Segment part 44.            Intra module refs:   Segment part 43
                                                   _PrintfLarge
    -------------------------------------------------------------------------
CODE
  Relative segment, address: CODE 000014E2 - 000014E7 (0x6 bytes), align: 1
  Segment part 45.            Intra module refs:   Segment part 44
                                                   Segment part 50
                                                   _PrintfLarge
    -------------------------------------------------------------------------
CODE
  Relative segment, address: CODE 000014E8 - 000014E9 (0x2 bytes), align: 1
  Segment part 46.            Intra module refs:   _PrintfLarge
    -------------------------------------------------------------------------
CODE
  Relative segment, address: CODE 000014EA - 000014F5 (0xc bytes), align: 1
  Segment part 47.            Intra module refs:   Segment part 46
                                                   Segment part 48
    -------------------------------------------------------------------------
CODE
  Relative segment, address: CODE 000014F6 - 000014FD (0x8 bytes), align: 1
  Segment part 48.            Intra module refs:   _PrintfLarge
    -------------------------------------------------------------------------
CODE
  Relative segment, address: CODE 000014FE - 00001507 (0xa bytes), align: 1
  Segment part 49.            Intra module refs:   Segment part 16
                                                   Segment part 48
    -------------------------------------------------------------------------
CODE
  Relative segment, address: CODE 00001508 - 0000150F (0x8 bytes), align: 1
  Segment part 50.            Intra module refs:   _PrintfLarge
    -------------------------------------------------------------------------
CODE
  Relative segment, address: CODE 00001510 - 00001511 (0x2 bytes), align: 1
  Segment part 51.            Intra module refs:   Segment part 50
                                                   _PrintfLarge
    -------------------------------------------------------------------------
CODE
  Relative segment, address: CODE 00001512 - 0000151B (0xa bytes), align: 1
  Segment part 52.            Intra module refs:   LoadInt
                                                   Segment part 51
    -------------------------------------------------------------------------
CODE
  Relative segment, address: CODE 0000151C - 000015A3 (0x88 bytes), align: 1
  Segment part 53.            Intra module refs:   _PrintfLarge
           LOCAL                   ADDRESS         
           =====                   =======         
           LoadInt                 0000151C 
               RSTACK = 00000000 ( 00000002 )
    -------------------------------------------------------------------------
CODE
  Relative segment, address: CODE 000015A4 - 000015AD (0xa bytes), align: 1
  Segment part 54.            Intra module refs:   LoadInt
                                                   Segment part 57
    -------------------------------------------------------------------------
CODE
  Relative segment, address: CODE 000015AE - 000015B7 (0xa bytes), align: 1
  Segment part 55.            Intra module refs:   LoadInt
                                                   _LdtobLarge
                                                   _PrintfLarge
    -------------------------------------------------------------------------
CODE
  Relative segment, address: CODE 000015B8 - 000015C1 (0xa bytes), align: 1
  Segment part 56.            Intra module refs:   LoadInt
                                                   Segment part 57
    -------------------------------------------------------------------------
CODE
  Relative segment, address: CODE 000015C2 - 000015CB (0xa bytes), align: 1
  Segment part 57.            Intra module refs:   LoadInt
    -------------------------------------------------------------------------
CODE
  Relative segment, address: CODE 000015CC - 000015D1 (0x6 bytes), align: 1
  Segment part 58.            Intra module refs:   LoadInt
                                                   _PrintfLarge
    -------------------------------------------------------------------------
CODE
  Relative segment, address: CODE 000015D2 - 000015D7 (0x6 bytes), align: 1
  Segment part 59.            Intra module refs:   LoadInt
                                                   _PrintfLarge
    -------------------------------------------------------------------------
CODE
  Relative segment, address: CODE 000015D8 - 00001613 (0x3c bytes), align: 1
  Segment part 60.            Intra module refs:   Segment part 36
           LOCAL                   ADDRESS         
           =====                   =======         
           pad                     000015D8 
               calls direct
               CSTACK = 00000000 ( 00000009 )
               RSTACK = 00000000 ( 00000002 )
    -------------------------------------------------------------------------
CODE
  Relative segment, address: CODE 00001614 - 00001617 (0x4 bytes), align: 1
  Segment part 61.            Intra module refs:   _PrintfLarge
                                                   _PutcharsLarge
                                                   pad
    -------------------------------------------------------------------------
CODE
  Relative segment, address: CODE 00001618 - 000017B7 (0x1a0 bytes), align: 1
  Segment part 62.            Intra module refs:   _PrintfLarge
           LOCAL                   ADDRESS         
           =====                   =======         
           _LitobLarge             00001618 
               CSTACK = 00000000 ( 00000030 )
               RSTACK = 00000000 ( 00000004 )
    -------------------------------------------------------------------------
CODE
  Relative segment, address: CODE 000017B8 - 000017BD (0x6 bytes), align: 1
  Segment part 63.            Intra module refs:   _LdtobLarge
                                                   _LitobLarge
    -------------------------------------------------------------------------
CODE
  Relative segment, address: CODE 000017BE - 000017C5 (0x8 bytes), align: 1
  Segment part 64.            Intra module refs:   Segment part 82
                                                   _LitobLarge
                                                   _PrintfLarge
    -------------------------------------------------------------------------
CODE
  Relative segment, address: CODE 000017C6 - 000017CF (0xa bytes), align: 1
  Segment part 65.            Intra module refs:   _LitobLarge
    -------------------------------------------------------------------------
CODE
  Relative segment, address: CODE 000017D0 - 000017D3 (0x4 bytes), align: 1
  Segment part 66.            Intra module refs:   _LitobLarge
                                                   _PrintfLarge
    -------------------------------------------------------------------------
CODE
  Relative segment, address: CODE 000017D4 - 000017D7 (0x4 bytes), align: 1
  Segment part 67.            Intra module refs:   Segment part 66
                                                   _LitobLarge
                                                   _PrintfLarge
    -------------------------------------------------------------------------
CODE
  Relative segment, address: CODE 000017D8 - 000017DD (0x6 bytes), align: 1
  Segment part 68.            Intra module refs:   _LdtobLarge
                                                   _LitobLarge
                                                   _PrintfLarge
    -------------------------------------------------------------------------
CODE
  Relative segment, address: CODE 000017DE - 000017F5 (0x18 bytes), align: 1
  Segment part 69.            Intra module refs:   _LitobLarge
    -------------------------------------------------------------------------
CODE
  Relative segment, address: CODE 000017F6 - 000017F7 (0x2 bytes), align: 1
  Segment part 70.            Intra module refs:   Segment part 69
                                                   _LitobLarge
    -------------------------------------------------------------------------
CODE
  Relative segment, address: CODE 000017F8 - 000017FF (0x8 bytes), align: 1
  Segment part 71.            Intra module refs:   Segment part 70
                                                   _LitobLarge
    -------------------------------------------------------------------------
CODE
  Relative segment, address: CODE 00001800 - 00001807 (0x8 bytes), align: 1
  Segment part 72.            Intra module refs:   Segment part 69
                                                   _LitobLarge
    -------------------------------------------------------------------------
CODE
  Relative segment, address: CODE 00001808 - 0000184F (0x48 bytes), align: 1
  Segment part 73.            Intra module refs:   _LdtobLarge
           LOCAL                   ADDRESS         
           =====                   =======         
           scale                   00001808 
               CSTACK = 00000000 ( 0000000A )
               RSTACK = 00000000 ( 00000004 )
    -------------------------------------------------------------------------
CODE
  Relative segment, address: CODE 00001850 - 00001A95 (0x246 bytes), align: 1
  Segment part 74.            Intra module refs:   _PrintfLarge
           LOCAL                   ADDRESS         
           =====                   =======         
           _LdtobLarge             00001850 
               calls direct
               CSTACK = 00000000 ( 00000041 )
               RSTACK = 00000000 ( 00000004 )
    -------------------------------------------------------------------------
CODE
  Relative segment, address: CODE 00001A96 - 00001A9F (0xa bytes), align: 1
  Segment part 75.            Intra module refs:   _LdtobLarge
                                                   scale
    -------------------------------------------------------------------------
CODE
  Relative segment, address: CODE 00001AA0 - 00001AAB (0xc bytes), align: 1
  Segment part 76.            Intra module refs:   _LdtobLarge
    -------------------------------------------------------------------------
CODE
  Relative segment, address: CODE 00001AAC - 00001AAF (0x4 bytes), align: 1
  Segment part 77.            Intra module refs:   _LdtobLarge
    -------------------------------------------------------------------------
CODE
  Relative segment, address: CODE 00001AB0 - 00001AB5 (0x6 bytes), align: 1
  Segment part 78.            Intra module refs:   Segment part 77
                                                   _LdtobLarge
                                                   scale
    -------------------------------------------------------------------------
CODE
  Relative segment, address: CODE 00001AB6 - 00001AB7 (0x2 bytes), align: 1
  Segment part 79.            Intra module refs:   _GenldLarge
    -------------------------------------------------------------------------
CODE
  Relative segment, address: CODE 00001AB8 - 00001ABD (0x6 bytes), align: 1
  Segment part 80.            Intra module refs:   Segment part 79
                                                   _GenldLarge
                                                   _LdtobLarge
                                                   _LitobLarge
    -------------------------------------------------------------------------
CODE
  Relative segment, address: CODE 00001ABE - 00001ACD (0x10 bytes), align: 1
  Segment part 81.            Intra module refs:   _LdtobLarge
    -------------------------------------------------------------------------
CODE
  Relative segment, address: CODE 00001ACE - 00001AD3 (0x6 bytes), align: 1
  Segment part 82.            Intra module refs:   LoadInt
                                                   _LdtobLarge
    -------------------------------------------------------------------------
CODE
  Relative segment, address: CODE 00001AD4 - 00001ADD (0xa bytes), align: 1
  Segment part 83.            Intra module refs:   _LdtobLarge
    -------------------------------------------------------------------------
CODE
  Relative segment, address: CODE 00001ADE - 00001ADF (0x2 bytes), align: 1
  Segment part 84.            Intra module refs:   _LdtobLarge
    -------------------------------------------------------------------------
CODE
  Relative segment, address: CODE 00001AE0 - 00001AE7 (0x8 bytes), align: 1
  Segment part 85.            Intra module refs:   Segment part 84
                                                   _LdtobLarge
    -------------------------------------------------------------------------
CODE
  Relative segment, address: CODE 00001AE8 - 00001D7B (0x294 bytes), align: 1
  Segment part 86.            Intra module refs:   _LdtobLarge
           LOCAL                   ADDRESS         
           =====                   =======         
           _GenldLarge             00001AE8 
               calls direct
               CSTACK = 00000000 ( 00000017 )
               RSTACK = 00000000 ( 00000002 )
    -------------------------------------------------------------------------
CODE
  Relative segment, address: CODE 00001D7C - 00001D7F (0x4 bytes), align: 1
  Segment part 87.            Intra module refs:   Segment part 94
                                                   _GenldLarge
                                                   _LdtobLarge
    -------------------------------------------------------------------------
CODE
  Relative segment, address: CODE 00001D80 - 00001D87 (0x8 bytes), align: 1
  Segment part 88.            Intra module refs:   _GenldLarge
    -------------------------------------------------------------------------
CODE
  Relative segment, address: CODE 00001D88 - 00001D8D (0x6 bytes), align: 1
  Segment part 89.            Intra module refs:   _GenldLarge
    -------------------------------------------------------------------------
CODE
  Relative segment, address: CODE 00001D8E - 00001D97 (0xa bytes), align: 1
  Segment part 90.            Intra module refs:   Segment part 89
                                                   _GenldLarge
    -------------------------------------------------------------------------
CODE
  Relative segment, address: CODE 00001D98 - 00001DA1 (0xa bytes), align: 1
  Segment part 91.            Intra module refs:   _GenldLarge
    -------------------------------------------------------------------------
CODE
  Relative segment, address: CODE 00001DA2 - 00001DA9 (0x8 bytes), align: 1
  Segment part 92.            Intra module refs:   _GenldLarge
    -------------------------------------------------------------------------
CODE
  Relative segment, address: CODE 00001DAA - 00001DAD (0x4 bytes), align: 1
  Segment part 93.            Intra module refs:   _GenldLarge
    -------------------------------------------------------------------------
CODE
  Relative segment, address: CODE 00001DAE - 00001DB7 (0xa bytes), align: 1
  Segment part 94.            Intra module refs:   Segment part 93
                                                   Segment part 98
    -------------------------------------------------------------------------
CODE
  Relative segment, address: CODE 00001DB8 - 00001DC1 (0xa bytes), align: 1
  Segment part 95.            Intra module refs:   _GenldLarge
                                                   _LitobLarge
    -------------------------------------------------------------------------
CODE
  Relative segment, address: CODE 00001DC2 - 00001DC7 (0x6 bytes), align: 1
  Segment part 96.            Intra module refs:   _GenldLarge
                                                   _LitobLarge
    -------------------------------------------------------------------------
CODE
  Relative segment, address: CODE 00001DC8 - 00001DD1 (0xa bytes), align: 1
  Segment part 97.            Intra module refs:   _GenldLarge
    -------------------------------------------------------------------------
CODE
  Relative segment, address: CODE 00001DD2 - 00001DE9 (0x18 bytes), align: 1
  Segment part 98.            Intra module refs:   _GenldLarge
    -------------------------------------------------------------------------
CODE
  Relative segment, address: CODE 00001DEA - 00001DF5 (0xc bytes), align: 1
  Segment part 99.            Intra module refs:   _GenldLarge
    -------------------------------------------------------------------------
CODE
  Relative segment, address: CODE 00001DF6 - 00001DF7 (0x2 bytes), align: 1
  Segment part 100.           Intra module refs:   _GenldLarge
    -------------------------------------------------------------------------
CODE
  Relative segment, address: CODE 00001DF8 - 00001DF9 (0x2 bytes), align: 1
  Segment part 101.           Intra module refs:   Segment part 100
                                                   _GenldLarge
    -------------------------------------------------------------------------
CODE
  Relative segment, address: CODE 00001DFA - 00001DFF (0x6 bytes), align: 1
  Segment part 102.           Intra module refs:   Segment part 101
                                                   _GenldLarge
    -------------------------------------------------------------------------
CODE
  Relative segment, address: CODE 00001E00 - 00001E03 (0x4 bytes), align: 1
  Segment part 103.           Intra module refs:   _GenldLarge
    -------------------------------------------------------------------------
CODE
  Relative segment, address: CODE 00001E04 - 00001E09 (0x6 bytes), align: 1
  Segment part 104.           Intra module refs:   Segment part 103
                                                   _GenldLarge
    -------------------------------------------------------------------------
CODE
  Relative segment, address: CODE 00001E0A - 00001E0D (0x4 bytes), align: 1
  Segment part 105.           Intra module refs:   _GenldLarge
                                                   _LdtobLarge
                                                   _PutcharLarge
    -------------------------------------------------------------------------
CODE
  Relative segment, address: CODE 00001E0E - 00001E45 (0x38 bytes), align: 1
  Segment part 106.           Intra module refs:   _PrintfLarge
                                                   _PutcharsLarge
           LOCAL                   ADDRESS         
           =====                   =======         
           _PutcharLarge           00001E0E 
               calls indirect
               CSTACK = 00000000 ( 00000002 )
               RSTACK = 00000000 ( 00000002 )
    -------------------------------------------------------------------------
CODE
  Relative segment, address: CODE 00001E46 - 00001E73 (0x2e bytes), align: 1
  Segment part 107.           Intra module refs:   Segment part 33
                                                   pad
           LOCAL                   ADDRESS         
           =====                   =======         
           _PutcharsLarge          00001E46 
               calls direct
               CSTACK = 00000000 ( 00000008 )
               RSTACK = 00000000 ( 00000002 )
    -------------------------------------------------------------------------
NEAR_ID
  Relative segment, address: CODE 00001F01 - 00001F07 (0x7 bytes), align: 0
  Segment part 4.             Intra module refs:   Segment part 3
    -------------------------------------------------------------------------
NEAR_ID
  Relative segment, address: CODE 00001F08 - 00001F17 (0x10 bytes), align: 0
  Segment part 7.             Intra module refs:   Segment part 6
    -------------------------------------------------------------------------
NEAR_ID
  Relative segment, address: CODE 00001F18 - 00001F19 (0x2 bytes), align: 0
  Segment part 9.             Intra module refs:   Segment part 8
    -------------------------------------------------------------------------
NEAR_ID
  Relative segment, address: CODE 00001F1A - 00001F21 (0x8 bytes), align: 0
  Segment part 10.            Intra module refs:   __Constant_0_0
    -------------------------------------------------------------------------
SWITCH
  Relative segment, address: CODE 000000CC - 00000103 (0x38 bytes), align: 1
  Segment part 108.           Intra module refs:   _PrintfLarge
    -------------------------------------------------------------------------
NEAR_I
  Relative segment, address: DATA 000004AB - 000004B1 (0x7 bytes), align: 0
  Segment part 3.             Intra module refs:   _PrintfLarge
    -------------------------------------------------------------------------
NEAR_I
  Relative segment, address: DATA 000004B2 - 000004C1 (0x10 bytes), align: 0
  Segment part 6.             Intra module refs:   _LdtobLarge
    -------------------------------------------------------------------------
NEAR_I
  Relative segment, address: DATA 000004C2 - 000004C3 (0x2 bytes), align: 0
  Segment part 8.             Intra module refs:   _GenldLarge
    -------------------------------------------------------------------------
NEAR_I
  Relative segment, address: DATA 000004C4 - 000004CB (0x8 bytes), align: 0
  Segment part 11.            Intra module refs:   Segment part 66
                                                   _LitobLarge
                                                   _PrintfLarge
           ENTRY                   ADDRESS         REF BY
           =====                   =======         ======
           __Constant_0_0          000004C4 

    -------------------------------------------------------------------------
  LIBRARY MODULE, NAME : ?xprout

  SEGMENTS IN THE MODULE
  ======================
CODE
  Relative segment, address: CODE 00001E74 - 00001E97 (0x24 bytes), align: 1
  Segment part 3.
           ENTRY                   ADDRESS         REF BY
           =====                   =======         ======
           _Prout                  00001E74        printf (?printf)
               calls direct
               CSTACK = 00000000 ( 00000004 )
               RSTACK = 00000000 ( 00000002 )

    *************************************************************************

  DEFINED ABSOLUTE ENTRIES
  PROGRAM MODULE, NAME : ?FILLER_BYTES

  SEGMENTS IN THE MODULE
  ======================
INTVEC
  Common segment, address: CODE 00000000 - 0000009B (0x9c bytes), align: 0
  Segment part 1.
    -------------------------------------------------------------------------
?FILL1
  Relative segment, address: CODE 0000009C - 000000CB (0x30 bytes), align: 0
  Segment part 0.




                ****************************************
                *                                      *
                *            MODULE SUMMARY            *
                *                                      *
                ****************************************

Module                  CODE          DATA
------                  ----          ----
                    (Rel)  (Abs)  (Rel)  (Abs)
?C_STARTUP             36
?EPILOGUE_B_L09        42
?FILLER_BYTES          48
  + common            156
?FLOATS_L04         1 038
?LL_DIV_L12           202
?LONGLONG              66
?L_EC_MUL_L03          64
?MOVE_LONG_L07         22
?PROLOGUE_L09          34
?RESET
  + common              4
?SL_DIVMOD_L03         68
?SS_DIVMOD_L02         48
?S_EC_MUL_L02          16
?UL_DIVMOD_L03         70
?UL_SHR_L03            16
?US_DIVMOD_L02         40
?__dbg_break            2
?__exit                22
?__write              116
?_exit                  4
?div                   36
?exit                   4
?low_level_init         4
?memchr                32
?memcpy                26
?memset                18
?printf                32
?putchar               52
?segment_init         128
?strchr                20
?strlen                20
?xV_SWITCH_L06        156
?xdnorm                94
?xdunscal             120
?xprintflarge       3 721            33
?xprout                36
hal                    68                    3
  + shared                                   1
main                  293      4     91
  + shared              7
pal_board                                   14
  + shared                                   5
pal_sio_hub           108
pal_uart              612            26      6
  + shared              7
  + common            156
sio_handler            82
timer                 184             5      4
  + common             68
N/A (command line)                  592
N/A (alignment)
----------          -----      -    ---     --
Total:              7 814      4    747     33
  + common            156


                ****************************************
                *                                      *
                *      SEGMENTS IN ADDRESS ORDER       *
                *                                      *
                ****************************************


SEGMENT              SPACE    START ADDRESS   END ADDRESS     SIZE  TYPE  ALIGN
=======              =====    =============   ===========     ====  ====  =====
INTVEC               CODE          00000000 - 0000009B          9C   com    1
?FILL1               CODE          0000009C - 000000CB          30   rel    0
SWITCH               CODE          000000CC - 00000103          38   rel    1
CODE                 CODE          00000104 - 00001E97        1D94   rel    1
INITTAB              CODE          00001E98 - 00001EA5           E   rel    0
NEAR_ID              CODE          00001EA6 - 00001F21          7C   rel    0
FAR_F                CODE          0001DFFC - 0001DFFF           4   rel    0
ABSOLUTE             DATA               0000001F                     rel    0
                     DATA               00000020                   
                     DATA               00000021                   
                     DATA          00000024 - 00000025           2 
                     DATA          0000002C - 0000002E           3 
                     DATA          00000036 - 00000037           2 
                     DATA          00000050 - 00000050           1 
                     DATA          00000054 - 00000054           1 
                     DATA          0000005F - 00000061           3 
                     DATA          00000066 - 00000066           1 
                     DATA          0000006F - 0000006F           1 
                     DATA          0000007A - 0000007C           3 
                     DATA          00000080 - 00000081           2 
                     DATA          00000084 - 00000087           4 
                     DATA          000000B1 - 000000B2           2 
                     DATA          000000B6 - 000000B6           1 
                     DATA          000000C8 - 000000CA           3 
                     DATA          000000CC - 000000CE           3 
CSTACK               DATA          00000200 - 000003FF         200   dse    0
RSTACK               DATA          00000400 - 0000044F          50   dse    0
NEAR_I               DATA          00000450 - 000004CB          7C   rel    0
NEAR_Z               DATA          000004CC - 000004EA          1F   rel    0

                ****************************************
                *                                      *
                *        END OF CROSS REFERENCE        *
                *                                      *
                ****************************************

 7 922 bytes of CODE memory (+  4 absolute, 48 range fill )
   747 bytes of DATA memory (+ 33 absolute  )

Errors: none
Warnings: none

