###############################################################################
#                                                                             #
# IAR ELF Linker V6.30.6.53336/W32 for ARM              25/Jan/2013  08:52:18 #
# Copyright 2007-2012 IAR Systems AB.                                         #
#                                                                             #
#    Output file  =  D:\Firmware\my-project-hihack\trunk\ my-project-hihack   #
#                    --username kaiser.ren@gmail.com\energymicro\kits\EFM32TG #
#                    _STK3300\examples\Senfone\iar\hijack\Debug\Exe\hijack.ou #
#                    t                                                        #
#    Map file     =  D:\Firmware\my-project-hihack\trunk\ my-project-hihack   #
#                    --username kaiser.ren@gmail.com\energymicro\kits\EFM32TG #
#                    _STK3300\examples\Senfone\iar\hijack\Debug\List\hijack.m #
#                    ap                                                       #
#    Command line =  "D:\Firmware\my-project-hihack\trunk\ my-project-hihack  #
#                    --username kaiser.ren@gmail.com\energymicro\kits\EFM32TG #
#                    _STK3300\examples\Senfone\iar\hijack\Debug\Obj\bsp_stk.o #
#                    " "D:\Firmware\my-project-hihack\trunk\                  #
#                    my-project-hihack --username                             #
#                    kaiser.ren@gmail.com\energymicro\kits\EFM32TG_STK3300\ex #
#                    amples\Senfone\iar\hijack\Debug\Obj\bsp_stk_leds.o"      #
#                    "D:\Firmware\my-project-hihack\trunk\ my-project-hihack  #
#                    --username kaiser.ren@gmail.com\energymicro\kits\EFM32TG #
#                    _STK3300\examples\Senfone\iar\hijack\Debug\Obj\bsp_trace #
#                    .o" "D:\Firmware\my-project-hihack\trunk\                #
#                    my-project-hihack --username                             #
#                    kaiser.ren@gmail.com\energymicro\kits\EFM32TG_STK3300\ex #
#                    amples\Senfone\iar\hijack\Debug\Obj\com.o"               #
#                    "D:\Firmware\my-project-hihack\trunk\ my-project-hihack  #
#                    --username kaiser.ren@gmail.com\energymicro\kits\EFM32TG #
#                    _STK3300\examples\Senfone\iar\hijack\Debug\Obj\decode.o" #
#                     "D:\Firmware\my-project-hihack\trunk\                   #
#                    my-project-hihack --username                             #
#                    kaiser.ren@gmail.com\energymicro\kits\EFM32TG_STK3300\ex #
#                    amples\Senfone\iar\hijack\Debug\Obj\em_assert.o"         #
#                    "D:\Firmware\my-project-hihack\trunk\ my-project-hihack  #
#                    --username kaiser.ren@gmail.com\energymicro\kits\EFM32TG #
#                    _STK3300\examples\Senfone\iar\hijack\Debug\Obj\em_cmu.o" #
#                     "D:\Firmware\my-project-hihack\trunk\                   #
#                    my-project-hihack --username                             #
#                    kaiser.ren@gmail.com\energymicro\kits\EFM32TG_STK3300\ex #
#                    amples\Senfone\iar\hijack\Debug\Obj\em_emu.o"            #
#                    "D:\Firmware\my-project-hihack\trunk\ my-project-hihack  #
#                    --username kaiser.ren@gmail.com\energymicro\kits\EFM32TG #
#                    _STK3300\examples\Senfone\iar\hijack\Debug\Obj\em_gpio.o #
#                    " "D:\Firmware\my-project-hihack\trunk\                  #
#                    my-project-hihack --username                             #
#                    kaiser.ren@gmail.com\energymicro\kits\EFM32TG_STK3300\ex #
#                    amples\Senfone\iar\hijack\Debug\Obj\em_int.o"            #
#                    "D:\Firmware\my-project-hihack\trunk\ my-project-hihack  #
#                    --username kaiser.ren@gmail.com\energymicro\kits\EFM32TG #
#                    _STK3300\examples\Senfone\iar\hijack\Debug\Obj\em_lcd.o" #
#                     "D:\Firmware\my-project-hihack\trunk\                   #
#                    my-project-hihack --username                             #
#                    kaiser.ren@gmail.com\energymicro\kits\EFM32TG_STK3300\ex #
#                    amples\Senfone\iar\hijack\Debug\Obj\em_system.o"         #
#                    "D:\Firmware\my-project-hihack\trunk\ my-project-hihack  #
#                    --username kaiser.ren@gmail.com\energymicro\kits\EFM32TG #
#                    _STK3300\examples\Senfone\iar\hijack\Debug\Obj\em_timer. #
#                    o" "D:\Firmware\my-project-hihack\trunk\                 #
#                    my-project-hihack --username                             #
#                    kaiser.ren@gmail.com\energymicro\kits\EFM32TG_STK3300\ex #
#                    amples\Senfone\iar\hijack\Debug\Obj\em_usart.o"          #
#                    "D:\Firmware\my-project-hihack\trunk\ my-project-hihack  #
#                    --username kaiser.ren@gmail.com\energymicro\kits\EFM32TG #
#                    _STK3300\examples\Senfone\iar\hijack\Debug\Obj\em_vcmp.o #
#                    " "D:\Firmware\my-project-hihack\trunk\                  #
#                    my-project-hihack --username                             #
#                    kaiser.ren@gmail.com\energymicro\kits\EFM32TG_STK3300\ex #
#                    amples\Senfone\iar\hijack\Debug\Obj\encode.o"            #
#                    "D:\Firmware\my-project-hihack\trunk\ my-project-hihack  #
#                    --username kaiser.ren@gmail.com\energymicro\kits\EFM32TG #
#                    _STK3300\examples\Senfone\iar\hijack\Debug\Obj\main.o"   #
#                    "D:\Firmware\my-project-hihack\trunk\ my-project-hihack  #
#                    --username kaiser.ren@gmail.com\energymicro\kits\EFM32TG #
#                    _STK3300\examples\Senfone\iar\hijack\Debug\Obj\segmentlc #
#                    d.o" "D:\Firmware\my-project-hihack\trunk\               #
#                    my-project-hihack --username                             #
#                    kaiser.ren@gmail.com\energymicro\kits\EFM32TG_STK3300\ex #
#                    amples\Senfone\iar\hijack\Debug\Obj\startup_efm32tg.o"   #
#                    "D:\Firmware\my-project-hihack\trunk\ my-project-hihack  #
#                    --username kaiser.ren@gmail.com\energymicro\kits\EFM32TG #
#                    _STK3300\examples\Senfone\iar\hijack\Debug\Obj\system_ef #
#                    m32tg.o" "D:\Firmware\my-project-hihack\trunk\           #
#                    my-project-hihack --username                             #
#                    kaiser.ren@gmail.com\energymicro\kits\EFM32TG_STK3300\ex #
#                    amples\Senfone\iar\hijack\Debug\Obj\vddcheck.o"          #
#                    --redirect _Printf=_PrintfFull --redirect                #
#                    _Scanf=_ScanfSmall -o "D:\Firmware\my-project-hihack\tru #
#                    nk\ my-project-hihack --username                         #
#                    kaiser.ren@gmail.com\energymicro\kits\EFM32TG_STK3300\ex #
#                    amples\Senfone\iar\hijack\Debug\Exe\hijack.out" --map    #
#                    "D:\Firmware\my-project-hihack\trunk\ my-project-hihack  #
#                    --username kaiser.ren@gmail.com\energymicro\kits\EFM32TG #
#                    _STK3300\examples\Senfone\iar\hijack\Debug\List\hijack.m #
#                    ap" --config "D:\Program Files\IAR Systems\Embedded      #
#                    Workbench 6.0_3\arm\config\linker\EnergyMicro\EFM32TG840 #
#                    F32.icf" --entry __iar_program_start --vfe               #
#                                                                             #
#                                                                             #
###############################################################################

*******************************************************************************
*** RUNTIME MODEL ATTRIBUTES
***

CppFlavor       = *
__SystemLibrary = DLib


*******************************************************************************
*** PLACEMENT SUMMARY
***

"A1":  place at 0x00000000 { ro section .intvec };
"P1":  place in [from 0x00000000 to 0x00007fff] { ro };
"P2":  place in [from 0x20000000 to 0x20000fff] { rw, block CSTACK, block HEAP };

  Section            Kind        Address    Size  Object
  -------            ----        -------    ----  ------
"A1":                                       0x9c
  .intvec            ro code  0x00000000    0x9c  startup_efm32tg.o [1]
                            - 0x0000009c    0x9c

"P1":                                     0x4234
  .text              ro code  0x0000009c   0xd1e  xprintffull.o [3]
  .text              ro code  0x00000dba    0x2e  copy_init3.o [5]
  .text              ro code  0x00000de8    0x16  strchr.o [5]
  .text              ro code  0x00000dfe    0x22  zero_init3.o [5]
  .text              ro code  0x00000e20    0x36  strlen.o [5]
  .text              ro code  0x00000e56     0xa  xsprout.o [3]
  .text              ro code  0x00000e60    0x58  memchr.o [5]
  .text              ro code  0x00000eb8    0xee  I64DivMod.o [5]
  .text              ro code  0x00000fa8    0x76  ABImemcpy.o [5]
  .text              ro code  0x0000101e    0x44  xdnorm.o [4]
  .text              ro code  0x00001064    0x2e  DblCmpLe.o [4]
  .text              ro code  0x00001094    0x2e  DblCmpGe.o [4]
  .text              ro code  0x000010c4   0x11a  xdscale.o [4]
  .text              ro code  0x000011e0    0x58  DblToI32.o [4]
  .text              ro code  0x00001238    0x30  I32ToDbl.o [4]
  .text              ro code  0x00001268   0x180  DblSub.o [4]
  .text              ro code  0x000013e8   0x1a2  DblMul.o [4]
  .text              ro code  0x0000158c   0x246  DblDiv.o [4]
  .text              ro code  0x000017d2     0xe  div.o [3]
  .text              ro code  0x000017e0     0x2  I64DivZer.o [5]
  .text              ro code  0x000017e4    0xd4  DblAdd.o [4]
  .text              ro code  0x000018b8   0xab4  em_cmu.o [1]
  .text              ro code  0x0000236c     0x2  em_assert.o [1]
  .text              ro code  0x00002370   0x11c  system_efm32tg.o [1]
  .text              ro code  0x0000248c    0x14  em_emu.o [1]
  .text              ro code  0x000024a0   0x3ac  decode.o [1]
  .text              ro code  0x0000284c   0x1b0  em_timer.o [1]
  .text              ro code  0x000029fc    0xf0  em_gpio.o [1]
  .text              ro code  0x00002aec   0x310  com.o [1]
  .text              ro code  0x00002dfc   0x210  em_usart.o [1]
  .text              ro code  0x0000300c   0x3a8  encode.o [1]
  .text              ro code  0x000033b4   0x340  segmentlcd.o [1]
  .text              ro code  0x000036f4   0x2cc  em_lcd.o [1]
  .text              ro code  0x000039c0   0x1d8  main.o [1]
  .text              ro code  0x00003b98    0x44  bsp_stk_leds.o [1]
  .rodata            const    0x00003bdc   0x120  segmentlcd.o [1]
  .rodata            const    0x00003cfc    0xb8  segmentlcd.o [1]
  .rodata            const    0x00003db4    0xb0  decode.o [1]
  .rodata            const    0x00003e64    0x78  em_cmu.o [1]
  .rodata            const    0x00003edc    0x78  em_gpio.o [1]
  .rodata            const    0x00003f54    0x78  em_lcd.o [1]
  .rodata            const    0x00003fcc    0x78  em_timer.o [1]
  .rodata            const    0x00004044    0x78  em_usart.o [1]
  .text              ro code  0x000040bc    0x2c  data_init3.o [5]
  .rodata            const    0x000040e8    0x24  main.o [1]
  .iar.init_table    const    0x0000410c    0x24  - Linker created -
  .rodata            const    0x00004130    0x1c  main.o [1]
  .rodata            const    0x0000414c    0x18  main.o [1]
  .text              ro code  0x00004164    0x16  cmain.o [5]
  .text              ro code  0x0000417a     0x4  low_level_init.o [3]
  .text              ro code  0x0000417e     0x4  exit.o [3]
  .text              ro code  0x00004184     0xa  cexit.o [5]
  .text              ro code  0x00004190     0xc  XXexit.o [5]
  .rodata            const    0x0000419c    0x14  segmentlcd.o [1]
  .rodata            const    0x000041b0    0x10  decode.o [1]
  .rodata            const    0x000041c0    0x10  encode.o [1]
  .text              ro code  0x000041d0    0x10  startup_efm32tg.o [1]
  .rodata            const    0x000041e0     0xc  decode.o [1]
  .rodata            const    0x000041ec     0xc  encode.o [1]
  .rodata            const    0x000041f8     0xc  main.o [1]
  .rodata            const    0x00004204     0xc  main.o [1]
  .text              ro code  0x00004210     0xc  cstartup_M.o [5]
  .rodata            const    0x0000421c     0x8  bsp_stk_leds.o [1]
  .rodata            const    0x00004224     0x8  main.o [1]
  .text              ro code  0x0000422c     0x4  startup_efm32tg.o [1]
  .text              ro code  0x00004230     0x4  startup_efm32tg.o [1]
  .text              ro code  0x00004234     0x4  startup_efm32tg.o [1]
  .text              ro code  0x00004238     0x4  startup_efm32tg.o [1]
  .text              ro code  0x0000423c     0x4  startup_efm32tg.o [1]
  .text              ro code  0x00004240     0x4  startup_efm32tg.o [1]
  .text              ro code  0x00004244     0x4  startup_efm32tg.o [1]
  .text              ro code  0x00004248     0x4  startup_efm32tg.o [1]
  .text              ro code  0x0000424c     0x4  startup_efm32tg.o [1]
  .text              ro code  0x00004250     0x4  startup_efm32tg.o [1]
  .text              ro code  0x00004254     0x4  startup_efm32tg.o [1]
  .text              ro code  0x00004258     0x4  startup_efm32tg.o [1]
  .text              ro code  0x0000425c     0x4  startup_efm32tg.o [1]
  .text              ro code  0x00004260     0x4  startup_efm32tg.o [1]
  .text              ro code  0x00004264     0x4  startup_efm32tg.o [1]
  .text              ro code  0x00004268     0x4  startup_efm32tg.o [1]
  .text              ro code  0x0000426c     0x4  startup_efm32tg.o [1]
  .text              ro code  0x00004270     0x4  startup_efm32tg.o [1]
  .text              ro code  0x00004274     0x4  startup_efm32tg.o [1]
  .text              ro code  0x00004278     0x4  startup_efm32tg.o [1]
  .text              ro code  0x0000427c     0x4  startup_efm32tg.o [1]
  .text              ro code  0x00004280     0x4  startup_efm32tg.o [1]
  .text              ro code  0x00004284     0x4  startup_efm32tg.o [1]
  .text              ro code  0x00004288     0x4  startup_efm32tg.o [1]
  .text              ro code  0x0000428c     0x4  startup_efm32tg.o [1]
  .text              ro code  0x00004290     0x4  startup_efm32tg.o [1]
  .text              ro code  0x00004294     0x4  startup_efm32tg.o [1]
  .text              ro code  0x00004298     0x4  startup_efm32tg.o [1]
  .text              ro code  0x0000429c     0x4  startup_efm32tg.o [1]
  .text              ro code  0x000042a0     0x4  startup_efm32tg.o [1]
  .text              ro code  0x000042a4     0x4  startup_efm32tg.o [1]
  .text              ro code  0x000042a8     0x4  startup_efm32tg.o [1]
  .rodata            const    0x000042ac     0x0  bwt_init3c.o [5]
  Initializer bytes  ro data  0x000042ac    0x24  <for P2 s0>
                            - 0x000042d0  0x4234

"P2", part 1 of 3:                          0x24
  P2 s0                       0x20000000    0x24  <Init block>
    .data            inited   0x20000000    0x18  com.o [1]
    .data            inited   0x20000018     0x4  com.o [1]
    .data            inited   0x2000001c     0x4  system_efm32tg.o [1]
    .data            inited   0x20000020     0x4  system_efm32tg.o [1]
                            - 0x20000024    0x24

"P2", part 2 of 3:                         0x27c
  .bss               zero     0x20000024   0x110  com.o [1]
  .bss               zero     0x20000134   0x110  com.o [1]
  .bss               zero     0x20000244    0x34  com.o [1]
  .bss               zero     0x20000278     0x8  encode.o [1]
  .bss               zero     0x20000280     0x4  decode.o [1]
  .bss               zero     0x20000284     0x4  decode.o [1]
  .bss               zero     0x20000288     0x4  decode.o [1]
  .bss               zero     0x2000028c     0x4  decode.o [1]
  .bss               zero     0x20000290     0x4  encode.o [1]
  .bss               zero     0x20000294     0x4  system_efm32tg.o [1]
  .bss               zero     0x20000298     0x2  em_emu.o [1]
  .bss               zero     0x2000029a     0x1  decode.o [1]
  .bss               zero     0x2000029b     0x1  decode.o [1]
  .bss               zero     0x2000029c     0x1  encode.o [1]
  .bss               zero     0x2000029d     0x1  encode.o [1]
                            - 0x2000029e   0x27a

"P2", part 3 of 3:                         0x400
  CSTACK                      0x200002a0   0x400  <Block>
    CSTACK           uninit   0x200002a0   0x400  <Block tail>
                            - 0x200006a0   0x400


*******************************************************************************
*** INIT TABLE
***

          Address     Size
          -------     ----
Zero (__iar_zero_init3)
    1 destination range, total size 0x27a:
          0x20000024  0x27a

Copy (__iar_copy_init3)
    1 source range, total size 0x24:
          0x000042ac   0x24
    1 destination range, total size 0x24:
          0x20000000   0x24



*******************************************************************************
*** MODULE SUMMARY
***

    Module             ro code  ro data  rw data
    ------             -------  -------  -------
D:\Firmware\my-project-hihack\trunk\ my-project-hihack --username kaiser.ren@gmail.com\energymicro\kits\EFM32TG_STK3300\examples\Senfone\iar\hijack\Debug\Obj: [1]
    bsp_stk_leds.o          68        8
    com.o                  784       28      624
    decode.o               940      204       18
    em_assert.o              2
    em_cmu.o             2 740      120
    em_emu.o                20                 2
    em_gpio.o              240      120
    em_lcd.o               716      120
    em_timer.o             432      120
    em_usart.o             528      120
    encode.o               936       28       14
    main.o                 472      120
    segmentlcd.o           832      492
    startup_efm32tg.o      300
    system_efm32tg.o       284        8       12
    --------------------------------------------
    Total:               9 294    1 488      670

command line: [2]
    --------------------------------------------
    Total:

dl7M_tln.a: [3]
    div.o                   14
    exit.o                   4
    low_level_init.o         4
    xprintffull.o        3 358
    xsprout.o               10
    --------------------------------------------
    Total:               3 390

m7M_tl.a: [4]
    DblAdd.o               212
    DblCmpGe.o              46
    DblCmpLe.o              46
    DblDiv.o               582
    DblMul.o               418
    DblSub.o               384
    DblToI32.o              88
    I32ToDbl.o              48
    xdnorm.o                68
    xdscale.o              282
    --------------------------------------------
    Total:               2 174

rt7M_tl.a: [5]
    ABImemcpy.o            118
    I64DivMod.o            238
    I64DivZer.o              2
    XXexit.o                12
    bwt_init3c.o
    cexit.o                 10
    cmain.o                 22
    copy_init3.o            46
    cstartup_M.o            12
    data_init3.o            44
    memchr.o                88
    strchr.o                22
    strlen.o                54
    zero_init3.o            34
    --------------------------------------------
    Total:                 702

    Gaps                    20
    Linker created                   36    1 024
------------------------------------------------
    Grand Total:        15 580    1 524    1 694


*******************************************************************************
*** ENTRY LIST
***

Entry                      Address   Size  Type      Object
-----                      -------   ----  ----      ------
?main                   0x00004165         Code  Gb  cmain.o [5]
ACMP0_IRQHandler        0x00004265         Code  Wk  startup_efm32tg.o [1]
ADC0_IRQHandler         0x00004269         Code  Wk  startup_efm32tg.o [1]
AES_IRQHandler          0x000042a9         Code  Wk  startup_efm32tg.o [1]
BITBAND_Peripheral      0x000018b9    0xe  Code  Lc  em_cmu.o [1]
BITBAND_Peripheral      0x0000371f    0xe  Code  Lc  em_lcd.o [1]
BSP_LedsInit            0x00003b99   0x38  Code  Gb  bsp_stk_leds.o [1]
BusFault_Handler        0x00004239         Code  Wk  startup_efm32tg.o [1]
CHIP_Init               0x000039c1    0x2  Code  Lc  main.o [1]
CMU_AUXClkGet           0x0000197d   0x64  Code  Lc  em_cmu.o [1]
CMU_Clkout              0x00003a7d   0x22  Code  Gb  main.o [1]
CMU_ClockDivSet         0x00001aad  0x1fc  Code  Gb  em_cmu.o [1]
CMU_ClockEnable         0x00001ca9   0x92  Code  Gb  em_cmu.o [1]
CMU_ClockFreqGet        0x00001d3b  0x158  Code  Gb  em_cmu.o [1]
CMU_ClockSelectGet      0x00001e93  0x102  Code  Gb  em_cmu.o [1]
CMU_ClockSelectSet      0x00001f95  0x1ae  Code  Gb  em_cmu.o [1]
CMU_DBGClkGet           0x000019e1   0x3c  Code  Lc  em_cmu.o [1]
CMU_DivToLog2           0x000018fb   0x26  Code  Lc  em_cmu.o [1]
CMU_FlashWaitStateControl
                        0x00001921   0x5c  Code  Lc  em_cmu.o [1]
CMU_FlashWaitStateMax   0x000018c7   0x34  Code  Lc  em_cmu.o [1]
CMU_HFRCOBandSet        0x00002155   0xac  Code  Gb  em_cmu.o [1]
CMU_IRQHandler          0x00004299         Code  Wk  startup_efm32tg.o [1]
CMU_LCDClkFDIVSet       0x0000221d   0x2e  Code  Gb  em_cmu.o [1]
CMU_LFClkGet            0x00001a1d   0x7a  Code  Lc  em_cmu.o [1]
CMU_OscillatorEnable    0x00002259   0xa6  Code  Gb  em_cmu.o [1]
CMU_Sync                0x00001a97   0x16  Code  Lc  em_cmu.o [1]
COM_Init                0x00002b39   0xc6  Code  Gb  com.o [1]
CSTACK$$Base            0x200002a0          --   Gb  - Linker created -
CSTACK$$Limit           0x200006a0          --   Gb  - Linker created -
DAC0_IRQHandler         0x0000426d         Code  Wk  startup_efm32tg.o [1]
DMA_IRQHandler          0x00004251         Code  Wk  startup_efm32tg.o [1]
DebugMon_Handler        0x00004245         Code  Wk  startup_efm32tg.o [1]
Debug_Print             0x00002d6f   0x62  Code  Gb  com.o [1]
EFM_Alphabet            0x00003cfc   0xb8  Data  Lc  segmentlcd.o [1]
EFM_Display             0x00003bdc  0x120  Data  Lc  segmentlcd.o [1]
EMU_EnterEM1            0x000039c9   0x10  Code  Lc  main.o [1]
EMU_UpdateOscConfig     0x0000248d    0xa  Code  Gb  em_emu.o [1]
GPIO_EVEN_IRQHandler    0x00003a71    0xc  Code  Gb  main.o [1]
GPIO_IntClear           0x000039c3    0x6  Code  Lc  main.o [1]
GPIO_ODD_IRQHandler     0x00003a65    0xc  Code  Gb  main.o [1]
GPIO_PinInGet           0x000024c3   0x32  Code  Lc  decode.o [1]
GPIO_PinModeSet         0x000029fd   0xe4  Code  Gb  em_gpio.o [1]
GetProdRev              0x00002371    0xa  Code  Lc  system_efm32tg.o [1]
HIJACK_CaptureConfig    0x00002561   0x4c  Code  Lc  decode.o [1]
HIJACK_CompareConfig    0x0000308b   0x4c  Code  Lc  encode.o [1]
HardFault_Handler       0x00004231         Code  Wk  startup_efm32tg.o [1]
I2C0_IRQHandler         0x00004271         Code  Wk  startup_efm32tg.o [1]
IsTime2Detect           0x000025f3   0x42  Code  Lc  decode.o [1]
LCD_Enable              0x000036f5   0x2a  Code  Lc  em_lcd.o [1]
LCD_FreezeEnable        0x000033b5   0x1a  Code  Lc  segmentlcd.o [1]
LCD_IRQHandler          0x000042a1         Code  Wk  startup_efm32tg.o [1]
LCD_Init                0x0000372d   0x4c  Code  Gb  em_lcd.o [1]
LCD_IntDisable          0x000033db   0x10  Code  Lc  segmentlcd.o [1]
LCD_SegmentRangeEnable  0x0000379f   0x22  Code  Gb  em_lcd.o [1]
LCD_SegmentSet          0x000037c1   0xdc  Code  Gb  em_lcd.o [1]
LCD_SegmentSetLow       0x0000389d   0xde  Code  Gb  em_lcd.o [1]
LCD_SyncBusyDelay       0x000033cf    0xc  Code  Lc  segmentlcd.o [1]
LCD_VBoostSet           0x0000397b   0x10  Code  Gb  em_lcd.o [1]
LCD_VLCDSelect          0x00003779   0x26  Code  Gb  em_lcd.o [1]
LESENSE_IRQHandler      0x00004285         Code  Wk  startup_efm32tg.o [1]
LETIMER0_IRQHandler     0x0000428d         Code  Wk  startup_efm32tg.o [1]
LEUART0_IRQHandler      0x00004289         Code  Wk  startup_efm32tg.o [1]
MSC_IRQHandler          0x000042a5         Code  Wk  startup_efm32tg.o [1]
MemManage_Handler       0x00004235         Code  Wk  startup_efm32tg.o [1]
NMI_Handler             0x0000422d         Code  Wk  startup_efm32tg.o [1]
NVIC_ClearPendingIRQ    0x00002b07   0x1a  Code  Lc  com.o [1]
NVIC_EnableIRQ          0x00002aed   0x1a  Code  Lc  com.o [1]
NVIC_EnableIRQ          0x000024a1   0x1a  Code  Lc  decode.o [1]
NVIC_EnableIRQ          0x0000300d   0x1a  Code  Lc  encode.o [1]
PCNT0_IRQHandler        0x00004291         Code  Wk  startup_efm32tg.o [1]
PendSV_Handler          0x00004249         Code  Wk  startup_efm32tg.o [1]
RTC_IRQHandler          0x00004295         Code  Wk  startup_efm32tg.o [1]
Region$$Table$$Base     0x0000410c          --   Gb  - Linker created -
Region$$Table$$Limit    0x00004130          --   Gb  - Linker created -
Reset_Handler           0x000041d1         Code  Wk  startup_efm32tg.o [1]
SVC_Handler             0x00004241         Code  Wk  startup_efm32tg.o [1]
SegmentLCD_AllOff       0x000034ef   0x64  Code  Gb  segmentlcd.o [1]
SegmentLCD_AlphaNumberOff
                        0x000033eb   0x64  Code  Gb  segmentlcd.o [1]
SegmentLCD_Init         0x00003659   0x70  Code  Gb  segmentlcd.o [1]
SegmentLCD_Symbol       0x00003553  0x106  Code  Gb  segmentlcd.o [1]
SegmentLCD_Write        0x0000344f   0xa0  Code  Gb  segmentlcd.o [1]
SysTick_Handler         0x0000424d         Code  Wk  startup_efm32tg.o [1]
SystemCoreClock         0x20000294    0x4  Data  Gb  system_efm32tg.o [1]
SystemCoreClockGet      0x0000237b   0x1a  Code  Gb  system_efm32tg.o [1]
SystemCoreClockUpdate   0x000024bb    0x8  Code  Lc  decode.o [1]
SystemCoreClockUpdate   0x00003027    0x8  Code  Lc  encode.o [1]
SystemHFClockGet        0x00002395   0xa6  Code  Gb  system_efm32tg.o [1]
SystemHFXOClock         0x2000001c    0x4  Data  Lc  system_efm32tg.o [1]
SystemInit              0x0000243b    0x2  Code  Gb  system_efm32tg.o [1]
SystemLFRCOClockGet     0x0000243d    0x6  Code  Gb  system_efm32tg.o [1]
SystemLFXOClock         0x20000020    0x4  Data  Lc  system_efm32tg.o [1]
SystemLFXOClockGet      0x00002449    0x6  Code  Gb  system_efm32tg.o [1]
SystemULFRCOClockGet    0x00002443    0x6  Code  Gb  system_efm32tg.o [1]
TIMER0_IRQHandler       0x00002511   0x50  Code  Gb  decode.o [1]
TIMER1_IRQHandler       0x0000304b   0x40  Code  Gb  encode.o [1]
TIMER_CaptureGet        0x000024f5    0x8  Code  Lc  decode.o [1]
TIMER_CompareSet        0x0000302f    0x8  Code  Lc  encode.o [1]
TIMER_CounterSet        0x000024fd    0x4  Code  Lc  decode.o [1]
TIMER_CounterSet        0x00003037    0x4  Code  Lc  encode.o [1]
TIMER_Enable            0x0000284d   0x2c  Code  Gb  em_timer.o [1]
TIMER_Init              0x00002879   0xd4  Code  Gb  em_timer.o [1]
TIMER_InitCC            0x0000294d   0xa2  Code  Gb  em_timer.o [1]
TIMER_IntClear          0x00002501    0x4  Code  Lc  decode.o [1]
TIMER_IntClear          0x0000303b    0x4  Code  Lc  encode.o [1]
TIMER_IntEnable         0x00002505    0x8  Code  Lc  decode.o [1]
TIMER_IntEnable         0x0000303f    0x8  Code  Lc  encode.o [1]
TIMER_IntGet            0x0000250d    0x4  Code  Lc  decode.o [1]
TIMER_IntGet            0x00003047    0x4  Code  Lc  encode.o [1]
USART0_RX_IRQHandler    0x0000425d         Code  Wk  startup_efm32tg.o [1]
USART0_TX_IRQHandler    0x00004261         Code  Wk  startup_efm32tg.o [1]
USART1_RX_IRQHandler    0x00002c9d   0x66  Code  Gb  com.o [1]
USART1_TX_IRQHandler    0x00002d03   0x6c  Code  Gb  com.o [1]
USART_BaudrateAsyncSet  0x00002dfd   0xf6  Code  Gb  em_usart.o [1]
USART_Enable            0x00002ef3   0x30  Code  Gb  em_usart.o [1]
USART_InitAsync         0x00002f23   0x60  Code  Gb  em_usart.o [1]
USART_IntClear          0x00002b21    0x4  Code  Lc  com.o [1]
USART_IntDisable        0x00002b25    0x8  Code  Lc  com.o [1]
USART_IntEnable         0x00002b2d    0x8  Code  Lc  com.o [1]
USART_IntGet            0x00002b35    0x4  Code  Lc  com.o [1]
USART_Reset             0x00002f83   0x5a  Code  Gb  em_usart.o [1]
USART_Rx                0x00002ff5    0xc  Code  Gb  em_usart.o [1]
USART_Tx                0x00003001    0xc  Code  Gb  em_usart.o [1]
UsageFault_Handler      0x0000423d         Code  Wk  startup_efm32tg.o [1]
VCMP_IRQHandler         0x0000429d         Code  Wk  startup_efm32tg.o [1]
_GenldFull              0x00000b01  0x270  Code  Lc  xprintffull.o [3]
_LdtobFull              0x000006f1  0x400  Code  Lc  xprintffull.o [3]
_LitobFull              0x000005cb  0x126  Code  Lc  xprintffull.o [3]
_PrintfFull             0x0000009d  0x52e  Code  Gb  xprintffull.o [3]
_PutcharsFull           0x00000d71   0x2e  Code  Lc  xprintffull.o [3]
_SProut                 0x00000e57    0xa  Code  Gb  xsprout.o [3]
__Vectors               0x00000000          --   Gb  startup_efm32tg.o [1]
__Vectors_End           0x0000009c         Data  Gb  startup_efm32tg.o [1]
__Vectors_Size {Abs}    0x0000009c          --   Gb  startup_efm32tg.o [1]
__aeabi_cdcmple         0x00001065         Code  Gb  DblCmpLe.o [4]
__aeabi_cdrcmple        0x00001095         Code  Gb  DblCmpGe.o [4]
__aeabi_d2iz            0x000011e1         Code  Gb  DblToI32.o [4]
__aeabi_d2uiz           0x0000120d         Code  Gb  DblToI32.o [4]
__aeabi_ddiv            0x0000158d         Code  Gb  DblDiv.o [4]
__aeabi_dmul            0x000013e9         Code  Gb  DblMul.o [4]
__aeabi_dsub            0x00001269         Code  Gb  DblSub.o [4]
__aeabi_i2d             0x00001239         Code  Gb  I32ToDbl.o [4]
__aeabi_ldiv0           0x000017e1         Code  Gb  I64DivZer.o [5]
__aeabi_memcpy          0x00000fa9         Code  Gb  ABImemcpy.o [5]
__aeabi_memcpy4         0x00000fc9         Code  Gb  ABImemcpy.o [5]
__aeabi_memcpy8         0x00000fc9         Code  Gb  ABImemcpy.o [5]
__aeabi_ui2d            0x0000124d         Code  Gb  I32ToDbl.o [4]
__aeabi_uldivmod        0x00000eb9         Code  Gb  I64DivMod.o [5]
__cmain                 0x00004165         Code  Gb  cmain.o [5]
__exit                  0x00004191         Code  Gb  XXexit.o [5]
__iar_Dnorm             0x0000101f   0x44  Code  Gb  xdnorm.o [4]
__iar_Dscale            0x000010c5  0x106  Code  Gb  xdscale.o [4]
__iar_Memchr            0x00000e61         Code  Gb  memchr.o [5]
__iar_SB                0x000042ac         Data  Gb  bwt_init3c.o [5]
__iar_Strchr            0x00000de9         Code  Gb  strchr.o [5]
__iar_copy_init3        0x00000dbb   0x2e  Code  Gb  copy_init3.o [5]
__iar_d2uiz             0x00001219         Code  Gb  DblToI32.o [4]
__iar_dadd              0x000017e5         Code  Gb  DblAdd.o [4]
__iar_data_init3        0x000040bd   0x2c  Code  Gb  data_init3.o [5]
__iar_dsub              0x0000127d         Code  Gb  DblSub.o [4]
__iar_dsubStart         0x0000128f         Code  Gb  DblSub.o [4]
__iar_program_start     0x00004211         Code  Gb  cstartup_M.o [5]
__iar_ui2d              0x00001251         Code  Gb  I32ToDbl.o [4]
__iar_zero_init3        0x00000dff   0x22  Code  Gb  zero_init3.o [5]
__low_level_init        0x0000417b    0x4  Code  Gb  low_level_init.o [3]
__vector_table          0x00000000         Data  Gb  startup_efm32tg.o [1]
__vector_table_0x1c     0x0000001c         Data  Gb  startup_efm32tg.o [1]
_call_main              0x00004171         Code  Gb  cmain.o [5]
_exit                   0x00004185         Code  Gb  cexit.o [5]
_main                   0x00004177         Code  Gb  cmain.o [5]
appPrintBuf             0x20000244   0x34  Data  Gb  com.o [1]
assertEFM               0x0000236d    0x2  Code  Gb  em_assert.o [1]
cmuStatus               0x20000298    0x2  Data  Lc  em_emu.o [1]
cur_edge                0x2000029b    0x1  Data  Gb  decode.o [1]
cur_stamp               0x20000284    0x4  Data  Gb  decode.o [1]
dbg_led                 0x2000029d    0x1  Data  Lc  encode.o [1]
dec                     0x20000280    0x4  Data  Gb  decode.o [1]
dec_init                0x000025ad   0x46  Code  Gb  decode.o [1]
dec_parser              0x00002635   0x5c  Code  Lc  decode.o [1]
decode_machine          0x00002691  0x17e  Code  Gb  decode.o [1]
div                     0x000017d3    0xe  Code  Gb  div.o [3]
edge_occur              0x2000029a    0x1  Data  Gb  decode.o [1]
enc                     0x20000278    0x8  Data  Lc  encode.o [1]
enc_init                0x000030d7   0x5a  Code  Gb  encode.o [1]
enc_odd                 0x2000029c    0x1  Data  Lc  encode.o [1]
encode_machine          0x00003199  0x1ea  Code  Gb  encode.o [1]
exit                    0x0000417f    0x4  Code  Gb  exit.o [3]
findParam               0x00003131   0x68  Code  Gb  encode.o [1]
inv                     0x2000028c    0x4  Data  Lc  decode.o [1]
lcdInit                 0x0000419c   0x14  Data  Lc  segmentlcd.o [1]
ledArray                0x0000421c    0x8  Data  Lc  bsp_stk_leds.o [1]
main                    0x00003a9f   0x8c  Code  Gb  main.o [1]
memchr                  0x00000e61         Code  Gb  memchr.o [5]
offset                  0x20000288    0x4  Data  Lc  decode.o [1]
rxBuf                   0x20000024  0x110  Data  Gb  com.o [1]
setupSWO                0x000039d9   0x8c  Code  Gb  main.o [1]
strchr                  0x00000de9         Code  Gb  strchr.o [5]
strlen                  0x00000e21         Code  Gb  strlen.o [5]
ticker                  0x20000290    0x4  Data  Gb  encode.o [1]
txBuf                   0x20000134  0x110  Data  Gb  com.o [1]
uart                    0x20000018    0x4  Data  Lc  com.o [1]
uartGetAmount           0x00002c95    0x8  Code  Gb  com.o [1]
uartGetChar             0x00002bff   0x38  Code  Gb  com.o [1]
uartInit                0x20000000   0x18  Data  Lc  com.o [1]
uartPutChar             0x00002c37   0x5e  Code  Gb  com.o [1]


[1] = D:\Firmware\my-project-hihack\trunk\ my-project-hihack --username kaiser.ren@gmail.com\energymicro\kits\EFM32TG_STK3300\examples\Senfone\iar\hijack\Debug\Obj
[2] = command line
[3] = dl7M_tln.a
[4] = m7M_tl.a
[5] = rt7M_tl.a

  15 580 bytes of readonly  code memory
   1 524 bytes of readonly  data memory
   1 694 bytes of readwrite data memory

Errors: none
Warnings: none
