###############################################################################
#                                                                             #
# IAR ELF Linker V6.30.6.53336/W32 for ARM              10/Feb/2014  14:10:05 #
# Copyright 2007-2012 IAR Systems AB.                                         #
#                                                                             #
#    Output file  =  D:\Firmware\svn\hijack\branches\phone_simulate_cipher\bu #
#                    ild\ewarm_630\sam3s\Exe\sam3s.out                        #
#    Map file     =  D:\Firmware\svn\hijack\branches\phone_simulate_cipher\bu #
#                    ild\ewarm_630\sam3s\List\sam3s.map                       #
#    Command line =  D:\Firmware\svn\hijack\branches\phone_simulate_cipher\bu #
#                    ild\ewarm_630\sam3s\Obj\aes128_dec.o                     #
#                    D:\Firmware\svn\hijack\branches\phone_simulate_cipher\bu #
#                    ild\ewarm_630\sam3s\Obj\aes128_enc.o                     #
#                    D:\Firmware\svn\hijack\branches\phone_simulate_cipher\bu #
#                    ild\ewarm_630\sam3s\Obj\aes_dec.o                        #
#                    D:\Firmware\svn\hijack\branches\phone_simulate_cipher\bu #
#                    ild\ewarm_630\sam3s\Obj\aes_enc.o                        #
#                    D:\Firmware\svn\hijack\branches\phone_simulate_cipher\bu #
#                    ild\ewarm_630\sam3s\Obj\aes_invsbox.o                    #
#                    D:\Firmware\svn\hijack\branches\phone_simulate_cipher\bu #
#                    ild\ewarm_630\sam3s\Obj\aes_keyschedule.o                #
#                    D:\Firmware\svn\hijack\branches\phone_simulate_cipher\bu #
#                    ild\ewarm_630\sam3s\Obj\aes_sbox.o                       #
#                    D:\Firmware\svn\hijack\branches\phone_simulate_cipher\bu #
#                    ild\ewarm_630\sam3s\Obj\decode.o                         #
#                    D:\Firmware\svn\hijack\branches\phone_simulate_cipher\bu #
#                    ild\ewarm_630\sam3s\Obj\encode.o                         #
#                    D:\Firmware\svn\hijack\branches\phone_simulate_cipher\bu #
#                    ild\ewarm_630\sam3s\Obj\gf256mul.o                       #
#                    D:\Firmware\svn\hijack\branches\phone_simulate_cipher\bu #
#                    ild\ewarm_630\sam3s\Obj\main.o                           #
#                    D:\Firmware\svn\hijack\branches\phone_simulate_cipher\li #
#                    bboard_sam3s-ek\lib\libboard_sam3s_ek_ewarm_dbg.a        #
#                    D:\Firmware\svn\hijack\branches\phone_simulate_cipher\li #
#                    bchip_sam3s\lib\libchip_sam3s4_ewarm_dbg.a --redirect    #
#                    _Printf=_PrintfSmall --redirect _Scanf=_ScanfSmall -o    #
#                    D:\Firmware\svn\hijack\branches\phone_simulate_cipher\bu #
#                    ild\ewarm_630\sam3s\Exe\sam3s.out --map                  #
#                    D:\Firmware\svn\hijack\branches\phone_simulate_cipher\bu #
#                    ild\ewarm_630\sam3s\List\sam3s.map --config              #
#                    D:\Firmware\svn\hijack\branches\phone_simulate_cipher\bu #
#                    ild\ewarm_630/../../resource/sam3s4c/flash.icf --entry   #
#                    __iar_program_start --vfe                                #
#                                                                             #
#                                                                             #
###############################################################################

*******************************************************************************
*** RUNTIME MODEL ATTRIBUTES
***

CppFlavor       = *
__SystemLibrary = DLib


*******************************************************************************
*** PLACEMENT SUMMARY
***

"A1":  place at 0x00400000 { ro section .vectors };
"P1":  place in [from 0x00400000 to 0x0043ffff] { ro };
"P2":  place in [from 0x20000000 to 0x2000bfff] { rw, block CSTACK, block HEAP };

  Section            Kind        Address    Size  Object
  -------            ----        -------    ----  ------
"A1":                                       0xd0
  .vectors                    0x00400000    0xd0  <Block>
    .vectors         const    0x00400000    0xd0  board_cstartup_iar.o [4]
                            - 0x004000d0    0xd0

"P1":                                     0x2800
  SOFTPACK           ro code  0x004000d0   0x704  encode.o [1]
  SAM3S-EK           ro code  0x004007d4    0xb4  uart_console.o [4]
  SAM3S4             ro code  0x00400888    0xcc  dacc.o [5]
  SAM3S4             ro code  0x00400954   0x1cc  pio.o [5]
  .text              ro code  0x00400b20    0x66  xassert.o [3]
  .text              ro code  0x00400b86    0x2e  copy_init3.o [6]
  SAM3S4             ro code  0x00400bb4    0x6c  pmc.o [5]
  .text              ro code  0x00400c20    0xa0  xreportassert.o [3]
  .text              ro code  0x00400cc0     0x6  abort.o [3]
  .text              ro code  0x00400cc6    0x22  zero_init3.o [6]
  .text              ro code  0x00400ce8     0xc  XXexit.o [6]
  .text              ro code  0x00400cf4   0x4a4  xprintfsmall.o [3]
  .text              ro code  0x00401198    0x16  strchr.o [6]
  .text              ro code  0x004011b0    0x36  strlen.o [6]
  .text              ro code  0x004011e8    0x58  memchr.o [6]
  SOFTPACK           ro code  0x00401240   0x410  decode.o [1]
  SAM3S-EK           ro code  0x00401650    0x9c  led.o [4]
  SOFTPACK           ro code  0x004016ec    0x12  aes128_dec.o [1]
  SOFTPACK           ro code  0x00401700   0x30e  aes_dec.o [1]
  SOFTPACK           ro code  0x00401a0e    0x30  gf256mul.o [1]
  SOFTPACK           ro code  0x00401a40   0x1e4  main.o [1]
  SAM3S4             ro code  0x00401c24   0x1a0  pio_it.o [5]
  SAM3S4             ro code  0x00401dc4     0x8  wdt.o [5]
  .text              ro code  0x00401dcc    0x24  printf.o [3]
  SOFTPACK           ro code  0x00401df0   0x14a  aes_keyschedule.o [1]
  SAM3S4             ro code  0x00401f3c    0x90  pio_capture.o [5]
  SOFTPACK           ro code  0x00401fcc    0x16  aes_keyschedule.o [1]
  .text              ro code  0x00401fe4    0x76  ABImemcpy.o [6]
  SAM3S-EK           ro code  0x0040205c   0x15c  board_lowlevel.o [4]
  .rodata            const    0x004021b8   0x100  aes_invsbox.o [1]
  .rodata            const    0x004022b8   0x100  aes_sbox.o [1]
  .rodata            const    0x004023b8    0xc8  main.o [1]
  .rodata            const    0x00402480    0x80  pmc.o [5]
  .rodata            const    0x00402500    0x80  dacc.o [5]
  .rodata            const    0x00402580    0x80  pio_it.o [5]
  .rodata            const    0x00402600    0x48  main.o [1]
  SAM3S4             ro code  0x00402648    0x44  exceptions.o [5]
  SAM3S-EK           ro code  0x0040268c    0x38  board_cstartup_iar.o [4]
  .text              ro code  0x004026c4    0x2c  data_init3.o [6]
  .rodata            const    0x004026f0    0x28  pio_it.o [5]
  .rodata            const    0x00402718    0x24  main.o [1]
  .rodata            const    0x0040273c    0x24  led.o [4]
  .iar.init_table    const    0x00402760    0x24  - Linker created -
  .rodata            const    0x00402784    0x20  dacc.o [5]
  .rodata            const    0x004027a4    0x1c  main.o [1]
  .rodata            const    0x004027c0    0x18  main.o [1]
  .text              ro code  0x004027d8    0x16  cmain.o [6]
  .text              ro code  0x004027ee     0x4  exit.o [3]
  .text              ro code  0x004027f4     0xa  cexit.o [6]
  .text              ro code  0x004027fe    0x16  xprout.o [3]
  .rodata            const    0x00402814    0x14  pio_it.o [5]
  .rodata            const    0x00402828    0x10  pio_it.o [5]
  .rodata            const    0x00402838    0x10  pio_it.o [5]
  .rodata            const    0x00402848     0xc  decode.o [1]
  .rodata            const    0x00402854     0xc  main.o [1]
  .rodata            const    0x00402860     0xc  main.o [1]
  .rodata            const    0x0040286c     0xc  main.o [1]
  .rodata            const    0x00402878     0xc  main.o [1]
  .rodata            const    0x00402884     0xc  pmc.o [5]
  .rodata            const    0x00402890     0xc  uart_console.o [4]
  .text              ro code  0x0040289c     0xc  cstartup_M.o [6]
  .rodata            const    0x004028a8     0x8  pio_it.o [5]
  .rodata            const    0x004028b0     0x4  led.o [4]
  .rodata            const    0x004028b4     0x0  bwt_init3c.o [6]
  Initializer bytes  ro data  0x004028b4    0x1c  <for P2 s0>
                            - 0x004028d0  0x2800

"P2", part 1 of 3:                          0x1c
  P2 s0                       0x20000000    0x1c  <Init block>
    .data            inited   0x20000000    0x10  main.o [1]
    .data            inited   0x20000010     0xc  aes_keyschedule.o [1]
                            - 0x2000001c    0x1c

"P2", part 2 of 3:                         0x274
  .bss               zero     0x2000001c    0xcc  main.o [1]
  .bss               zero     0x200000e8    0xb0  main.o [1]
  .bss               zero     0x20000198    0x90  decode.o [1]
  .bss               zero     0x20000228    0x38  pio_it.o [5]
  .bss               zero     0x20000260     0x8  encode.o [1]
  .bss               zero     0x20000268     0x4  decode.o [1]
  .bss               zero     0x2000026c     0x4  decode.o [1]
  .bss               zero     0x20000270     0x4  decode.o [1]
  .bss               zero     0x20000274     0x4  decode.o [1]
  .bss               zero     0x20000278     0x4  pio_it.o [5]
  .bss               zero     0x2000027c     0x4  pio_capture.o [5]
  .bss               zero     0x20000280     0x2  encode.o [1]
  .bss               zero     0x20000282     0x2  encode.o [1]
  .bss               zero     0x20000284     0x1  decode.o [1]
  .bss               zero     0x20000285     0x1  decode.o [1]
  .bss               zero     0x20000286     0x1  decode.o [1]
  .bss               zero     0x20000287     0x1  encode.o [1]
  .bss               zero     0x20000288     0x1  encode.o [1]
  .bss               zero     0x20000289     0x1  encode.o [1]
  .bss               zero     0x2000028a     0x1  encode.o [1]
  .bss               zero     0x2000028b     0x1  encode.o [1]
  .bss               zero     0x2000028c     0x1  main.o [1]
  .bss               zero     0x2000028d     0x1  main.o [1]
  .bss               zero     0x2000028e     0x1  uart_console.o [4]
                            - 0x2000028f   0x273

"P2", part 3 of 3:                        0x3000
  CSTACK                      0x20000290  0x3000  <Block>
    CSTACK           uninit   0x20000290  0x3000  <Block tail>
                            - 0x20003290  0x3000


*******************************************************************************
*** INIT TABLE
***

          Address     Size
          -------     ----
Zero (__iar_zero_init3)
    1 destination range, total size 0x273:
          0x2000001c  0x273

Copy (__iar_copy_init3)
    1 source range, total size 0x1c:
          0x004028b4   0x1c
    1 destination range, total size 0x1c:
          0x20000000   0x1c



*******************************************************************************
*** MODULE SUMMARY
***

    Module                ro code  ro data  rw data
    ------                -------  -------  -------
D:\Firmware\svn\hijack\branches\phone_simulate_cipher\build\ewarm_630\sam3s\Obj: [1]
    aes128_dec.o               18
    aes_dec.o                 782
    aes_invsbox.o                      256
    aes_keyschedule.o         352       12       12
    aes_sbox.o                         256
    decode.o                1 040       12      163
    encode.o                1 796                17
    gf256mul.o                 48
    main.o                    484      424      398
    -----------------------------------------------
    Total:                  4 520      960      590

command line: [2]
    -----------------------------------------------
    Total:

dl7M_tln.a: [3]
    abort.o                     6
    exit.o                      4
    printf.o                   36
    xassert.o                 102
    xprintfsmall.o          1 188
    xprout.o                   22
    xreportassert.o           160
    -----------------------------------------------
    Total:                  1 518

libboard_sam3s_ek_ewarm_dbg.a: [4]
    board_cstartup_iar.o       56      208
    board_lowlevel.o          348
    led.o                     156       40
    uart_console.o            180       12        1
    -----------------------------------------------
    Total:                    740      260        1

libchip_sam3s4_ewarm_dbg.a: [5]
    dacc.o                    204      160
    exceptions.o               68
    pio.o                     460
    pio_capture.o             144                 4
    pio_it.o                  416      228       60
    pmc.o                     108      140
    wdt.o                       8
    -----------------------------------------------
    Total:                  1 408      528       64

rt7M_tl.a: [6]
    ABImemcpy.o               118
    XXexit.o                   12
    bwt_init3c.o
    cexit.o                    10
    cmain.o                    22
    copy_init3.o               46
    cstartup_M.o               12
    data_init3.o               44
    memchr.o                   88
    strchr.o                   22
    strlen.o                   54
    zero_init3.o               34
    -----------------------------------------------
    Total:                    462

    Gaps                       16
    Linker created                      36   12 288
---------------------------------------------------
    Grand Total:            8 664    1 784   12 943


*******************************************************************************
*** ENTRY LIST
***

Entry                      Address   Size  Type      Object
-----                      -------   ----  ----      ------
.vectors$$Base          0x00400000          --   Gb  - Linker created -
.vectors$$Limit         0x004000d0          --   Gb  - Linker created -
?main                   0x004027d9         Code  Gb  cmain.o [6]
ACC_IrqHandler          0x00402689    0x2  Code  Wk  exceptions.o [5]
ADC_IrqHandler          0x00402683    0x2  Code  Wk  exceptions.o [5]
BusFault_Handler        0x00402651    0x2  Code  Wk  exceptions.o [5]
CRCCU_IrqHandler        0x00402687    0x2  Code  Wk  exceptions.o [5]
CSTACK$$Base            0x20000290          --   Gb  - Linker created -
CSTACK$$Limit           0x20003290          --   Gb  - Linker created -
DACC_Initialize         0x00400889   0xae  Code  Gb  dacc.o [5]
DACC_SetConversionData  0x00400945   0x10  Code  Gb  dacc.o [5]
DACC_channel_sine       0x2000028a    0x1  Data  Gb  encode.o [1]
DAC_IrqHandler          0x00400149   0x8c  Code  Gb  encode.o [1]
DebugMon_Handler        0x00402657    0x2  Code  Wk  exceptions.o [5]
EEFC_IrqHandler         0x00402667    0x2  Code  Wk  exceptions.o [5]
HIJACKPutData           0x004003a9   0x56  Code  Gb  encode.o [1]
HardFault_Handler       0x0040264d    0x2  Code  Wk  exceptions.o [5]
IrqHandlerNotUsed       0x00402649    0x2  Code  Gb  exceptions.o [5]
IsAboutFullCycle        0x00401315   0x24  Code  Lc  decode.o [1]
IsAboutHalfCycle        0x004012f1   0x24  Code  Lc  decode.o [1]
LED_Clear               0x004016a9   0x3a  Code  Gb  led.o [4]
LED_Configure           0x00401651   0x1e  Code  Gb  led.o [4]
LED_Set                 0x0040166f   0x3a  Code  Gb  led.o [4]
LowLevelInit            0x0040205d  0x15c  Code  Wk  board_lowlevel.o [4]
MCI_IrqHandler          0x00402671    0x2  Code  Wk  exceptions.o [5]
MemManage_Handler       0x0040264f    0x2  Code  Wk  exceptions.o [5]
NMI_Handler             0x0040264b    0x2  Code  Wk  exceptions.o [5]
NVIC_ClearPendingIRQ    0x00401a71   0x18  Code  Lc  main.o [1]
NVIC_DisableIRQ         0x00401a59   0x18  Code  Lc  main.o [1]
NVIC_EnableIRQ          0x004000d1   0x1a  Code  Lc  encode.o [1]
NVIC_EnableIRQ          0x00401a41   0x18  Code  Lc  main.o [1]
NVIC_SetPriority        0x004000eb   0x26  Code  Lc  encode.o [1]
NVIC_SetPriority        0x00401a89   0x22  Code  Lc  main.o [1]
PIOA_IrqHandler         0x00401c87   0x18  Code  Gb  pio_it.o [5]
PIOB_IrqHandler         0x00401c9f    0xc  Code  Gb  pio_it.o [5]
PIOC_IrqHandler         0x00401cab    0xc  Code  Gb  pio_it.o [5]
PIO_CaptureHandler      0x00401f3d   0x84  Code  Gb  pio_capture.o [5]
PIO_Clear               0x00400afb    0x8  Code  Gb  pio.o [5]
PIO_Configure           0x00400a3f   0xb4  Code  Gb  pio.o [5]
PIO_ConfigureIt         0x00401cb7   0x86  Code  Gb  pio_it.o [5]
PIO_EnableIt            0x00401d3d   0x58  Code  Gb  pio_it.o [5]
PIO_Set                 0x00400af3    0x8  Code  Gb  pio.o [5]
PIO_SetDebounceFilter   0x00400b03   0x1e  Code  Gb  pio.o [5]
PIO_SetInput            0x004009dd   0x30  Code  Lc  pio.o [5]
PIO_SetOutput           0x00400a0d   0x32  Code  Lc  pio.o [5]
PIO_SetPeripheralA      0x00400955   0x26  Code  Lc  pio.o [5]
PIO_SetPeripheralB      0x0040097b   0x22  Code  Lc  pio.o [5]
PIO_SetPeripheralC      0x0040099d   0x22  Code  Lc  pio.o [5]
PIO_SetPeripheralD      0x004009bf   0x1e  Code  Lc  pio.o [5]
PMC_EnablePeripheral    0x00400bb5   0x54  Code  Gb  pmc.o [5]
PMC_IrqHandler          0x00402665    0x2  Code  Wk  exceptions.o [5]
PWM_IrqHandler          0x00402685    0x2  Code  Wk  exceptions.o [5]
PendSV_Handler          0x00402659    0x2  Code  Wk  exceptions.o [5]
PioInterruptHandler     0x00401c25   0x62  Code  Gb  pio_it.o [5]
RSTC_IrqHandler         0x0040265d    0x2  Code  Wk  exceptions.o [5]
RTC_IrqHandler          0x0040265f    0x2  Code  Wk  exceptions.o [5]
RTT_IrqHandler          0x00402661    0x2  Code  Wk  exceptions.o [5]
Region$$Table$$Base     0x00402760          --   Gb  - Linker created -
Region$$Table$$Limit    0x00402784          --   Gb  - Linker created -
SMC_IrqHandler          0x0040266b    0x2  Code  Wk  exceptions.o [5]
SPI_IrqHandler          0x00402677    0x2  Code  Wk  exceptions.o [5]
SSC_IrqHandler          0x00402679    0x2  Code  Wk  exceptions.o [5]
SUPC_IrqHandler         0x0040265b    0x2  Code  Wk  exceptions.o [5]
SVC_Handler             0x00402655    0x2  Code  Wk  exceptions.o [5]
SysTick_Config          0x00400111   0x38  Code  Lc  encode.o [1]
SysTick_Handler         0x0040023f   0x7e  Code  Gb  encode.o [1]
TC0_IrqHandler          0x004002bd    0xa  Code  Gb  encode.o [1]
TC1_IrqHandler          0x0040267b    0x2  Code  Wk  exceptions.o [5]
TC2_IrqHandler          0x00401241   0x68  Code  Gb  decode.o [1]
TC3_IrqHandler          0x0040267d    0x2  Code  Wk  exceptions.o [5]
TC4_IrqHandler          0x0040267f    0x2  Code  Wk  exceptions.o [5]
TC5_IrqHandler          0x00402681    0x2  Code  Wk  exceptions.o [5]
TWI0_IrqHandler         0x00402673    0x2  Code  Wk  exceptions.o [5]
TWI1_IrqHandler         0x00402675    0x2  Code  Wk  exceptions.o [5]
TcCaptureInitialize     0x004012a9   0x48  Code  Gb  decode.o [1]
UART0_IrqHandler        0x004001d5   0x6a  Code  Gb  encode.o [1]
UART1_IrqHandler        0x00402669    0x2  Code  Wk  exceptions.o [5]
UART_Configure          0x004007d5   0x4c  Code  Gb  uart_console.o [4]
UART_GetChar            0x00400845   0x20  Code  Gb  uart_console.o [4]
UART_PutChar            0x00400821   0x24  Code  Gb  uart_console.o [4]
USART0_IrqHandler       0x0040266d    0x2  Code  Wk  exceptions.o [5]
USART1_IrqHandler       0x0040266f    0x2  Code  Wk  exceptions.o [5]
USBD_IrqHandler         0x0040268b    0x2  Code  Wk  exceptions.o [5]
UsageFault_Handler      0x00402653    0x2  Code  Wk  exceptions.o [5]
WDT_Disable             0x00401dc5    0x8  Code  Gb  wdt.o [5]
WDT_IrqHandler          0x00402663    0x2  Code  Wk  exceptions.o [5]
_Button1_Handler        0x00401aab   0x2e  Code  Lc  main.o [1]
_Button2_Handler        0x00401ad9   0x2e  Code  Lc  main.o [1]
_ConfigureButton        0x00401b07   0x4c  Code  Lc  main.o [1]
_ConfigureCom           0x004003ff   0x12  Code  Gb  encode.o [1]
_LitobSmall             0x004010c1   0xd0  Code  Lc  xprintfsmall.o [3]
_PioCaptureCopy         0x2000027c    0x4  Data  Lc  pio_capture.o [5]
_PrintfSmall            0x00400cf5  0x3cc  Code  Gb  xprintfsmall.o [3]
_Prout                  0x004027ff   0x16  Code  Gb  xprout.o [3]
__aeabi_assert          0x00400b23   0x64  Code  Gb  xassert.o [3]
__aeabi_memcpy          0x00401fe5         Code  Gb  ABImemcpy.o [6]
__aeabi_memcpy4         0x00402005         Code  Gb  ABImemcpy.o [6]
__aeabi_memcpy8         0x00402005         Code  Gb  ABImemcpy.o [6]
__cmain                 0x004027d9         Code  Gb  cmain.o [6]
__exit                  0x00400ce9         Code  Gb  XXexit.o [6]
__iar_EmptyStepPoint    0x00400b21    0x2  Code  Gb  xassert.o [3]
__iar_Memchr            0x004011e9         Code  Gb  memchr.o [6]
__iar_ReportAssert      0x00400c37   0x50  Code  Gb  xreportassert.o [3]
__iar_SB                0x004028b4         Data  Gb  bwt_init3c.o [6]
__iar_Strchr            0x00401199         Code  Gb  strchr.o [6]
__iar_copy_init3        0x00400b87   0x2e  Code  Gb  copy_init3.o [6]
__iar_data_init3        0x004026c5   0x2c  Code  Gb  data_init3.o [6]
__iar_program_start     0x0040289d         Code  Gb  cstartup_M.o [6]
__iar_zero_init3        0x00400cc7   0x22  Code  Gb  zero_init3.o [6]
__low_level_init        0x0040268d   0x38  Code  Gb  board_cstartup_iar.o [4]
__vector_table          0x00400000   0xd0  Data  Gb  board_cstartup_iar.o [4]
_aIntSources            0x20000228   0x38  Data  Lc  pio_it.o [5]
_call_main              0x004027e5         Code  Gb  cmain.o [6]
_dwNumSources           0x20000278    0x4  Data  Lc  pio_it.o [5]
_exit                   0x004027f5         Code  Gb  cexit.o [6]
_main                   0x004027eb         Code  Gb  cmain.o [6]
_ucIsConsoleInitialized
                        0x2000028e    0x1  Data  Lc  uart_console.o [4]
abort                   0x00400cc1    0x6  Code  Gb  abort.o [3]
aes128_dec              0x004016ed   0x12  Code  Gb  aes128_dec.o [1]
aes128_init             0x00401f29   0x12  Code  Gb  aes_keyschedule.o [1]
aes_dec_firstround      0x00401963   0x56  Code  Lc  aes_dec.o [1]
aes_dec_round           0x0040175f  0x204  Code  Lc  aes_dec.o [1]
aes_decrypt_core        0x004019c1   0x4e  Code  Gb  aes_dec.o [1]
aes_init                0x00401e05  0x11c  Code  Gb  aes_keyschedule.o [1]
aes_invsbox             0x004021b8  0x100  Data  Gb  aes_invsbox.o [1]
aes_invshiftcol         0x00401701   0x5e  Code  Gb  aes_dec.o [1]
aes_rotword             0x00401df1   0x14  Code  Lc  aes_keyschedule.o [1]
aes_sbox                0x004022b8  0x100  Data  Gb  aes_sbox.o [1]
amplitude               0x20000282    0x2  Data  Gb  encode.o [1]
bias                    0x2000028b    0x1  Data  Gb  encode.o [1]
button1Evt              0x2000028c    0x1  Data  Gb  main.o [1]
button2Evt              0x2000028d    0x1  Data  Gb  main.o [1]
ctx                     0x200000e8   0xb0  Data  Gb  main.o [1]
cur_edge                0x20000286    0x1  Data  Lc  decode.o [1]
cur_stamp               0x2000026c    0x4  Data  Lc  decode.o [1]
dec                     0x20000268    0x4  Data  Gb  decode.o [1]
decBuf                  0x20000198   0x90  Data  Gb  decode.o [1]
decTmrWaitForFree       0x20000284    0x1  Data  Gb  decode.o [1]
dec_parser              0x00401339   0x88  Code  Lc  decode.o [1]
dec_rxByte              0x00401599   0x32  Code  Gb  decode.o [1]
dec_stream_process      0x004015cb   0x3c  Code  Gb  decode.o [1]
decode_machine          0x004013c1  0x1d8  Code  Gb  decode.o [1]
edge_occur              0x20000285    0x1  Data  Gb  decode.o [1]
enc                     0x20000260    0x8  Data  Lc  encode.o [1]
enc_init                0x004002c7   0xe2  Code  Gb  encode.o [1]
enc_parser              0x00400469   0xbe  Code  Gb  encode.o [1]
encode_machine          0x00400527  0x248  Code  Gb  encode.o [1]
exit                    0x004027ef    0x4  Code  Gb  exit.o [3]
frequency               0x20000280    0x2  Data  Gb  encode.o [1]
gf256mul                0x00401a0f   0x30  Code  Gb  gf256mul.o [1]
index_sample            0x20000288    0x1  Data  Lc  encode.o [1]
inv                     0x20000274    0x4  Data  Lc  decode.o [1]
key                     0x20000000   0x10  Data  Gb  main.o [1]
main                    0x00401b53   0x7a  Code  Gb  main.o [1]
memchr                  0x004011e9         Code  Gb  memchr.o [6]
memcpy                  0x00401fcd   0x16  Code  Gb  aes_keyschedule.o [1]
numLeds                 0x004028b0    0x4  Data  Lc  led.o [4]
odd                     0x20000287    0x1  Data  Lc  encode.o [1]
offset                  0x20000270    0x4  Data  Lc  decode.o [1]
out                     0x00400c21   0x16  Code  Lc  xreportassert.o [3]
pTcPins                 0x00402848    0xc  Data  Lc  decode.o [1]
pinPB1                  0x0040286c    0xc  Data  Gb  main.o [1]
pinPB2                  0x00402878    0xc  Data  Gb  main.o [1]
pins                    0x00402600   0x48  Data  Gb  main.o [1]
pinsLeds                0x0040273c   0x24  Data  Lc  led.o [4]
printf                  0x00401dcd   0x24  Code  Gb  printf.o [3]
putchar                 0x00400879   0x10  Code  Wk  uart_console.o [4]
rc_tab                  0x20000010    0xc  Data  Gb  aes_keyschedule.o [1]
sine_data               0x004023b8   0xc8  Data  Gb  main.o [1]
strchr                  0x00401199         Code  Gb  strchr.o [6]
strlen                  0x004011b1         Code  Gb  strlen.o [6]
ticker                  0x20000289    0x1  Data  Lc  encode.o [1]
us1                     0x2000001c   0xcc  Data  Gb  main.o [1]
us1_get_char            0x00400419   0x50  Code  Gb  encode.o [1]
us1_get_count           0x00400411    0x8  Code  Gb  encode.o [1]


[1] = D:\Firmware\svn\hijack\branches\phone_simulate_cipher\build\ewarm_630\sam3s\Obj
[2] = command line
[3] = dl7M_tln.a
[4] = libboard_sam3s_ek_ewarm_dbg.a
[5] = libchip_sam3s4_ewarm_dbg.a
[6] = rt7M_tl.a

   8 664 bytes of readonly  code memory
   1 784 bytes of readonly  data memory
  12 943 bytes of readwrite data memory

Errors: none
Warnings: none
