###############################################################################
#                                                                             #
# IAR ELF Linker V6.30.6.53336/W32 for ARM              15/Mar/2013  15:49:04 #
# Copyright 2007-2012 IAR Systems AB.                                         #
#                                                                             #
#    Output file  =  D:\Firmware\sensorphone\trunk\ sensorphone --username    #
#                    sensorphonics@gmail.com\sfone\energymicro\an\an0025_efm3 #
#                    2_prs\iar\prs_pulse_width_tg\Debug\Exe\prs_pulse_width_t #
#                    g.out                                                    #
#    Map file     =  D:\Firmware\sensorphone\trunk\ sensorphone --username    #
#                    sensorphonics@gmail.com\sfone\energymicro\an\an0025_efm3 #
#                    2_prs\iar\prs_pulse_width_tg\Debug\List\prs_pulse_width_ #
#                    tg.map                                                   #
#    Command line =  "D:\Firmware\sensorphone\trunk\ sensorphone --username   #
#                    sensorphonics@gmail.com\sfone\energymicro\an\an0025_efm3 #
#                    2_prs\iar\prs_pulse_width_tg\Debug\Obj\bsp_stk_leds.o"   #
#                    "D:\Firmware\sensorphone\trunk\ sensorphone --username   #
#                    sensorphonics@gmail.com\sfone\energymicro\an\an0025_efm3 #
#                    2_prs\iar\prs_pulse_width_tg\Debug\Obj\em_acmp.o"        #
#                    "D:\Firmware\sensorphone\trunk\ sensorphone --username   #
#                    sensorphonics@gmail.com\sfone\energymicro\an\an0025_efm3 #
#                    2_prs\iar\prs_pulse_width_tg\Debug\Obj\em_cmu.o"         #
#                    "D:\Firmware\sensorphone\trunk\ sensorphone --username   #
#                    sensorphonics@gmail.com\sfone\energymicro\an\an0025_efm3 #
#                    2_prs\iar\prs_pulse_width_tg\Debug\Obj\em_emu.o"         #
#                    "D:\Firmware\sensorphone\trunk\ sensorphone --username   #
#                    sensorphonics@gmail.com\sfone\energymicro\an\an0025_efm3 #
#                    2_prs\iar\prs_pulse_width_tg\Debug\Obj\em_gpio.o"        #
#                    "D:\Firmware\sensorphone\trunk\ sensorphone --username   #
#                    sensorphonics@gmail.com\sfone\energymicro\an\an0025_efm3 #
#                    2_prs\iar\prs_pulse_width_tg\Debug\Obj\em_lcd.o"         #
#                    "D:\Firmware\sensorphone\trunk\ sensorphone --username   #
#                    sensorphonics@gmail.com\sfone\energymicro\an\an0025_efm3 #
#                    2_prs\iar\prs_pulse_width_tg\Debug\Obj\em_prs.o"         #
#                    "D:\Firmware\sensorphone\trunk\ sensorphone --username   #
#                    sensorphonics@gmail.com\sfone\energymicro\an\an0025_efm3 #
#                    2_prs\iar\prs_pulse_width_tg\Debug\Obj\em_system.o"      #
#                    "D:\Firmware\sensorphone\trunk\ sensorphone --username   #
#                    sensorphonics@gmail.com\sfone\energymicro\an\an0025_efm3 #
#                    2_prs\iar\prs_pulse_width_tg\Debug\Obj\em_timer.o"       #
#                    "D:\Firmware\sensorphone\trunk\ sensorphone --username   #
#                    sensorphonics@gmail.com\sfone\energymicro\an\an0025_efm3 #
#                    2_prs\iar\prs_pulse_width_tg\Debug\Obj\main_prs_pulse_wi #
#                    dth.o" "D:\Firmware\sensorphone\trunk\ sensorphone       #
#                    --username sensorphonics@gmail.com\sfone\energymicro\an\ #
#                    an0025_efm32_prs\iar\prs_pulse_width_tg\Debug\Obj\segmen #
#                    tlcd.o" "D:\Firmware\sensorphone\trunk\ sensorphone      #
#                    --username sensorphonics@gmail.com\sfone\energymicro\an\ #
#                    an0025_efm32_prs\iar\prs_pulse_width_tg\Debug\Obj\startu #
#                    p_efm32tg.o" "D:\Firmware\sensorphone\trunk\             #
#                    sensorphone --username sensorphonics@gmail.com\sfone\ene #
#                    rgymicro\an\an0025_efm32_prs\iar\prs_pulse_width_tg\Debu #
#                    g\Obj\system_efm32tg.o" --redirect _Printf=_PrintfFull   #
#                    --redirect _Scanf=_ScanfFull -o                          #
#                    "D:\Firmware\sensorphone\trunk\ sensorphone --username   #
#                    sensorphonics@gmail.com\sfone\energymicro\an\an0025_efm3 #
#                    2_prs\iar\prs_pulse_width_tg\Debug\Exe\prs_pulse_width_t #
#                    g.out" --map "D:\Firmware\sensorphone\trunk\             #
#                    sensorphone --username sensorphonics@gmail.com\sfone\ene #
#                    rgymicro\an\an0025_efm32_prs\iar\prs_pulse_width_tg\Debu #
#                    g\List\prs_pulse_width_tg.map" --config "D:\Program      #
#                    Files\IAR Systems\Embedded Workbench                     #
#                    6.0_3\arm\config\linker\EnergyMicro\EFM32TG840F32.icf"   #
#                    --entry __iar_program_start --vfe                        #
#                                                                             #
#                                                                             #
###############################################################################

*******************************************************************************
*** RUNTIME MODEL ATTRIBUTES
***

CppFlavor       = *
__SystemLibrary = DLib


*******************************************************************************
*** PLACEMENT SUMMARY
***

"A1":  place at 0x00000000 { ro section .intvec };
"P1":  place in [from 0x00000000 to 0x00007fff] { ro };
"P2":  place in [from 0x20000000 to 0x20000fff] { rw, block CSTACK, block HEAP };

  Section            Kind        Address    Size  Object
  -------            ----        -------    ----  ------
"A1":                                       0x9c
  .intvec            ro code  0x00000000    0x9c  startup_efm32tg.o [1]
                            - 0x0000009c    0x9c

"P1":                                     0x1000
  .text              ro code  0x0000009c   0x53c  em_cmu.o [1]
  .text              ro code  0x000005d8   0x108  system_efm32tg.o [1]
  .text              ro code  0x000006e0    0x14  em_emu.o [1]
  .text              ro code  0x000006f4   0x1a8  em_lcd.o [1]
  .text              ro code  0x0000089c   0x16c  main_prs_pulse_width.o [1]
  .text              ro code  0x00000a08    0xbc  bsp_stk_leds.o [1]
  .text              ro code  0x00000ac4    0xd4  em_gpio.o [1]
  .text              ro code  0x00000b98    0x56  ABImemcpy.o [4]
  .text              ro code  0x00000bee    0x2e  copy_init3.o [4]
  .text              ro code  0x00000c1c    0x7a  em_acmp.o [1]
  .text              ro code  0x00000c96   0x13a  em_timer.o [1]
  .text              ro code  0x00000dd0    0x1c  em_prs.o [1]
  .text              ro code  0x00000dec   0x110  segmentlcd.o [1]
  .text              ro code  0x00000efc    0x2c  data_init3.o [4]
  .text              ro code  0x00000f28    0x22  zero_init3.o [4]
  .iar.init_table    const    0x00000f4c    0x24  - Linker created -
  .rodata            const    0x00000f70    0x18  main_prs_pulse_width.o [1]
  .text              ro code  0x00000f88    0x16  cmain.o [4]
  .text              ro code  0x00000f9e     0x4  low_level_init.o [3]
  .text              ro code  0x00000fa2     0x4  exit.o [3]
  .text              ro code  0x00000fa8     0xa  cexit.o [4]
  .text              ro code  0x00000fb4     0xc  XXexit.o [4]
  .rodata            const    0x00000fc0    0x14  segmentlcd.o [1]
  .rodata            const    0x00000fd4    0x10  main_prs_pulse_width.o [1]
  .text              ro code  0x00000fe4    0x10  startup_efm32tg.o [1]
  .rodata            const    0x00000ff4     0xc  main_prs_pulse_width.o [1]
  .text              ro code  0x00001000     0xc  cstartup_M.o [4]
  .rodata            const    0x0000100c     0x8  bsp_stk_leds.o [1]
  .text              ro code  0x00001014     0x4  startup_efm32tg.o [1]
  .text              ro code  0x00001018     0x4  startup_efm32tg.o [1]
  .text              ro code  0x0000101c     0x4  startup_efm32tg.o [1]
  .text              ro code  0x00001020     0x4  startup_efm32tg.o [1]
  .text              ro code  0x00001024     0x4  startup_efm32tg.o [1]
  .text              ro code  0x00001028     0x4  startup_efm32tg.o [1]
  .text              ro code  0x0000102c     0x4  startup_efm32tg.o [1]
  .text              ro code  0x00001030     0x4  startup_efm32tg.o [1]
  .text              ro code  0x00001034     0x4  startup_efm32tg.o [1]
  .text              ro code  0x00001038     0x4  startup_efm32tg.o [1]
  .text              ro code  0x0000103c     0x4  startup_efm32tg.o [1]
  .text              ro code  0x00001040     0x4  startup_efm32tg.o [1]
  .text              ro code  0x00001044     0x4  startup_efm32tg.o [1]
  .text              ro code  0x00001048     0x4  startup_efm32tg.o [1]
  .text              ro code  0x0000104c     0x4  startup_efm32tg.o [1]
  .text              ro code  0x00001050     0x4  startup_efm32tg.o [1]
  .text              ro code  0x00001054     0x4  startup_efm32tg.o [1]
  .text              ro code  0x00001058     0x4  startup_efm32tg.o [1]
  .text              ro code  0x0000105c     0x4  startup_efm32tg.o [1]
  .text              ro code  0x00001060     0x4  startup_efm32tg.o [1]
  .text              ro code  0x00001064     0x4  startup_efm32tg.o [1]
  .text              ro code  0x00001068     0x4  startup_efm32tg.o [1]
  .text              ro code  0x0000106c     0x4  startup_efm32tg.o [1]
  .text              ro code  0x00001070     0x4  startup_efm32tg.o [1]
  .text              ro code  0x00001074     0x4  startup_efm32tg.o [1]
  .text              ro code  0x00001078     0x4  startup_efm32tg.o [1]
  .text              ro code  0x0000107c     0x4  startup_efm32tg.o [1]
  .text              ro code  0x00001080     0x4  startup_efm32tg.o [1]
  .text              ro code  0x00001084     0x4  startup_efm32tg.o [1]
  .text              ro code  0x00001088     0x4  startup_efm32tg.o [1]
  .text              ro code  0x0000108c     0x4  startup_efm32tg.o [1]
  .text              ro code  0x00001090     0x4  startup_efm32tg.o [1]
  .rodata            const    0x00001094     0x0  bwt_init3c.o [4]
  Initializer bytes  ro data  0x00001094     0x8  <for P2 s0>
                            - 0x0000109c  0x1000

"P2", part 1 of 3:                           0x8
  P2 s0                       0x20000000     0x8  <Init block>
    .data            inited   0x20000000     0x4  system_efm32tg.o [1]
    .data            inited   0x20000004     0x4  system_efm32tg.o [1]
                            - 0x20000008     0x8

"P2", part 2 of 3:                           0x8
  .bss               zero     0x20000008     0x4  system_efm32tg.o [1]
  .bss               zero     0x2000000c     0x2  em_emu.o [1]
                            - 0x2000000e     0x6

"P2", part 3 of 3:                         0x400
  CSTACK                      0x20000010   0x400  <Block>
    CSTACK           uninit   0x20000010   0x400  <Block tail>
                            - 0x20000410   0x400


*******************************************************************************
*** INIT TABLE
***

          Address     Size
          -------     ----
Zero (__iar_zero_init3)
    1 destination range, total size 0x6:
          0x20000008   0x6

Copy (__iar_copy_init3)
    1 source range, total size 0x8:
          0x00001094   0x8
    1 destination range, total size 0x8:
          0x20000000   0x8



*******************************************************************************
*** MODULE SUMMARY
***

    Module                  ro code  ro data  rw data
    ------                  -------  -------  -------
D:\Firmware\sensorphone\trunk\ sensorphone --username sensorphonics@gmail.com\sfone\energymicro\an\an0025_efm32_prs\iar\prs_pulse_width_tg\Debug\Obj: [1]
    bsp_stk_leds.o              188        8
    em_acmp.o                   122
    em_cmu.o                  1 340
    em_emu.o                     20                 2
    em_gpio.o                   212
    em_lcd.o                    424
    em_prs.o                     28
    em_timer.o                  314
    main_prs_pulse_width.o      364       52
    segmentlcd.o                272       20
    startup_efm32tg.o           300
    system_efm32tg.o            264        8       12
    -------------------------------------------------
    Total:                    3 848       88       14

command line: [2]
    -------------------------------------------------
    Total:

dl7M_tln.a: [3]
    exit.o                        4
    low_level_init.o              4
    -------------------------------------------------
    Total:                        8

rt7M_tl.a: [4]
    ABImemcpy.o                  86
    XXexit.o                     12
    bwt_init3c.o
    cexit.o                      10
    cmain.o                      22
    copy_init3.o                 46
    cstartup_M.o                 12
    data_init3.o                 44
    zero_init3.o                 34
    -------------------------------------------------
    Total:                      266

    Gaps                          4        2
    Linker created                        36    1 024
-----------------------------------------------------
    Grand Total:              4 126      126    1 038


*******************************************************************************
*** ENTRY LIST
***

Entry                      Address   Size  Type      Object
-----                      -------   ----  ----      ------
?main                   0x00000f89         Code  Gb  cmain.o [4]
ACMP0_IRQHandler        0x0000104d         Code  Wk  startup_efm32tg.o [1]
ACMP_ChannelSet         0x00000c35   0x14  Code  Gb  em_acmp.o [1]
ACMP_Enable             0x00000c2b    0xa  Code  Gb  em_acmp.o [1]
ACMP_Init               0x00000c49   0x4e  Code  Gb  em_acmp.o [1]
ACMP_setup              0x00000919   0x46  Code  Gb  main_prs_pulse_width.o [1]
ADC0_IRQHandler         0x00001051         Code  Wk  startup_efm32tg.o [1]
AES_IRQHandler          0x00001091         Code  Wk  startup_efm32tg.o [1]
BITBAND_Peripheral      0x00000c1d    0xe  Code  Lc  em_acmp.o [1]
BITBAND_Peripheral      0x0000009d    0xe  Code  Lc  em_cmu.o [1]
BSP_LedClear            0x00000a65   0x28  Code  Gb  bsp_stk_leds.o [1]
BSP_LedSet              0x00000a8d   0x28  Code  Gb  bsp_stk_leds.o [1]
BSP_LedsInit            0x00000a2d   0x38  Code  Gb  bsp_stk_leds.o [1]
BusFault_Handler        0x00001021         Code  Wk  startup_efm32tg.o [1]
CHIP_Init               0x000008b5    0x2  Code  Lc  main_prs_pulse_width.o [1]
CMU_ClockDivSet         0x0000015f  0x158  Code  Gb  em_cmu.o [1]
CMU_ClockEnable         0x000002b7   0x86  Code  Gb  em_cmu.o [1]
CMU_ClockSelectSet      0x0000033d  0x176  Code  Gb  em_cmu.o [1]
CMU_DivToLog2           0x000000df    0xe  Code  Lc  em_cmu.o [1]
CMU_FlashWaitStateControl
                        0x000000ed   0x5c  Code  Lc  em_cmu.o [1]
CMU_FlashWaitStateMax   0x000000ab   0x34  Code  Lc  em_cmu.o [1]
CMU_IRQHandler          0x00001081         Code  Wk  startup_efm32tg.o [1]
CMU_LCDClkFDIVSet       0x000004b3   0x1c  Code  Gb  em_cmu.o [1]
CMU_OscillatorEnable    0x000004cf   0x9c  Code  Gb  em_cmu.o [1]
CMU_Sync                0x00000149   0x16  Code  Lc  em_cmu.o [1]
CSTACK$$Base            0x20000010          --   Gb  - Linker created -
CSTACK$$Limit           0x20000410          --   Gb  - Linker created -
DAC0_IRQHandler         0x00001055         Code  Wk  startup_efm32tg.o [1]
DMA_IRQHandler          0x00001039         Code  Wk  startup_efm32tg.o [1]
DebugMon_Handler        0x0000102d         Code  Wk  startup_efm32tg.o [1]
EMU_EnterEM1            0x000008b7   0x10  Code  Lc  main_prs_pulse_width.o [1]
EMU_UpdateOscConfig     0x000006e1    0xa  Code  Gb  em_emu.o [1]
GPIO_EVEN_IRQHandler    0x0000103d         Code  Wk  startup_efm32tg.o [1]
GPIO_ODD_IRQHandler     0x0000105d         Code  Wk  startup_efm32tg.o [1]
GPIO_PinModeSet         0x00000ac5   0xcc  Code  Gb  em_gpio.o [1]
GPIO_PinOutClear        0x00000a09   0x12  Code  Lc  bsp_stk_leds.o [1]
GPIO_PinOutSet          0x00000a1b   0x12  Code  Lc  bsp_stk_leds.o [1]
GetProdRev              0x000005d9    0xa  Code  Lc  system_efm32tg.o [1]
HardFault_Handler       0x00001019         Code  Wk  startup_efm32tg.o [1]
I2C0_IRQHandler         0x00001059         Code  Wk  startup_efm32tg.o [1]
LCD_Enable              0x000006f5   0x2a  Code  Lc  em_lcd.o [1]
LCD_IRQHandler          0x00001089         Code  Wk  startup_efm32tg.o [1]
LCD_Init                0x0000071f   0x38  Code  Gb  em_lcd.o [1]
LCD_IntDisable          0x00000df9   0x10  Code  Lc  segmentlcd.o [1]
LCD_SegmentRangeEnable  0x00000779   0x22  Code  Gb  em_lcd.o [1]
LCD_SegmentSetLow       0x0000079b   0xc2  Code  Gb  em_lcd.o [1]
LCD_SyncBusyDelay       0x00000ded    0xc  Code  Lc  segmentlcd.o [1]
LCD_VBoostSet           0x0000085d   0x10  Code  Gb  em_lcd.o [1]
LCD_VLCDSelect          0x00000757   0x22  Code  Gb  em_lcd.o [1]
LESENSE_IRQHandler      0x0000106d         Code  Wk  startup_efm32tg.o [1]
LETIMER0_IRQHandler     0x00001075         Code  Wk  startup_efm32tg.o [1]
LEUART0_IRQHandler      0x00001071         Code  Wk  startup_efm32tg.o [1]
MSC_IRQHandler          0x0000108d         Code  Wk  startup_efm32tg.o [1]
MemManage_Handler       0x0000101d         Code  Wk  startup_efm32tg.o [1]
NMI_Handler             0x00001015         Code  Wk  startup_efm32tg.o [1]
NVIC_EnableIRQ          0x0000089d   0x18  Code  Lc  main_prs_pulse_width.o [1]
PCNT0_IRQHandler        0x00001079         Code  Wk  startup_efm32tg.o [1]
PRS_SourceSignalSet     0x00000dd1   0x18  Code  Gb  em_prs.o [1]
PendSV_Handler          0x00001031         Code  Wk  startup_efm32tg.o [1]
RTC_IRQHandler          0x0000107d         Code  Wk  startup_efm32tg.o [1]
Region$$Table$$Base     0x00000f4c          --   Gb  - Linker created -
Region$$Table$$Limit    0x00000f70          --   Gb  - Linker created -
Reset_Handler           0x00000fe5         Code  Wk  startup_efm32tg.o [1]
SVC_Handler             0x00001029         Code  Wk  startup_efm32tg.o [1]
SegmentLCD_AllOff       0x00000e09   0x64  Code  Gb  segmentlcd.o [1]
SegmentLCD_Init         0x00000e6d   0x70  Code  Gb  segmentlcd.o [1]
SysTick_Handler         0x00001035         Code  Wk  startup_efm32tg.o [1]
SystemCoreClock         0x20000008    0x4  Data  Gb  system_efm32tg.o [1]
SystemCoreClockGet      0x000005e3   0x1a  Code  Gb  system_efm32tg.o [1]
SystemHFClockGet        0x000005fd   0xa6  Code  Gb  system_efm32tg.o [1]
SystemHFXOClock         0x20000000    0x4  Data  Lc  system_efm32tg.o [1]
SystemInit              0x000006a3    0x2  Code  Gb  system_efm32tg.o [1]
SystemLFXOClock         0x20000004    0x4  Data  Lc  system_efm32tg.o [1]
TIMER0_IRQHandler       0x000008df   0x3a  Code  Gb  main_prs_pulse_width.o [1]
TIMER1_IRQHandler       0x00001061         Code  Wk  startup_efm32tg.o [1]
TIMER_CaptureGet        0x000008c7    0x8  Code  Lc  main_prs_pulse_width.o [1]
TIMER_Init              0x00000c97   0xbc  Code  Gb  em_timer.o [1]
TIMER_InitCC            0x00000d53   0x7e  Code  Gb  em_timer.o [1]
TIMER_IntClear          0x000008cf    0x4  Code  Lc  main_prs_pulse_width.o [1]
TIMER_IntEnable         0x000008d3    0x8  Code  Lc  main_prs_pulse_width.o [1]
TIMER_IntGet            0x000008db    0x4  Code  Lc  main_prs_pulse_width.o [1]
TIMER_setup             0x0000095f   0x4e  Code  Gb  main_prs_pulse_width.o [1]
USART0_RX_IRQHandler    0x00001045         Code  Wk  startup_efm32tg.o [1]
USART0_TX_IRQHandler    0x00001049         Code  Wk  startup_efm32tg.o [1]
USART1_RX_IRQHandler    0x00001065         Code  Wk  startup_efm32tg.o [1]
USART1_TX_IRQHandler    0x00001069         Code  Wk  startup_efm32tg.o [1]
UsageFault_Handler      0x00001025         Code  Wk  startup_efm32tg.o [1]
VCMP_IRQHandler         0x00001085         Code  Wk  startup_efm32tg.o [1]
__Vectors               0x00000000          --   Gb  startup_efm32tg.o [1]
__Vectors_End           0x0000009c         Data  Gb  startup_efm32tg.o [1]
__Vectors_Size {Abs}    0x0000009c          --   Gb  startup_efm32tg.o [1]
__aeabi_memcpy4         0x00000b99         Code  Gb  ABImemcpy.o [4]
__aeabi_memcpy8         0x00000b99         Code  Gb  ABImemcpy.o [4]
__cmain                 0x00000f89         Code  Gb  cmain.o [4]
__exit                  0x00000fb5         Code  Gb  XXexit.o [4]
__iar_SB                0x00001094         Data  Gb  bwt_init3c.o [4]
__iar_copy_init3        0x00000bef   0x2e  Code  Gb  copy_init3.o [4]
__iar_data_init3        0x00000efd   0x2c  Code  Gb  data_init3.o [4]
__iar_program_start     0x00001001         Code  Gb  cstartup_M.o [4]
__iar_zero_init3        0x00000f29   0x22  Code  Gb  zero_init3.o [4]
__low_level_init        0x00000f9f    0x4  Code  Gb  low_level_init.o [3]
__vector_table          0x00000000         Data  Gb  startup_efm32tg.o [1]
__vector_table_0x1c     0x0000001c         Data  Gb  startup_efm32tg.o [1]
_call_main              0x00000f95         Code  Gb  cmain.o [4]
_exit                   0x00000fa9         Code  Gb  cexit.o [4]
_main                   0x00000f9b         Code  Gb  cmain.o [4]
cmuStatus               0x2000000c    0x2  Data  Lc  em_emu.o [1]
exit                    0x00000fa3    0x4  Code  Gb  exit.o [3]
lcdInit                 0x00000fc0   0x14  Data  Lc  segmentlcd.o [1]
ledArray                0x0000100c    0x8  Data  Lc  bsp_stk_leds.o [1]
main                    0x000009ad   0x2c  Code  Gb  main_prs_pulse_width.o [1]


[1] = D:\Firmware\sensorphone\trunk\ sensorphone --username sensorphonics@gmail.com\sfone\energymicro\an\an0025_efm32_prs\iar\prs_pulse_width_tg\Debug\Obj
[2] = command line
[3] = dl7M_tln.a
[4] = rt7M_tl.a

  4 126 bytes of readonly  code memory
    126 bytes of readonly  data memory
  1 038 bytes of readwrite data memory

Errors: none
Warnings: none
