###############################################################################
#                                                                             #
# IAR ELF Linker V6.30.6.53336/W32 for ARM              22/Jan/2013  13:58:26 #
# Copyright 2007-2012 IAR Systems AB.                                         #
#                                                                             #
#    Output file  =  D:\Firmware\my-project-hihack\trunk\ my-project-hihack   #
#                    --username kaiser.ren@gmail.com\energymicro\kits\EFM32TG #
#                    _STK3300\examples\Senfone\iar\hijack\Release\Exe\hijack. #
#                    out                                                      #
#    Map file     =  D:\Firmware\my-project-hihack\trunk\ my-project-hihack   #
#                    --username kaiser.ren@gmail.com\energymicro\kits\EFM32TG #
#                    _STK3300\examples\Senfone\iar\hijack\Release\List\hijack #
#                    .map                                                     #
#    Command line =  "D:\Firmware\my-project-hihack\trunk\ my-project-hihack  #
#                    --username kaiser.ren@gmail.com\energymicro\kits\EFM32TG #
#                    _STK3300\examples\Senfone\iar\hijack\Release\Obj\bsp_stk #
#                    .o" "D:\Firmware\my-project-hihack\trunk\                #
#                    my-project-hihack --username                             #
#                    kaiser.ren@gmail.com\energymicro\kits\EFM32TG_STK3300\ex #
#                    amples\Senfone\iar\hijack\Release\Obj\bsp_stk_leds.o"    #
#                    "D:\Firmware\my-project-hihack\trunk\ my-project-hihack  #
#                    --username kaiser.ren@gmail.com\energymicro\kits\EFM32TG #
#                    _STK3300\examples\Senfone\iar\hijack\Release\Obj\bsp_tra #
#                    ce.o" "D:\Firmware\my-project-hihack\trunk\              #
#                    my-project-hihack --username                             #
#                    kaiser.ren@gmail.com\energymicro\kits\EFM32TG_STK3300\ex #
#                    amples\Senfone\iar\hijack\Release\Obj\com.o"             #
#                    "D:\Firmware\my-project-hihack\trunk\ my-project-hihack  #
#                    --username kaiser.ren@gmail.com\energymicro\kits\EFM32TG #
#                    _STK3300\examples\Senfone\iar\hijack\Release\Obj\em_asse #
#                    rt.o" "D:\Firmware\my-project-hihack\trunk\              #
#                    my-project-hihack --username                             #
#                    kaiser.ren@gmail.com\energymicro\kits\EFM32TG_STK3300\ex #
#                    amples\Senfone\iar\hijack\Release\Obj\em_cmu.o"          #
#                    "D:\Firmware\my-project-hihack\trunk\ my-project-hihack  #
#                    --username kaiser.ren@gmail.com\energymicro\kits\EFM32TG #
#                    _STK3300\examples\Senfone\iar\hijack\Release\Obj\em_emu. #
#                    o" "D:\Firmware\my-project-hihack\trunk\                 #
#                    my-project-hihack --username                             #
#                    kaiser.ren@gmail.com\energymicro\kits\EFM32TG_STK3300\ex #
#                    amples\Senfone\iar\hijack\Release\Obj\em_gpio.o"         #
#                    "D:\Firmware\my-project-hihack\trunk\ my-project-hihack  #
#                    --username kaiser.ren@gmail.com\energymicro\kits\EFM32TG #
#                    _STK3300\examples\Senfone\iar\hijack\Release\Obj\em_int. #
#                    o" "D:\Firmware\my-project-hihack\trunk\                 #
#                    my-project-hihack --username                             #
#                    kaiser.ren@gmail.com\energymicro\kits\EFM32TG_STK3300\ex #
#                    amples\Senfone\iar\hijack\Release\Obj\em_lcd.o"          #
#                    "D:\Firmware\my-project-hihack\trunk\ my-project-hihack  #
#                    --username kaiser.ren@gmail.com\energymicro\kits\EFM32TG #
#                    _STK3300\examples\Senfone\iar\hijack\Release\Obj\em_syst #
#                    em.o" "D:\Firmware\my-project-hihack\trunk\              #
#                    my-project-hihack --username                             #
#                    kaiser.ren@gmail.com\energymicro\kits\EFM32TG_STK3300\ex #
#                    amples\Senfone\iar\hijack\Release\Obj\em_timer.o"        #
#                    "D:\Firmware\my-project-hihack\trunk\ my-project-hihack  #
#                    --username kaiser.ren@gmail.com\energymicro\kits\EFM32TG #
#                    _STK3300\examples\Senfone\iar\hijack\Release\Obj\em_usar #
#                    t.o" "D:\Firmware\my-project-hihack\trunk\               #
#                    my-project-hihack --username                             #
#                    kaiser.ren@gmail.com\energymicro\kits\EFM32TG_STK3300\ex #
#                    amples\Senfone\iar\hijack\Release\Obj\em_vcmp.o"         #
#                    "D:\Firmware\my-project-hihack\trunk\ my-project-hihack  #
#                    --username kaiser.ren@gmail.com\energymicro\kits\EFM32TG #
#                    _STK3300\examples\Senfone\iar\hijack\Release\Obj\hijack_ #
#                    decode.o" "D:\Firmware\my-project-hihack\trunk\          #
#                    my-project-hihack --username                             #
#                    kaiser.ren@gmail.com\energymicro\kits\EFM32TG_STK3300\ex #
#                    amples\Senfone\iar\hijack\Release\Obj\main.o"            #
#                    "D:\Firmware\my-project-hihack\trunk\ my-project-hihack  #
#                    --username kaiser.ren@gmail.com\energymicro\kits\EFM32TG #
#                    _STK3300\examples\Senfone\iar\hijack\Release\Obj\segment #
#                    lcd.o" "D:\Firmware\my-project-hihack\trunk\             #
#                    my-project-hihack --username                             #
#                    kaiser.ren@gmail.com\energymicro\kits\EFM32TG_STK3300\ex #
#                    amples\Senfone\iar\hijack\Release\Obj\startup_efm32tg.o" #
#                     "D:\Firmware\my-project-hihack\trunk\                   #
#                    my-project-hihack --username                             #
#                    kaiser.ren@gmail.com\energymicro\kits\EFM32TG_STK3300\ex #
#                    amples\Senfone\iar\hijack\Release\Obj\system_efm32tg.o"  #
#                    "D:\Firmware\my-project-hihack\trunk\ my-project-hihack  #
#                    --username kaiser.ren@gmail.com\energymicro\kits\EFM32TG #
#                    _STK3300\examples\Senfone\iar\hijack\Release\Obj\vddchec #
#                    k.o" --redirect _Printf=_PrintfFull --redirect           #
#                    _Scanf=_ScanfFull -o "D:\Firmware\my-project-hihack\trun #
#                    k\ my-project-hihack --username                          #
#                    kaiser.ren@gmail.com\energymicro\kits\EFM32TG_STK3300\ex #
#                    amples\Senfone\iar\hijack\Release\Exe\hijack.out" --map  #
#                    "D:\Firmware\my-project-hihack\trunk\ my-project-hihack  #
#                    --username kaiser.ren@gmail.com\energymicro\kits\EFM32TG #
#                    _STK3300\examples\Senfone\iar\hijack\Release\List\hijack #
#                    .map" --config "D:\Program Files\IAR Systems\Embedded    #
#                    Workbench 6.0_3\arm\config\linker\EnergyMicro\EFM32TG840 #
#                    F32.icf" --entry __iar_program_start --inline --vfe      #
#                                                                             #
#                                                                             #
###############################################################################

*******************************************************************************
*** RUNTIME MODEL ATTRIBUTES
***

CppFlavor       = *
__SystemLibrary = DLib


*******************************************************************************
*** PLACEMENT SUMMARY
***

"A1":  place at 0x00000000 { ro section .intvec };
"P1":  place in [from 0x00000000 to 0x00007fff] { ro };
"P2":  place in [from 0x20000000 to 0x20000fff] { rw, block CSTACK, block HEAP };

  Section            Kind        Address    Size  Object
  -------            ----        -------    ----  ------
"A1":                                       0x9c
  .intvec            ro code  0x00000000    0x9c  startup_efm32tg.o [1]
                            - 0x0000009c    0x9c

"P1":                                     0x3530
  .text              ro code  0x0000009c   0xd1e  xprintffull.o [3]
  .text              ro code  0x00000dba    0x2e  copy_init3.o [5]
  .text              ro code  0x00000de8    0x16  strchr.o [5]
  .text              ro code  0x00000dfe    0x22  zero_init3.o [5]
  .text              ro code  0x00000e20    0x36  strlen.o [5]
  .text              ro code  0x00000e56     0xa  xsprout.o [3]
  .text              ro code  0x00000e60    0x58  memchr.o [5]
  .text              ro code  0x00000eb8    0xee  I64DivMod.o [5]
  .text              ro code  0x00000fa8    0x76  ABImemcpy.o [5]
  .text              ro code  0x0000101e    0x44  xdnorm.o [4]
  .text              ro code  0x00001064    0x2e  DblCmpLe.o [4]
  .text              ro code  0x00001094    0x2e  DblCmpGe.o [4]
  .text              ro code  0x000010c4   0x11a  xdscale.o [4]
  .text              ro code  0x000011e0    0x58  DblToI32.o [4]
  .text              ro code  0x00001238    0x30  I32ToDbl.o [4]
  .text              ro code  0x00001268   0x180  DblSub.o [4]
  .text              ro code  0x000013e8   0x1a2  DblMul.o [4]
  .text              ro code  0x0000158c   0x246  DblDiv.o [4]
  .text              ro code  0x000017d2     0xe  div.o [3]
  .text              ro code  0x000017e0     0x2  I64DivZer.o [5]
  .text              ro code  0x000017e4    0xd4  DblAdd.o [4]
  .text              ro code  0x000018b8   0x93c  em_cmu.o [1]
  .text              ro code  0x000021f4     0x2  em_assert.o [1]
  .text              ro code  0x000021f8    0xe8  system_efm32tg.o [1]
  .text              ro code  0x000022e0    0x14  em_emu.o [1]
  .text              ro code  0x000022f4   0x428  segmentlcd.o [1]
  .text              ro code  0x0000271c   0x240  em_lcd.o [1]
  .text              ro code  0x0000295c   0x260  em_usart.o [1]
  .text              ro code  0x00002bbc   0x214  hijack_decode.o [1]
  .text              ro code  0x00002dd0    0x50  bsp_stk_leds.o [1]
  .text              ro code  0x00002e20   0x1dc  em_timer.o [1]
  .text              ro code  0x00002ffc    0xf0  em_gpio.o [1]
  .text              ro code  0x000030ec   0x1b8  com.o [1]
  .text              ro code  0x000032a4   0x1e8  main.o [1]
  .text              ro code  0x0000348c    0x2c  data_init3.o [5]
  .iar.init_table    const    0x000034b8    0x24  - Linker created -
  .text              ro code  0x000034dc    0x16  cmain.o [5]
  .text              ro code  0x000034f2     0x4  exit.o [3]
  .text              ro code  0x000034f8     0xa  cexit.o [5]
  .text              ro code  0x00003504     0xc  XXexit.o [5]
  .text              ro code  0x00003510    0x10  startup_efm32tg.o [1]
  .text              ro code  0x00003520     0xc  cstartup_M.o [5]
  .text              ro code  0x0000352c     0x4  startup_efm32tg.o [1]
  .text              ro code  0x00003530     0x4  startup_efm32tg.o [1]
  .text              ro code  0x00003534     0x4  startup_efm32tg.o [1]
  .text              ro code  0x00003538     0x4  startup_efm32tg.o [1]
  .text              ro code  0x0000353c     0x4  startup_efm32tg.o [1]
  .text              ro code  0x00003540     0x4  startup_efm32tg.o [1]
  .text              ro code  0x00003544     0x4  startup_efm32tg.o [1]
  .text              ro code  0x00003548     0x4  startup_efm32tg.o [1]
  .text              ro code  0x0000354c     0x4  startup_efm32tg.o [1]
  .text              ro code  0x00003550     0x4  startup_efm32tg.o [1]
  .text              ro code  0x00003554     0x4  startup_efm32tg.o [1]
  .text              ro code  0x00003558     0x4  startup_efm32tg.o [1]
  .text              ro code  0x0000355c     0x4  startup_efm32tg.o [1]
  .text              ro code  0x00003560     0x4  startup_efm32tg.o [1]
  .text              ro code  0x00003564     0x4  startup_efm32tg.o [1]
  .text              ro code  0x00003568     0x4  startup_efm32tg.o [1]
  .text              ro code  0x0000356c     0x4  startup_efm32tg.o [1]
  .text              ro code  0x00003570     0x4  startup_efm32tg.o [1]
  .text              ro code  0x00003574     0x4  startup_efm32tg.o [1]
  .text              ro code  0x00003578     0x4  startup_efm32tg.o [1]
  .text              ro code  0x0000357c     0x4  startup_efm32tg.o [1]
  .text              ro code  0x00003580     0x4  startup_efm32tg.o [1]
  .text              ro code  0x00003584     0x4  startup_efm32tg.o [1]
  .text              ro code  0x00003588     0x4  startup_efm32tg.o [1]
  .text              ro code  0x0000358c     0x4  startup_efm32tg.o [1]
  .text              ro code  0x00003590     0x4  startup_efm32tg.o [1]
  .text              ro code  0x00003594     0x4  startup_efm32tg.o [1]
  .text              ro code  0x00003598     0x4  startup_efm32tg.o [1]
  .text              ro code  0x0000359c     0x4  startup_efm32tg.o [1]
  .text              ro code  0x000035a0     0x4  startup_efm32tg.o [1]
  .text              ro code  0x000035a4     0x4  startup_efm32tg.o [1]
  .text              ro code  0x000035a8     0x4  startup_efm32tg.o [1]
  .rodata            const    0x000035ac     0x0  bwt_init3c.o [5]
  Initializer bytes  ro data  0x000035ac    0x20  <for P2 s0>
                            - 0x000035cc  0x3530

"P2", part 1 of 3:                          0x20
  P2 s0                       0x20000000    0x20  <Init block>
    .data            inited   0x20000000    0x18  com.o [1]
    .data            inited   0x20000018     0x8  system_efm32tg.o [1]
                            - 0x20000020    0x20

"P2", part 2 of 3:                         0x270
  .bss               zero     0x20000020   0x110  com.o [1]
  .bss               zero     0x20000130   0x110  com.o [1]
  .bss               zero     0x20000240    0x34  com.o [1]
  .bss               zero     0x20000274    0x14  hijack_decode.o [1]
  .bss               zero     0x20000288     0x4  system_efm32tg.o [1]
  .bss               zero     0x2000028c     0x2  em_emu.o [1]
                            - 0x2000028e   0x26e

"P2", part 3 of 3:                         0x400
  CSTACK                      0x20000290   0x400  <Block>
    CSTACK           uninit   0x20000290   0x400  <Block tail>
                            - 0x20000690   0x400


*******************************************************************************
*** INIT TABLE
***

          Address     Size
          -------     ----
Zero (__iar_zero_init3)
    1 destination range, total size 0x26e:
          0x20000020  0x26e

Copy (__iar_copy_init3)
    1 source range, total size 0x20:
          0x000035ac   0x20
    1 destination range, total size 0x20:
          0x20000000   0x20



*******************************************************************************
*** MODULE SUMMARY
***

    Module             ro code  ro data  rw data
    ------             -------  -------  -------
D:\Firmware\my-project-hihack\trunk\ my-project-hihack --username kaiser.ren@gmail.com\energymicro\kits\EFM32TG_STK3300\examples\Senfone\iar\hijack\Release\Obj: [1]
    bsp_stk_leds.o          80
    com.o                  440       24      620
    em_assert.o              2
    em_cmu.o             2 364
    em_emu.o                20                 2
    em_gpio.o              240
    em_lcd.o               576
    em_timer.o             476
    em_usart.o             608
    hijack_decode.o        532                20
    main.o                 488
    segmentlcd.o         1 064
    startup_efm32tg.o      300
    system_efm32tg.o       232        8       12
    --------------------------------------------
    Total:               7 422       32      654

command line: [2]
    --------------------------------------------
    Total:

dl7M_tln.a: [3]
    div.o                   14
    exit.o                   4
    xprintffull.o        3 358
    xsprout.o               10
    --------------------------------------------
    Total:               3 386

m7M_tl.a: [4]
    DblAdd.o               212
    DblCmpGe.o              46
    DblCmpLe.o              46
    DblDiv.o               582
    DblMul.o               418
    DblSub.o               384
    DblToI32.o              88
    I32ToDbl.o              48
    xdnorm.o                68
    xdscale.o              282
    --------------------------------------------
    Total:               2 174

rt7M_tl.a: [5]
    ABImemcpy.o            118
    I64DivMod.o            238
    I64DivZer.o              2
    XXexit.o                12
    bwt_init3c.o
    cexit.o                 10
    cmain.o                 22
    copy_init3.o            46
    cstartup_M.o            12
    data_init3.o            44
    memchr.o                88
    strchr.o                22
    strlen.o                54
    zero_init3.o            34
    --------------------------------------------
    Total:                 702

    Gaps                    20
    Linker created                   36    1 024
------------------------------------------------
    Grand Total:        13 704       68    1 678


*******************************************************************************
*** ENTRY LIST
***

Entry                      Address   Size  Type      Object
-----                      -------   ----  ----      ------
?main                   0x000034dd         Code  Gb  cmain.o [5]
ACMP0_IRQHandler        0x00003565         Code  Wk  startup_efm32tg.o [1]
ADC0_IRQHandler         0x00003569         Code  Wk  startup_efm32tg.o [1]
AES_IRQHandler          0x000035a9         Code  Wk  startup_efm32tg.o [1]
BSP_LedClear            0x00002df3    0x8  Code  Gb  bsp_stk_leds.o [1]
BSP_LedSet              0x00002dfb    0x6  Code  Gb  bsp_stk_leds.o [1]
BSP_LedsInit            0x00002dd1   0x22  Code  Gb  bsp_stk_leds.o [1]
BusFault_Handler        0x00003539         Code  Wk  startup_efm32tg.o [1]
CMU_Clkout              0x00003327   0x20  Code  Gb  main.o [1]
CMU_ClockDivSet         0x00001999  0x246  Code  Gb  em_cmu.o [1]
CMU_ClockEnable         0x00001be1   0x82  Code  Gb  em_cmu.o [1]
CMU_ClockFreqGet        0x00001c6d  0x196  Code  Gb  em_cmu.o [1]
CMU_ClockSelectGet      0x00001e11   0xb6  Code  Gb  em_cmu.o [1]
CMU_ClockSelectSet      0x00001ec7  0x12e  Code  Gb  em_cmu.o [1]
CMU_FlashWaitStateControl
                        0x000018e3   0x54  Code  Lc  em_cmu.o [1]
CMU_FlashWaitStateMax   0x000018b9   0x2a  Code  Lc  em_cmu.o [1]
CMU_HFRCOBandSet        0x00001ff5   0x72  Code  Gb  em_cmu.o [1]
CMU_IRQHandler          0x00003599         Code  Wk  startup_efm32tg.o [1]
CMU_LCDClkFDIVSet       0x0000207f   0x26  Code  Gb  em_cmu.o [1]
CMU_LFClkGet            0x00001937   0x62  Code  Lc  em_cmu.o [1]
CMU_OscillatorEnable    0x000020a5   0x54  Code  Gb  em_cmu.o [1]
COM_Init                0x000030ed   0x86  Code  Gb  com.o [1]
CSTACK$$Base            0x20000290          --   Gb  - Linker created -
CSTACK$$Limit           0x20000690          --   Gb  - Linker created -
DAC0_IRQHandler         0x0000356d         Code  Wk  startup_efm32tg.o [1]
DMA_IRQHandler          0x00003551         Code  Wk  startup_efm32tg.o [1]
DebugMon_Handler        0x00003545         Code  Wk  startup_efm32tg.o [1]
Debug_Print             0x00003237   0x40  Code  Gb  com.o [1]
EFM_Alphabet            0x00002650   0xb8  Data  Lc  segmentlcd.o [1]
EFM_Display             0x00002530  0x120  Data  Lc  segmentlcd.o [1]
EMU_UpdateOscConfig     0x000022e1    0xa  Code  Gb  em_emu.o [1]
GPIO_EVEN_IRQHandler    0x0000331d    0xa  Code  Gb  main.o [1]
GPIO_ODD_IRQHandler     0x00003313    0xa  Code  Gb  main.o [1]
GPIO_PinModeSet         0x00002ffd   0x76  Code  Gb  em_gpio.o [1]
HardFault_Handler       0x00003531         Code  Wk  startup_efm32tg.o [1]
I2C0_IRQHandler         0x00003571         Code  Wk  startup_efm32tg.o [1]
IsTime2Detect           0x00002c53   0x28  Code  Lc  hijack_decode.o [1]
LCD_IRQHandler          0x000035a1         Code  Wk  startup_efm32tg.o [1]
LCD_Init                0x0000271d   0x44  Code  Gb  em_lcd.o [1]
LCD_SegmentRangeEnable  0x00002777   0x12  Code  Gb  em_lcd.o [1]
LCD_SegmentSet          0x0000278d   0x80  Code  Gb  em_lcd.o [1]
LCD_SegmentSetLow       0x00002815   0x7c  Code  Gb  em_lcd.o [1]
LCD_VBoostSet           0x0000289d    0x8  Code  Gb  em_lcd.o [1]
LCD_VLCDSelect          0x00002761   0x16  Code  Gb  em_lcd.o [1]
LESENSE_IRQHandler      0x00003585         Code  Wk  startup_efm32tg.o [1]
LETIMER0_IRQHandler     0x0000358d         Code  Wk  startup_efm32tg.o [1]
LEUART0_IRQHandler      0x00003589         Code  Wk  startup_efm32tg.o [1]
MSC_IRQHandler          0x000035a5         Code  Wk  startup_efm32tg.o [1]
MemManage_Handler       0x00003535         Code  Wk  startup_efm32tg.o [1]
NMI_Handler             0x0000352d         Code  Wk  startup_efm32tg.o [1]
PCNT0_IRQHandler        0x00003591         Code  Wk  startup_efm32tg.o [1]
PendSV_Handler          0x00003549         Code  Wk  startup_efm32tg.o [1]
RTC_IRQHandler          0x00003595         Code  Wk  startup_efm32tg.o [1]
Region$$Table$$Base     0x000034b8          --   Gb  - Linker created -
Region$$Table$$Limit    0x000034dc          --   Gb  - Linker created -
Reset_Handler           0x00003511         Code  Wk  startup_efm32tg.o [1]
SVC_Handler             0x00003541         Code  Wk  startup_efm32tg.o [1]
SegmentLCD_AllOff       0x000023cb   0x5c  Code  Gb  segmentlcd.o [1]
SegmentLCD_AlphaNumberOff
                        0x000022f5   0x5e  Code  Gb  segmentlcd.o [1]
SegmentLCD_Init         0x000024ab   0x6a  Code  Gb  segmentlcd.o [1]
SegmentLCD_Symbol       0x00002439   0x72  Code  Gb  segmentlcd.o [1]
SegmentLCD_Write        0x00002353   0x78  Code  Gb  segmentlcd.o [1]
SysTick_Handler         0x0000354d         Code  Wk  startup_efm32tg.o [1]
SystemCoreClock         0x20000288    0x4  Data  Gb  system_efm32tg.o [1]
SystemCoreClockGet      0x000021f9   0x16  Code  Gb  system_efm32tg.o [1]
SystemHFClockGet        0x0000220f   0x7e  Code  Gb  system_efm32tg.o [1]
SystemHFXOClock         0x20000018    0x4  Data  Lc  system_efm32tg.o [1]
SystemInit              0x00002293    0x2  Code  Gb  system_efm32tg.o [1]
SystemLFRCOClockGet     0x00002295    0x2  Code  Gb  system_efm32tg.o [1]
SystemLFXOClock         0x2000001c    0x4  Data  Lc  system_efm32tg.o [1]
SystemLFXOClockGet      0x000022a3    0x2  Code  Gb  system_efm32tg.o [1]
SystemULFRCOClockGet    0x0000229d    0x6  Code  Gb  system_efm32tg.o [1]
TIMER0_IRQHandler       0x00002bbd   0x36  Code  Gb  hijack_decode.o [1]
TIMER1_IRQHandler       0x00003579         Code  Wk  startup_efm32tg.o [1]
TIMER_Enable            0x00002e21   0x28  Code  Gb  em_timer.o [1]
TIMER_Init              0x00002e49   0xa8  Code  Gb  em_timer.o [1]
TIMER_InitCC            0x00002ef1   0x8a  Code  Gb  em_timer.o [1]
USART0_RX_IRQHandler    0x0000355d         Code  Wk  startup_efm32tg.o [1]
USART0_TX_IRQHandler    0x00003561         Code  Wk  startup_efm32tg.o [1]
USART1_RX_IRQHandler    0x000031b5   0x40  Code  Gb  com.o [1]
USART1_TX_IRQHandler    0x000031f5   0x42  Code  Gb  com.o [1]
USART_BaudrateAsyncSet  0x0000295d   0xca  Code  Gb  em_usart.o [1]
USART_Enable            0x00002a27   0x2c  Code  Gb  em_usart.o [1]
USART_InitAsync         0x00002a53   0x5a  Code  Gb  em_usart.o [1]
USART_Reset             0x00002ab3   0x5a  Code  Gb  em_usart.o [1]
USART_Rx                0x00002b2d    0xc  Code  Gb  em_usart.o [1]
USART_Tx                0x00002b39    0xa  Code  Gb  em_usart.o [1]
UsageFault_Handler      0x0000353d         Code  Wk  startup_efm32tg.o [1]
VCMP_IRQHandler         0x0000359d         Code  Wk  startup_efm32tg.o [1]
_GenldFull              0x00000b01  0x270  Code  Lc  xprintffull.o [3]
_LdtobFull              0x000006f1  0x400  Code  Lc  xprintffull.o [3]
_LitobFull              0x000005cb  0x126  Code  Lc  xprintffull.o [3]
_PrintfFull             0x0000009d  0x52e  Code  Gb  xprintffull.o [3]
_PutcharsFull           0x00000d71   0x2e  Code  Lc  xprintffull.o [3]
_SProut                 0x00000e57    0xa  Code  Gb  xsprout.o [3]
__Vectors               0x00000000          --   Gb  startup_efm32tg.o [1]
__Vectors_End           0x0000009c         Data  Gb  startup_efm32tg.o [1]
__Vectors_Size {Abs}    0x0000009c          --   Gb  startup_efm32tg.o [1]
__aeabi_cdcmple         0x00001065         Code  Gb  DblCmpLe.o [4]
__aeabi_cdrcmple        0x00001095         Code  Gb  DblCmpGe.o [4]
__aeabi_d2iz            0x000011e1         Code  Gb  DblToI32.o [4]
__aeabi_d2uiz           0x0000120d         Code  Gb  DblToI32.o [4]
__aeabi_ddiv            0x0000158d         Code  Gb  DblDiv.o [4]
__aeabi_dmul            0x000013e9         Code  Gb  DblMul.o [4]
__aeabi_dsub            0x00001269         Code  Gb  DblSub.o [4]
__aeabi_i2d             0x00001239         Code  Gb  I32ToDbl.o [4]
__aeabi_ldiv0           0x000017e1         Code  Gb  I64DivZer.o [5]
__aeabi_memcpy          0x00000fa9         Code  Gb  ABImemcpy.o [5]
__aeabi_memcpy4         0x00000fc9         Code  Gb  ABImemcpy.o [5]
__aeabi_memcpy8         0x00000fc9         Code  Gb  ABImemcpy.o [5]
__aeabi_ui2d            0x0000124d         Code  Gb  I32ToDbl.o [4]
__aeabi_uldivmod        0x00000eb9         Code  Gb  I64DivMod.o [5]
__cmain                 0x000034dd         Code  Gb  cmain.o [5]
__exit                  0x00003505         Code  Gb  XXexit.o [5]
__iar_Dnorm             0x0000101f   0x44  Code  Gb  xdnorm.o [4]
__iar_Dscale            0x000010c5  0x106  Code  Gb  xdscale.o [4]
__iar_Memchr            0x00000e61         Code  Gb  memchr.o [5]
__iar_SB                0x000035ac         Data  Gb  bwt_init3c.o [5]
__iar_Strchr            0x00000de9         Code  Gb  strchr.o [5]
__iar_copy_init3        0x00000dbb   0x2e  Code  Gb  copy_init3.o [5]
__iar_d2uiz             0x00001219         Code  Gb  DblToI32.o [4]
__iar_dadd              0x000017e5         Code  Gb  DblAdd.o [4]
__iar_data_init3        0x0000348d   0x2c  Code  Gb  data_init3.o [5]
__iar_dsub              0x0000127d         Code  Gb  DblSub.o [4]
__iar_dsubStart         0x0000128f         Code  Gb  DblSub.o [4]
__iar_program_start     0x00003521         Code  Gb  cstartup_M.o [5]
__iar_ui2d              0x00001251         Code  Gb  I32ToDbl.o [4]
__iar_zero_init3        0x00000dff   0x22  Code  Gb  zero_init3.o [5]
__vector_table          0x00000000         Data  Gb  startup_efm32tg.o [1]
__vector_table_0x1c     0x0000001c         Data  Gb  startup_efm32tg.o [1]
_call_main              0x000034e9         Code  Gb  cmain.o [5]
_exit                   0x000034f9         Code  Gb  cexit.o [5]
_main                   0x000034ef         Code  Gb  cmain.o [5]
appPrintBuf             0x20000240   0x34  Data  Gb  com.o [1]
assertEFM               0x000021f5    0x2  Code  Gb  em_assert.o [1]
cmuStatus               0x2000028c    0x2  Data  Lc  em_emu.o [1]
cur_edge                0x20000279    0x1  Data  Gb  hijack_decode.o [1]
cur_stamp               0x2000027c    0x4  Data  Gb  hijack_decode.o [1]
dec                     0x20000274    0x4  Data  Gb  hijack_decode.o [1]
dec_init                0x00002bf3   0x60  Code  Gb  hijack_decode.o [1]
dec_parser              0x00002c7b   0x46  Code  Lc  hijack_decode.o [1]
decode_machine          0x00002cc1   0xca  Code  Gb  hijack_decode.o [1]
div                     0x000017d3    0xe  Code  Gb  div.o [3]
edge_occur              0x20000278    0x1  Data  Gb  hijack_decode.o [1]
exit                    0x000034f3    0x4  Code  Gb  exit.o [3]
inv                     0x20000284    0x4  Data  Lc  hijack_decode.o [1]
lcdInit                 0x00002708   0x14  Data  Lc  segmentlcd.o [1]
main                    0x00003347   0x8c  Code  Gb  main.o [1]
memchr                  0x00000e61         Code  Gb  memchr.o [5]
offset                  0x20000280    0x4  Data  Lc  hijack_decode.o [1]
rxBuf                   0x20000020  0x110  Data  Gb  com.o [1]
setupSWO                0x000032a5   0x6e  Code  Gb  main.o [1]
strchr                  0x00000de9         Code  Gb  strchr.o [5]
strlen                  0x00000e21         Code  Gb  strlen.o [5]
txBuf                   0x20000130  0x110  Data  Gb  com.o [1]
uartInit                0x20000000   0x18  Data  Lc  com.o [1]
uartPutChar             0x00003173   0x42  Code  Gb  com.o [1]


[1] = D:\Firmware\my-project-hihack\trunk\ my-project-hihack --username kaiser.ren@gmail.com\energymicro\kits\EFM32TG_STK3300\examples\Senfone\iar\hijack\Release\Obj
[2] = command line
[3] = dl7M_tln.a
[4] = m7M_tl.a
[5] = rt7M_tl.a

  13 704 bytes of readonly  code memory
      68 bytes of readonly  data memory
   1 678 bytes of readwrite data memory

Errors: none
Warnings: none
