###############################################################################
#                                                                             #
# IAR ELF Linker V6.30.6.53336/W32 for ARM              31/May/2013  11:21:26 #
# Copyright 2007-2012 IAR Systems AB.                                         #
#                                                                             #
#    Output file  =  D:\Firmware\my-project-hihack\trunk\ my-project-hihack   #
#                    --username kaiser.ren@gmail.com\energymicro\an\an0003_ef #
#                    m32_uart_bootloader\iar\bootloader-tg840\Release\Exe\boo #
#                    tloader-tg840.out                                        #
#    Map file     =  D:\Firmware\my-project-hihack\trunk\ my-project-hihack   #
#                    --username kaiser.ren@gmail.com\energymicro\an\an0003_ef #
#                    m32_uart_bootloader\iar\bootloader-tg840\Release\List\bo #
#                    otloader-tg840.map                                       #
#    Command line =  "D:\Firmware\my-project-hihack\trunk\ my-project-hihack  #
#                    --username kaiser.ren@gmail.com\energymicro\an\an0003_ef #
#                    m32_uart_bootloader\iar\bootloader-tg840\Release\Obj\aut #
#                    obaud.o" "D:\Firmware\my-project-hihack\trunk\           #
#                    my-project-hihack --username                             #
#                    kaiser.ren@gmail.com\energymicro\an\an0003_efm32_uart_bo #
#                    otloader\iar\bootloader-tg840\Release\Obj\boot.o"        #
#                    "D:\Firmware\my-project-hihack\trunk\ my-project-hihack  #
#                    --username kaiser.ren@gmail.com\energymicro\an\an0003_ef #
#                    m32_uart_bootloader\iar\bootloader-tg840\Release\Obj\boo #
#                    tloader.o" "D:\Firmware\my-project-hihack\trunk\         #
#                    my-project-hihack --username                             #
#                    kaiser.ren@gmail.com\energymicro\an\an0003_efm32_uart_bo #
#                    otloader\iar\bootloader-tg840\Release\Obj\crc.o"         #
#                    "D:\Firmware\my-project-hihack\trunk\ my-project-hihack  #
#                    --username kaiser.ren@gmail.com\energymicro\an\an0003_ef #
#                    m32_uart_bootloader\iar\bootloader-tg840\Release\Obj\deb #
#                    ug.o" "D:\Firmware\my-project-hihack\trunk\              #
#                    my-project-hihack --username                             #
#                    kaiser.ren@gmail.com\energymicro\an\an0003_efm32_uart_bo #
#                    otloader\iar\bootloader-tg840\Release\Obj\debuglock.o"   #
#                    "D:\Firmware\my-project-hihack\trunk\ my-project-hihack  #
#                    --username kaiser.ren@gmail.com\energymicro\an\an0003_ef #
#                    m32_uart_bootloader\iar\bootloader-tg840\Release\Obj\em_ #
#                    cmu.o" "D:\Firmware\my-project-hihack\trunk\             #
#                    my-project-hihack --username                             #
#                    kaiser.ren@gmail.com\energymicro\an\an0003_efm32_uart_bo #
#                    otloader\iar\bootloader-tg840\Release\Obj\flash.o"       #
#                    "D:\Firmware\my-project-hihack\trunk\ my-project-hihack  #
#                    --username kaiser.ren@gmail.com\energymicro\an\an0003_ef #
#                    m32_uart_bootloader\iar\bootloader-tg840\Release\Obj\iar #
#                    write.o" "D:\Firmware\my-project-hihack\trunk\           #
#                    my-project-hihack --username                             #
#                    kaiser.ren@gmail.com\energymicro\an\an0003_efm32_uart_bo #
#                    otloader\iar\bootloader-tg840\Release\Obj\startup_efm32. #
#                    o" "D:\Firmware\my-project-hihack\trunk\                 #
#                    my-project-hihack --username                             #
#                    kaiser.ren@gmail.com\energymicro\an\an0003_efm32_uart_bo #
#                    otloader\iar\bootloader-tg840\Release\Obj\system_efm32tg #
#                    .o" "D:\Firmware\my-project-hihack\trunk\                #
#                    my-project-hihack --username                             #
#                    kaiser.ren@gmail.com\energymicro\an\an0003_efm32_uart_bo #
#                    otloader\iar\bootloader-tg840\Release\Obj\usart.o"       #
#                    "D:\Firmware\my-project-hihack\trunk\ my-project-hihack  #
#                    --username kaiser.ren@gmail.com\energymicro\an\an0003_ef #
#                    m32_uart_bootloader\iar\bootloader-tg840\Release\Obj\xmo #
#                    dem.o" --redirect _Printf=_PrintfFull --redirect         #
#                    _Scanf=_ScanfFull -o "D:\Firmware\my-project-hihack\trun #
#                    k\ my-project-hihack --username                          #
#                    kaiser.ren@gmail.com\energymicro\an\an0003_efm32_uart_bo #
#                    otloader\iar\bootloader-tg840\Release\Exe\bootloader-tg8 #
#                    40.out" --map "D:\Firmware\my-project-hihack\trunk\      #
#                    my-project-hihack --username                             #
#                    kaiser.ren@gmail.com\energymicro\an\an0003_efm32_uart_bo #
#                    otloader\iar\bootloader-tg840\Release\List\bootloader-tg #
#                    840.map" --config "D:\Firmware\my-project-hihack\trunk\  #
#                    my-project-hihack --username                             #
#                    kaiser.ren@gmail.com\energymicro\an\an0003_efm32_uart_bo #
#                    otloader\iar\..\iar_linker_files\EFM32TG840F32.icf"      #
#                    --entry __iar_program_start --inline --vfe               #
#                                                                             #
#                                                                             #
###############################################################################

*******************************************************************************
*** RUNTIME MODEL ATTRIBUTES
***

CppFlavor       = *
__SystemLibrary = DLib


*******************************************************************************
*** PLACEMENT SUMMARY
***

"A1":  place at 0x00000000 { ro section .intvec };
"P1":  place in [from 0x00000000 to 0x00007fff] { ro };
"P2":  place in [from 0x20000000 to 0x20000fff] { rw, block CSTACK, block HEAP };

  Section            Kind        Address   Size  Object
  -------            ----        -------   ----  ------
"A1":                                       0x8
  .intvec            ro code  0x00000000    0x8  startup_efm32.o [1]
                            - 0x00000008    0x8

"P1":                                     0x944
  Veneer             ro code  0x00000008    0x8  - Linker created -
  Veneer             ro code  0x00000010    0x8  - Linker created -
  Veneer             ro code  0x00000018    0x8  - Linker created -
  Veneer             ro code  0x00000020    0x8  - Linker created -
  Veneer             ro code  0x00000028    0x8  - Linker created -
  .text              ro code  0x00000030  0x404  system_efm32tg.o [1]
  .text              ro code  0x00000434   0x2e  copy_init3.o [4]
  .text              ro code  0x00000462   0x22  zero_init3.o [4]
  .text              ro code  0x00000484   0x2c  data_init3.o [4]
  .iar.init_table    const    0x000004b0   0x24  - Linker created -
  .text              ro code  0x000004d4   0x16  cmain.o [4]
  .text              ro code  0x000004ea    0x4  exit.o [3]
  .text              ro code  0x000004f0    0xa  cexit.o [4]
  .text              ro code  0x000004fc    0xc  XXexit.o [4]
  .text              ro code  0x00000508    0xc  cstartup_M.o [4]
  .rodata            const    0x00000514    0x0  bwt_init3c.o [4]
  Initializer bytes  ro data  0x00000514  0x438  <for P2 s0>
                            - 0x0000094c  0x944

Absolute sections, part 1 of 2:            0xbe
  .noinit            uninit   0x20000000   0xbc  system_efm32tg.o [1]
  .noinit            uninit   0x200000bc    0x2  system_efm32tg.o [1]
                            - 0x200000be   0xbe

Absolute sections, part 2 of 2:            0x10
  .noinit            uninit   0x20000100   0x10  system_efm32tg.o [1]
                            - 0x20000110   0x10

"P2", part 1 of 3:                        0x438
  P2 s0                       0x20000110  0x438  <Init block>
    .textrw          inited   0x20000110  0x3ec  system_efm32tg.o [1]
    .data            inited   0x200004fc   0x28  system_efm32tg.o [1]
    .data            inited   0x20000524   0x18  system_efm32tg.o [1]
    .data            inited   0x2000053c    0xc  system_efm32tg.o [1]
                            - 0x20000548  0x438

"P2", part 2 of 3:                        0x138
  .bss               zero     0x20000548  0x118  system_efm32tg.o [1]
  .bss               zero     0x20000660   0x18  system_efm32tg.o [1]
  .bss               zero     0x20000678    0x4  system_efm32tg.o [1]
                            - 0x2000067c  0x134

"P2", part 3 of 3:                        0x400
  CSTACK                      0x20000680  0x400  <Block>
    CSTACK           uninit   0x20000680  0x400  <Block tail>
                            - 0x20000a80  0x400


*******************************************************************************
*** INIT TABLE
***

          Address     Size
          -------     ----
Zero (__iar_zero_init3)
    1 destination range, total size 0x134:
          0x20000548  0x134

Copy (__iar_copy_init3)
    1 source range, total size 0x438:
          0x00000514  0x438
    1 destination range, total size 0x438:
          0x20000110  0x438



*******************************************************************************
*** MODULE SUMMARY
***

    Module            ro code  rw code  ro data  rw data  rw data
                                                           (abs)
    ------            -------  -------  -------  -------  -------
D:\Firmware\my-project-hihack\trunk\ my-project-hihack --username kaiser.ren@gmail.com\energymicro\an\an0003_efm32_uart_bootloader\iar\bootloader-tg840\Release\Obj: [1]
    startup_efm32.o         8
    system_efm32tg.o    1 028    1 004    1 080      384      206
    -------------------------------------------------------------
    Total:              1 036    1 004    1 080      384      206

command line: [2]
    -------------------------------------------------------------
    Total:

dl7M_tln.a: [3]
    exit.o                  4
    -------------------------------------------------------------
    Total:                  4

rt7M_tl.a: [4]
    XXexit.o               12
    bwt_init3c.o
    cexit.o                10
    cmain.o                22
    copy_init3.o           46
    cstartup_M.o           12
    data_init3.o           44
    zero_init3.o           34
    -------------------------------------------------------------
    Total:                180

    Gaps                    4
    Linker created         40                36    1 024
-----------------------------------------------------------------
    Grand Total:        1 264    1 004    1 116    1 408      206


*******************************************************************************
*** ENTRY LIST
***

Entry                      Address   Size  Type      Object
-----                      -------   ----  ----      ------
?main                   0x000004d5         Code  Gb  cmain.o [4]
BOOT_boot               0x2000011d   0x4c  Code  Gb  system_efm32tg.o [1]
BOOT_jump               0x20000111    0xc  Code  Gb  system_efm32tg.o [1]
CMU_ClockSelectGet      0x000002bd   0x9a  Code  Gb  system_efm32tg.o [1]
CRC_calc                0x20000297   0x30  Code  Gb  system_efm32tg.o [1]
CSTACK$$Base            0x20000680          --   Gb  - Linker created -
CSTACK$$Limit           0x20000a80          --   Gb  - Linker created -
DEBUGLOCK_startDebugInterface
                        0x200002c7   0x48  Code  Gb  system_efm32tg.o [1]
RTC_IRQHandler          0x000000e7   0x14  Code  Gb  system_efm32tg.o [1]
Region$$Table$$Base     0x000004b0          --   Gb  - Linker created -
Region$$Table$$Limit    0x000004d4          --   Gb  - Linker created -
SystemCoreClock         0x20000678    0x4  Data  Gb  system_efm32tg.o [1]
SystemCoreClockGet      0x00000031   0x16  Code  Gb  system_efm32tg.o [1]
SystemHFClockGet        0x00000047   0x80  Code  Gb  system_efm32tg.o [1]
TIMER_IRQHandler        0x000000c7   0x20  Code  Gb  system_efm32tg.o [1]
USART_printHex          0x2000030f   0x24  Code  Gb  system_efm32tg.o [1]
USART_printString       0x2000035b   0x16  Code  Gb  system_efm32tg.o [1]
USART_rxByte            0x20000333   0x1c  Code  Gb  system_efm32tg.o [1]
USART_txByte            0x2000034f    0xc  Code  Gb  system_efm32tg.o [1]
XMODEM_download         0x20000371  0x124  Code  Gb  system_efm32tg.o [1]
_DEBUGLOCK_swData       0x20000524   0x18  Data  Gb  system_efm32tg.o [1]
__Vectors               0x00000000          --   Gb  startup_efm32.o [1]
__Vectors_End           0x00000008         Data  Gb  startup_efm32.o [1]
__Vectors_Size {Abs}    0x00000008          --   Gb  startup_efm32.o [1]
__cmain                 0x000004d5         Code  Gb  cmain.o [4]
__exit                  0x000004fd         Code  Gb  XXexit.o [4]
__iar_SB                0x00000514         Data  Gb  bwt_init3c.o [4]
__iar_copy_init3        0x00000435   0x2e  Code  Gb  copy_init3.o [4]
__iar_data_init3        0x00000485   0x2c  Code  Gb  data_init3.o [4]
__iar_program_start     0x00000509         Code  Gb  cstartup_M.o [4]
__iar_zero_init3        0x00000463   0x22  Code  Gb  zero_init3.o [4]
__vector_table          0x00000000         Data  Gb  startup_efm32.o [1]
_call_main              0x000004e1         Code  Gb  cmain.o [4]
_exit                   0x000004f1         Code  Gb  cexit.o [4]
_main                   0x000004e7         Code  Gb  cmain.o [4]
bootloaderCRC           0x200000bc    0x2  Data  Gb  system_efm32tg.o [1]
commandlineLoop         0x2000018d  0x106  Code  Gb  system_efm32tg.o [1]
crcString               0x2000053c    0x8  Data  Gb  system_efm32tg.o [1]
currentSample           0x20000660    0x4  Data  Gb  system_efm32tg.o [1]
descr                   0x20000100   0x10  Data  Gb  system_efm32tg.o [1]
exit                    0x000004eb    0x4  Code  Gb  exit.o [3]
failString              0x20000510    0xc  Data  Gb  system_efm32tg.o [1]
flashPageSize           0x2000054c    0x4  Data  Gb  system_efm32tg.o [1]
main                    0x000000fb  0x15a  Code  Gb  system_efm32tg.o [1]
newLineString           0x20000544    0x4  Data  Gb  system_efm32tg.o [1]
okString                0x20000508    0x8  Data  Gb  system_efm32tg.o [1]
rawPacket               0x20000550  0x110  Data  Gb  system_efm32tg.o [1]
readyString             0x200004fc    0xc  Data  Gb  system_efm32tg.o [1]
resetEFM32onRTCTimeout  0x20000548    0x1  Data  Gb  system_efm32tg.o [1]
samples                 0x20000664   0x14  Data  Gb  system_efm32tg.o [1]
unknownString           0x2000051c    0x8  Data  Gb  system_efm32tg.o [1]
vectorTable             0x20000000   0xbc  Data  Gb  system_efm32tg.o [1]
verify                  0x20000169   0x24  Code  Gb  system_efm32tg.o [1]


[1] = D:\Firmware\my-project-hihack\trunk\ my-project-hihack --username kaiser.ren@gmail.com\energymicro\an\an0003_efm32_uart_bootloader\iar\bootloader-tg840\Release\Obj
[2] = command line
[3] = dl7M_tln.a
[4] = rt7M_tl.a

  1 264 bytes of readonly  code memory
  1 004 bytes of readwrite code memory
  1 116 bytes of readonly  data memory
  1 408 bytes of readwrite data memory (+ 206 absolute)

Errors: none
Warnings: none
