###############################################################################
#                                                                             #
# IAR ELF Linker V6.30.6.53336/W32 for ARM              08/Mar/2013  14:17:46 #
# Copyright 2007-2012 IAR Systems AB.                                         #
#                                                                             #
#    Output file  =  E:\kren\Firmware\sfone\energymicro\an\an0020_efm32_analo #
#                    g_comparator\iar\acmp_int_tg\Debug\Exe\acmp_int_tg.out   #
#    Map file     =  E:\kren\Firmware\sfone\energymicro\an\an0020_efm32_analo #
#                    g_comparator\iar\acmp_int_tg\Debug\List\acmp_int_tg.map  #
#    Command line =  E:\kren\Firmware\sfone\energymicro\an\an0020_efm32_analo #
#                    g_comparator\iar\acmp_int_tg\Debug\Obj\em_acmp.o         #
#                    E:\kren\Firmware\sfone\energymicro\an\an0020_efm32_analo #
#                    g_comparator\iar\acmp_int_tg\Debug\Obj\em_cmu.o          #
#                    E:\kren\Firmware\sfone\energymicro\an\an0020_efm32_analo #
#                    g_comparator\iar\acmp_int_tg\Debug\Obj\em_emu.o          #
#                    E:\kren\Firmware\sfone\energymicro\an\an0020_efm32_analo #
#                    g_comparator\iar\acmp_int_tg\Debug\Obj\em_lcd.o          #
#                    E:\kren\Firmware\sfone\energymicro\an\an0020_efm32_analo #
#                    g_comparator\iar\acmp_int_tg\Debug\Obj\em_system.o       #
#                    E:\kren\Firmware\sfone\energymicro\an\an0020_efm32_analo #
#                    g_comparator\iar\acmp_int_tg\Debug\Obj\main_acmp_int.o   #
#                    E:\kren\Firmware\sfone\energymicro\an\an0020_efm32_analo #
#                    g_comparator\iar\acmp_int_tg\Debug\Obj\segmentlcd.o      #
#                    E:\kren\Firmware\sfone\energymicro\an\an0020_efm32_analo #
#                    g_comparator\iar\acmp_int_tg\Debug\Obj\startup_efm32tg.o #
#                     E:\kren\Firmware\sfone\energymicro\an\an0020_efm32_anal #
#                    og_comparator\iar\acmp_int_tg\Debug\Obj\system_efm32tg.o #
#                     --redirect _Printf=_PrintfFull --redirect               #
#                    _Scanf=_ScanfFull -o E:\kren\Firmware\sfone\energymicro\ #
#                    an\an0020_efm32_analog_comparator\iar\acmp_int_tg\Debug\ #
#                    Exe\acmp_int_tg.out --map E:\kren\Firmware\sfone\energym #
#                    icro\an\an0020_efm32_analog_comparator\iar\acmp_int_tg\D #
#                    ebug\List\acmp_int_tg.map --config "D:\Program           #
#                    Files\IAR Systems\Embedded Workbench                     #
#                    6.0\arm\config\linker\EnergyMicro\EFM32TG840F32.icf"     #
#                    --entry __iar_program_start --vfe                        #
#                                                                             #
#                                                                             #
###############################################################################

*******************************************************************************
*** RUNTIME MODEL ATTRIBUTES
***

CppFlavor       = *
__SystemLibrary = DLib


*******************************************************************************
*** PLACEMENT SUMMARY
***

"A1":  place at 0x00000000 { ro section .intvec };
"P1":  place in [from 0x00000000 to 0x00007fff] { ro };
"P2":  place in [from 0x20000000 to 0x20000fff] { rw, block CSTACK, block HEAP };

  Section            Kind        Address    Size  Object
  -------            ----        -------    ----  ------
"A1":                                       0x9c
  .intvec            ro code  0x00000000    0x9c  startup_efm32tg.o [1]
                            - 0x0000009c    0x9c

"P1":                                     0x10c4
  .text              ro code  0x0000009c   0x53c  em_cmu.o [1]
  .text              ro code  0x000005d8   0x108  system_efm32tg.o [1]
  .text              ro code  0x000006e0    0xf4  em_emu.o [1]
  .text              ro code  0x000007d4   0x28c  segmentlcd.o [1]
  .text              ro code  0x00000a60     0x8  abs.o [3]
  .text              ro code  0x00000a68   0x26c  em_lcd.o [1]
  .rodata            const    0x00000cd4   0x120  segmentlcd.o [1]
  .text              ro code  0x00000df4    0xd8  main_acmp_int.o [1]
  .text              ro code  0x00000ecc    0x56  ABImemcpy.o [4]
  .text              ro code  0x00000f22    0x2e  copy_init3.o [4]
  .text              ro code  0x00000f50    0x70  em_acmp.o [1]
  .text              ro code  0x00000fc0    0x2c  data_init3.o [4]
  .rodata            const    0x00000fec    0x24  segmentlcd.o [1]
  .text              ro code  0x00001010    0x22  zero_init3.o [4]
  .rodata            const    0x00001032     0x2  segmentlcd.o [1]
  .iar.init_table    const    0x00001034    0x24  - Linker created -
  .rodata            const    0x00001058    0x18  main_acmp_int.o [1]
  .text              ro code  0x00001070    0x16  cmain.o [4]
  .text              ro code  0x00001086     0x4  low_level_init.o [3]
  .text              ro code  0x0000108a     0x4  exit.o [3]
  .text              ro code  0x00001090     0xa  cexit.o [4]
  .text              ro code  0x0000109c     0xc  XXexit.o [4]
  .rodata            const    0x000010a8    0x14  segmentlcd.o [1]
  .text              ro code  0x000010bc    0x10  startup_efm32tg.o [1]
  .text              ro code  0x000010cc     0xc  cstartup_M.o [4]
  .text              ro code  0x000010d8     0x4  startup_efm32tg.o [1]
  .text              ro code  0x000010dc     0x4  startup_efm32tg.o [1]
  .text              ro code  0x000010e0     0x4  startup_efm32tg.o [1]
  .text              ro code  0x000010e4     0x4  startup_efm32tg.o [1]
  .text              ro code  0x000010e8     0x4  startup_efm32tg.o [1]
  .text              ro code  0x000010ec     0x4  startup_efm32tg.o [1]
  .text              ro code  0x000010f0     0x4  startup_efm32tg.o [1]
  .text              ro code  0x000010f4     0x4  startup_efm32tg.o [1]
  .text              ro code  0x000010f8     0x4  startup_efm32tg.o [1]
  .text              ro code  0x000010fc     0x4  startup_efm32tg.o [1]
  .text              ro code  0x00001100     0x4  startup_efm32tg.o [1]
  .text              ro code  0x00001104     0x4  startup_efm32tg.o [1]
  .text              ro code  0x00001108     0x4  startup_efm32tg.o [1]
  .text              ro code  0x0000110c     0x4  startup_efm32tg.o [1]
  .text              ro code  0x00001110     0x4  startup_efm32tg.o [1]
  .text              ro code  0x00001114     0x4  startup_efm32tg.o [1]
  .text              ro code  0x00001118     0x4  startup_efm32tg.o [1]
  .text              ro code  0x0000111c     0x4  startup_efm32tg.o [1]
  .text              ro code  0x00001120     0x4  startup_efm32tg.o [1]
  .text              ro code  0x00001124     0x4  startup_efm32tg.o [1]
  .text              ro code  0x00001128     0x4  startup_efm32tg.o [1]
  .text              ro code  0x0000112c     0x4  startup_efm32tg.o [1]
  .text              ro code  0x00001130     0x4  startup_efm32tg.o [1]
  .text              ro code  0x00001134     0x4  startup_efm32tg.o [1]
  .text              ro code  0x00001138     0x4  startup_efm32tg.o [1]
  .text              ro code  0x0000113c     0x4  startup_efm32tg.o [1]
  .text              ro code  0x00001140     0x4  startup_efm32tg.o [1]
  .text              ro code  0x00001144     0x4  startup_efm32tg.o [1]
  .text              ro code  0x00001148     0x4  startup_efm32tg.o [1]
  .text              ro code  0x0000114c     0x4  startup_efm32tg.o [1]
  .text              ro code  0x00001150     0x4  startup_efm32tg.o [1]
  .text              ro code  0x00001154     0x4  startup_efm32tg.o [1]
  .rodata            const    0x00001158     0x0  bwt_init3c.o [4]
  Initializer bytes  ro data  0x00001158     0x8  <for P2 s0>
                            - 0x00001160  0x10c4

"P2", part 1 of 3:                           0x8
  P2 s0                       0x20000000     0x8  <Init block>
    .data            inited   0x20000000     0x4  system_efm32tg.o [1]
    .data            inited   0x20000004     0x4  system_efm32tg.o [1]
                            - 0x20000008     0x8

"P2", part 2 of 3:                           0x8
  .bss               zero     0x20000008     0x4  system_efm32tg.o [1]
  .bss               zero     0x2000000c     0x2  em_emu.o [1]
                            - 0x2000000e     0x6

"P2", part 3 of 3:                         0x400
  CSTACK                      0x20000010   0x400  <Block>
    CSTACK           uninit   0x20000010   0x400  <Block tail>
                            - 0x20000410   0x400


*******************************************************************************
*** INIT TABLE
***

          Address     Size
          -------     ----
Zero (__iar_zero_init3)
    1 destination range, total size 0x6:
          0x20000008   0x6

Copy (__iar_copy_init3)
    1 source range, total size 0x8:
          0x00001158   0x8
    1 destination range, total size 0x8:
          0x20000000   0x8



*******************************************************************************
*** MODULE SUMMARY
***

    Module             ro code  ro data  rw data
    ------             -------  -------  -------
E:\kren\Firmware\sfone\energymicro\an\an0020_efm32_analog_comparator\iar\acmp_int_tg\Debug\Obj: [1]
    em_acmp.o              112
    em_cmu.o             1 340
    em_emu.o               244                 2
    em_lcd.o               620
    main_acmp_int.o        216       24
    segmentlcd.o           652      346
    startup_efm32tg.o      300
    system_efm32tg.o       264        8       12
    --------------------------------------------
    Total:               3 748      378       14

command line: [2]
    --------------------------------------------
    Total:

dl7M_tln.a: [3]
    abs.o                    8
    exit.o                   4
    low_level_init.o         4
    --------------------------------------------
    Total:                  16

rt7M_tl.a: [4]
    ABImemcpy.o             86
    XXexit.o                12
    bwt_init3c.o
    cexit.o                 10
    cmain.o                 22
    copy_init3.o            46
    cstartup_M.o            12
    data_init3.o            44
    zero_init3.o            34
    --------------------------------------------
    Total:                 266

    Gaps                     4
    Linker created                   36    1 024
------------------------------------------------
    Grand Total:         4 034      414    1 038


*******************************************************************************
*** ENTRY LIST
***

Entry                      Address   Size  Type      Object
-----                      -------   ----  ----      ------
?main                   0x00001071         Code  Gb  cmain.o [4]
ACMP0_IRQHandler        0x00000e6f   0x16  Code  Gb  main_acmp_int.o [1]
ACMPInit                0x00000e2f   0x40  Code  Lc  main_acmp_int.o [1]
ACMP_ChannelSet         0x00000f5f   0x14  Code  Gb  em_acmp.o [1]
ACMP_Init               0x00000f73   0x4e  Code  Gb  em_acmp.o [1]
ACMP_IntEnable          0x00000e27    0x8  Code  Lc  main_acmp_int.o [1]
ADC0_IRQHandler         0x00001115         Code  Wk  startup_efm32tg.o [1]
AES_IRQHandler          0x00001155         Code  Wk  startup_efm32tg.o [1]
BITBAND_Peripheral      0x00000f51    0xe  Code  Lc  em_acmp.o [1]
BITBAND_Peripheral      0x0000009d    0xe  Code  Lc  em_cmu.o [1]
BITBAND_Peripheral      0x00000a93    0xe  Code  Lc  em_lcd.o [1]
BusFault_Handler        0x000010e5         Code  Wk  startup_efm32tg.o [1]
CHIP_Init               0x00000e25    0x2  Code  Lc  main_acmp_int.o [1]
CMU_ClockDivSet         0x0000015f  0x158  Code  Gb  em_cmu.o [1]
CMU_ClockEnable         0x000002b7   0x86  Code  Gb  em_cmu.o [1]
CMU_ClockSelectSet      0x0000033d  0x176  Code  Gb  em_cmu.o [1]
CMU_DivToLog2           0x000000df    0xe  Code  Lc  em_cmu.o [1]
CMU_FlashWaitStateControl
                        0x000000ed   0x5c  Code  Lc  em_cmu.o [1]
CMU_FlashWaitStateMax   0x000000ab   0x34  Code  Lc  em_cmu.o [1]
CMU_IRQHandler          0x00001145         Code  Wk  startup_efm32tg.o [1]
CMU_LCDClkFDIVSet       0x000004b3   0x1c  Code  Gb  em_cmu.o [1]
CMU_Lock                0x000006e9    0x8  Code  Lc  em_emu.o [1]
CMU_OscillatorEnable    0x000004cf   0x9c  Code  Gb  em_cmu.o [1]
CMU_Sync                0x00000149   0x16  Code  Lc  em_cmu.o [1]
CMU_Unlock              0x000006f1    0xa  Code  Lc  em_emu.o [1]
CSTACK$$Base            0x20000010          --   Gb  - Linker created -
CSTACK$$Limit           0x20000410          --   Gb  - Linker created -
DAC0_IRQHandler         0x00001119         Code  Wk  startup_efm32tg.o [1]
DMA_IRQHandler          0x000010fd         Code  Wk  startup_efm32tg.o [1]
DebugMon_Handler        0x000010f1         Code  Wk  startup_efm32tg.o [1]
EFM_Display             0x00000cd4  0x120  Data  Lc  segmentlcd.o [1]
EFM_Numbers             0x00000fec   0x24  Data  Lc  segmentlcd.o [1]
EMU_EnterEM2            0x0000077d   0x34  Code  Gb  em_emu.o [1]
EMU_Restore             0x000006fb   0x82  Code  Lc  em_emu.o [1]
EMU_UpdateOscConfig     0x000007b1    0xa  Code  Gb  em_emu.o [1]
GPIO_EVEN_IRQHandler    0x00001101         Code  Wk  startup_efm32tg.o [1]
GPIO_ODD_IRQHandler     0x00001121         Code  Wk  startup_efm32tg.o [1]
GetProdRev              0x000005d9    0xa  Code  Lc  system_efm32tg.o [1]
HardFault_Handler       0x000010dd         Code  Wk  startup_efm32tg.o [1]
I2C0_IRQHandler         0x0000111d         Code  Wk  startup_efm32tg.o [1]
LCD_Enable              0x00000a69   0x2a  Code  Lc  em_lcd.o [1]
LCD_FreezeEnable        0x000007d5   0x1a  Code  Lc  segmentlcd.o [1]
LCD_IRQHandler          0x0000114d         Code  Wk  startup_efm32tg.o [1]
LCD_Init                0x00000aa1   0x38  Code  Gb  em_lcd.o [1]
LCD_IntDisable          0x000007fb   0x10  Code  Lc  segmentlcd.o [1]
LCD_SegmentRangeEnable  0x00000afb   0x22  Code  Gb  em_lcd.o [1]
LCD_SegmentSet          0x00000b1d   0xb6  Code  Gb  em_lcd.o [1]
LCD_SegmentSetLow       0x00000bd3   0xc2  Code  Gb  em_lcd.o [1]
LCD_SyncBusyDelay       0x000007ef    0xc  Code  Lc  segmentlcd.o [1]
LCD_VBoostSet           0x00000c95   0x10  Code  Gb  em_lcd.o [1]
LCD_VLCDSelect          0x00000ad9   0x22  Code  Gb  em_lcd.o [1]
LESENSE_IRQHandler      0x00001131         Code  Wk  startup_efm32tg.o [1]
LETIMER0_IRQHandler     0x00001139         Code  Wk  startup_efm32tg.o [1]
LEUART0_IRQHandler      0x00001135         Code  Wk  startup_efm32tg.o [1]
MSC_IRQHandler          0x00001151         Code  Wk  startup_efm32tg.o [1]
MemManage_Handler       0x000010e1         Code  Wk  startup_efm32tg.o [1]
NMI_Handler             0x000010d9         Code  Wk  startup_efm32tg.o [1]
NVIC_ClearPendingIRQ    0x00000e0d   0x18  Code  Lc  main_acmp_int.o [1]
NVIC_EnableIRQ          0x00000df5   0x18  Code  Lc  main_acmp_int.o [1]
PCNT0_IRQHandler        0x0000113d         Code  Wk  startup_efm32tg.o [1]
PendSV_Handler          0x000010f5         Code  Wk  startup_efm32tg.o [1]
RTC_IRQHandler          0x00001141         Code  Wk  startup_efm32tg.o [1]
Region$$Table$$Base     0x00001034          --   Gb  - Linker created -
Region$$Table$$Limit    0x00001058          --   Gb  - Linker created -
Reset_Handler           0x000010bd         Code  Wk  startup_efm32tg.o [1]
SVC_Handler             0x000010ed         Code  Wk  startup_efm32tg.o [1]
SegmentLCD_AllOff       0x00000957   0x64  Code  Gb  segmentlcd.o [1]
SegmentLCD_Init         0x000009bb   0x70  Code  Gb  segmentlcd.o [1]
SegmentLCD_Number       0x0000080b   0xe8  Code  Gb  segmentlcd.o [1]
SegmentLCD_NumberOff    0x000008f3   0x64  Code  Gb  segmentlcd.o [1]
SysTick_Handler         0x000010f9         Code  Wk  startup_efm32tg.o [1]
SystemCoreClock         0x20000008    0x4  Data  Gb  system_efm32tg.o [1]
SystemCoreClockGet      0x000005e3   0x1a  Code  Gb  system_efm32tg.o [1]
SystemCoreClockUpdate   0x000006e1    0x8  Code  Lc  em_emu.o [1]
SystemHFClockGet        0x000005fd   0xa6  Code  Gb  system_efm32tg.o [1]
SystemHFXOClock         0x20000000    0x4  Data  Lc  system_efm32tg.o [1]
SystemInit              0x000006a3    0x2  Code  Gb  system_efm32tg.o [1]
SystemLFXOClock         0x20000004    0x4  Data  Lc  system_efm32tg.o [1]
TIMER0_IRQHandler       0x00001105         Code  Wk  startup_efm32tg.o [1]
TIMER1_IRQHandler       0x00001125         Code  Wk  startup_efm32tg.o [1]
USART0_RX_IRQHandler    0x00001109         Code  Wk  startup_efm32tg.o [1]
USART0_TX_IRQHandler    0x0000110d         Code  Wk  startup_efm32tg.o [1]
USART1_RX_IRQHandler    0x00001129         Code  Wk  startup_efm32tg.o [1]
USART1_TX_IRQHandler    0x0000112d         Code  Wk  startup_efm32tg.o [1]
UsageFault_Handler      0x000010e9         Code  Wk  startup_efm32tg.o [1]
VCMP_IRQHandler         0x00001149         Code  Wk  startup_efm32tg.o [1]
__Vectors               0x00000000          --   Gb  startup_efm32tg.o [1]
__Vectors_End           0x0000009c         Data  Gb  startup_efm32tg.o [1]
__Vectors_Size {Abs}    0x0000009c          --   Gb  startup_efm32tg.o [1]
__aeabi_memcpy4         0x00000ecd         Code  Gb  ABImemcpy.o [4]
__aeabi_memcpy8         0x00000ecd         Code  Gb  ABImemcpy.o [4]
__cmain                 0x00001071         Code  Gb  cmain.o [4]
__exit                  0x0000109d         Code  Gb  XXexit.o [4]
__iar_SB                0x00001158         Data  Gb  bwt_init3c.o [4]
__iar_copy_init3        0x00000f23   0x2e  Code  Gb  copy_init3.o [4]
__iar_data_init3        0x00000fc1   0x2c  Code  Gb  data_init3.o [4]
__iar_program_start     0x000010cd         Code  Gb  cstartup_M.o [4]
__iar_zero_init3        0x00001011   0x22  Code  Gb  zero_init3.o [4]
__low_level_init        0x00001087    0x4  Code  Gb  low_level_init.o [3]
__vector_table          0x00000000         Data  Gb  startup_efm32tg.o [1]
__vector_table_0x1c     0x0000001c         Data  Gb  startup_efm32tg.o [1]
_call_main              0x0000107d         Code  Gb  cmain.o [4]
_exit                   0x00001091         Code  Gb  cexit.o [4]
_main                   0x00001083         Code  Gb  cmain.o [4]
abs                     0x00000a61    0x8  Code  Gb  abs.o [3]
cmuStatus               0x2000000c    0x2  Data  Lc  em_emu.o [1]
exit                    0x0000108b    0x4  Code  Gb  exit.o [3]
lcdInit                 0x000010a8   0x14  Data  Lc  segmentlcd.o [1]
main                    0x00000e85   0x2c  Code  Gb  main_acmp_int.o [1]
signIndex               0x00001032    0x2  Data  Lc  segmentlcd.o [1]


[1] = E:\kren\Firmware\sfone\energymicro\an\an0020_efm32_analog_comparator\iar\acmp_int_tg\Debug\Obj
[2] = command line
[3] = dl7M_tln.a
[4] = rt7M_tl.a

  4 034 bytes of readonly  code memory
    414 bytes of readonly  data memory
  1 038 bytes of readwrite data memory

Errors: none
Warnings: none
