################################################################################
#                                                                              #
#      IAR Universal Linker V5.2.5.17                                          #
#                                                                              #
#           Link time     =  15/Dec/2012  09:10:24                             #
#           Target CPU    =  A90                                               #
#           List file     =  "D:\Firmware\my-project-hihack\trunk\ my-project- #
#                            hihack --username kaiser.ren@gmail.com\back_end\A #
#                            pplications\TAL_Examples\Performance_Test\IAR\Meg #
#                            a1281\Debug\List\Mega1281.map"                    #
#           Output file 1 =  "D:\Firmware\my-project-hihack\trunk\ my-project- #
#                            hihack --username kaiser.ren@gmail.com\back_end\A #
#                            pplications\TAL_Examples\Performance_Test\IAR\Meg #
#                            a1281\Debug\Exe\Mega1281.srec"                    #
#                            Format: motorola-s28                              #
#           Output file 2 =  "D:\Firmware\my-project-hihack\trunk\ my-project- #
#                            hihack --username kaiser.ren@gmail.com\back_end\A #
#                            pplications\TAL_Examples\Performance_Test\IAR\Meg #
#                            a1281\Debug\Exe\Mega1281.hex"                     #
#                            Format: intel-extended, variant: -Y2              #
#           Output file 3 =  "D:\Firmware\my-project-hihack\trunk\ my-project- #
#                            hihack --username kaiser.ren@gmail.com\back_end\A #
#                            pplications\TAL_Examples\Performance_Test\IAR\Meg #
#                            a1281\Debug\Exe\Mega1281.d90"                     #
#                            Format: debug                                     #
#                            UBROF version 10.0.6                              #
#                            Using library modules for C-SPY (-rt)             #
#           Command line  =  -Omotorola-s28=.srec                              #
#                            "D:\Firmware\my-project-hihack\trunk\ my-project- #
#                            hihack --username kaiser.ren@gmail.com\back_end\A #
#                            pplications\TAL_Examples\Performance_Test\IAR\Meg #
#                            a1281\Debug\Obj\decode.r90"                       #
#                            "D:\Firmware\my-project-hihack\trunk\ my-project- #
#                            hihack --username kaiser.ren@gmail.com\back_end\A #
#                            pplications\TAL_Examples\Performance_Test\IAR\Meg #
#                            a1281\Debug\Obj\encode.r90"                       #
#                            "D:\Firmware\my-project-hihack\trunk\ my-project- #
#                            hihack --username kaiser.ren@gmail.com\back_end\A #
#                            pplications\TAL_Examples\Performance_Test\IAR\Meg #
#                            a1281\Debug\Obj\hal.r90"                          #
#                            "D:\Firmware\my-project-hihack\trunk\ my-project- #
#                            hihack --username kaiser.ren@gmail.com\back_end\A #
#                            pplications\TAL_Examples\Performance_Test\IAR\Meg #
#                            a1281\Debug\Obj\main.r90"                         #
#                            "D:\Firmware\my-project-hihack\trunk\ my-project- #
#                            hihack --username kaiser.ren@gmail.com\back_end\A #
#                            pplications\TAL_Examples\Performance_Test\IAR\Meg #
#                            a1281\Debug\Obj\pal_board.r90"                    #
#                            "D:\Firmware\my-project-hihack\trunk\ my-project- #
#                            hihack --username kaiser.ren@gmail.com\back_end\A #
#                            pplications\TAL_Examples\Performance_Test\IAR\Meg #
#                            a1281\Debug\Obj\pal_sio_hub.r90"                  #
#                            "D:\Firmware\my-project-hihack\trunk\ my-project- #
#                            hihack --username kaiser.ren@gmail.com\back_end\A #
#                            pplications\TAL_Examples\Performance_Test\IAR\Meg #
#                            a1281\Debug\Obj\pal_uart.r90"                     #
#                            "D:\Firmware\my-project-hihack\trunk\ my-project- #
#                            hihack --username kaiser.ren@gmail.com\back_end\A #
#                            pplications\TAL_Examples\Performance_Test\IAR\Meg #
#                            a1281\Debug\Obj\pal_utils.r90"                    #
#                            "D:\Firmware\my-project-hihack\trunk\ my-project- #
#                            hihack --username kaiser.ren@gmail.com\back_end\A #
#                            pplications\TAL_Examples\Performance_Test\IAR\Meg #
#                            a1281\Debug\Obj\sio_handler.r90"                  #
#                            "D:\Firmware\my-project-hihack\trunk\ my-project- #
#                            hihack --username kaiser.ren@gmail.com\back_end\A #
#                            pplications\TAL_Examples\Performance_Test\IAR\Meg #
#                            a1281\Debug\Obj\timer.r90"                        #
#                            "D:\Firmware\my-project-hihack\trunk\ my-project- #
#                            hihack --username kaiser.ren@gmail.com\back_end\A #
#                            pplications\TAL_Examples\Performance_Test\IAR\Meg #
#                            a1281\Debug\Obj\write.r90"                        #
#                            -o                                                #
#                            "D:\Firmware\my-project-hihack\trunk\ my-project- #
#                            hihack --username kaiser.ren@gmail.com\back_end\A #
#                            pplications\TAL_Examples\Performance_Test\IAR\Meg #
#                            a1281\Debug\Exe\Mega1281.d90"                     #
#                            -z -l                                             #
#                            "D:\Firmware\my-project-hihack\trunk\ my-project- #
#                            hihack --username kaiser.ren@gmail.com\back_end\A #
#                            pplications\TAL_Examples\Performance_Test\IAR\Meg #
#                            a1281\Debug\List\Mega1281.map"                    #
#                            -xmsn                                             #
#                            "-ID:\Program Files\IAR Systems\Embedded Workbenc #
#                            h 6.0\avr\LIB\"                                   #
#                            -f                                                #
#                            "D:\Program Files\IAR Systems\Embedded Workbench  #
#                            6.0\avr\src\template\cfgm1281.xcl"                #
#                            (-D_..X_INTVEC_SIZE=CC -D_..X_FLASH_NEND=FFFF     #
#                            -D_..X_FLASH_END=1FFFF -D_..X_SRAM_BASE=200       #
#                            -D_..X_SRAM_TBASE=0 -D_..X_SRAM_TSIZE=0           #
#                            -D_..X_SRAM_END=21FF -D_..X_EEPROM_END=FFF        #
#                            -D_..X_EEPROM_START=0) -D_..X_HEAP_SIZE=0         #
#                            -D_..X_TINY_HEAP_SIZE=0                           #
#                            -D_..X_NEAR_HEAP_SIZE=40 -D_..X_FAR_HEAP_SIZE=0   #
#                            -D_..X_HUGE_HEAP_SIZE=0 -D_..X_CSTACK_SIZE=200    #
#                            -D_..X_RSTACK_SIZE=50                             #
#                            -D_..X_FLASH_CODE_END=1FFFF -f                    #
#                            "D:\Program Files\IAR Systems\Embedded Workbench  #
#                            6.0\avr\src\template\cfg3soim.xcl"                #
#                            (-ca90 -w29                                       #
#                            -Z(CODE)INTVEC=0-(_..X_INTVEC_SIZE-1)             #
#                            -Z(CODE)TINY_F=_..X_FLASH_BASE-FF                 #
#                            -Z(CODE)NEAR_F=_..X_FLASH_BASE-_..X_FLASH_NEND    #
#                            -Z(CODE)SWITCH=_..X_FLASH_BASE-_..X_FLASH_NEND    #
#                            -Z(CODE)DIFUNCT=_..X_FLASH_BASE-_..X_FLASH_NEND   #
#                            -Z(CODE)CODE=_..X_FLASH_BASE-_..X_FLASH_END       #
#                            -P(CODE)FAR_F=[_..X_FLASH_BASE-_..X_FLASH_END]/10 #
#                            000                                               #
#                            -Z(CODE)INITTAB=_..X_FLASH_BASE-_..X_FLASH_END    #
#                            -Z(CODE)HUGE_F=_..X_FLASH_BASE-_..X_FLASH_END     #
#                            -Z(CODE)TINY_ID=_..X_FLASH_BASE-_..X_FLASH_END    #
#                            -Z(CODE)NEAR_ID=_..X_FLASH_BASE-_..X_FLASH_END    #
#                            -Z(CODE)CHECKSUM#_..X_FLASH_END                   #
#                            -Z(DATA)TINY_I,TINY_Z,TINY_N=_..X_SRAM_TBASE:+_.. #
#                            X_SRAM_TSIZE                                      #
#                            -Z(DATA)CSTACK+_..X_CSTACK_SIZE=_..X_CSTACK_BASE- #
#                            _..X_CSTACK_END                                   #
#                            -Z(DATA)HEAP+_..X_HEAP_SIZE=_..X_SRAM_BASE-_..X_S #
#                            RAM_END                                           #
#                            -Z(DATA)IOSTREAM_N#_..X_SRAM_BASE-_..X_SRAM_END   #
#                            -Z(DATA)NEAR_HEAP+_..X_NEAR_HEAP_SIZE=_..X_SRAM_B #
#                            ASE-_..X_SRAM_END                                 #
#                            -Z(DATA)RSTACK+_..X_RSTACK_SIZE=_..X_RSTACK_BASE- #
#                            _..X_RSTACK_END                                   #
#                            -Z(DATA)NEAR_I,NEAR_Z,NEAR_N=_..X_SRAM_BASE-_..X_ #
#                            SRAM_END                                          #
#                            -Z(XDATA)EEPROM_I,EEPROM_N=_..X_EEPROM_START-_..X #
#                            _EEPROM_END)                                      #
#                            -D_..X_FLASH_BASE=_..X_INTVEC_SIZE -H1895         #
#                            -h(CODE)0-(_..X_INTVEC_SIZE-1)                    #
#                            -D_..X_EXT_SRAM_BASE=_..X_SRAM_END                #
#                            -D_..X_EXT_SRAM_SIZE=0                            #
#                            -D_..X_EXT_ROM_BASE=_..X_SRAM_END                 #
#                            -D_..X_EXT_ROM_SIZE=0                             #
#                            -D_..X_EXT_NV_BASE=_..X_SRAM_END                  #
#                            -D_..X_EXT_NV_SIZE=0                              #
#                            -D_..X_CSTACK_BASE=_..X_SRAM_BASE                 #
#                            -D_..X_CSTACK_END=_..X_SRAM_END                   #
#                            -D_..X_RSTACK_BASE=_..X_SRAM_BASE                 #
#                            -D_..X_RSTACK_END=_..X_SRAM_END -rt               #
#                            "-Ointel-extended,2=D:\Firmware\my-project-hihack #
#                            \trunk\ my-project-hihack --username kaiser.ren@g #
#                            mail.com\back_end\Applications\TAL_Examples\Perfo #
#                            rmance_Test\IAR\Mega1281\Debug\Exe\Mega1281.hex"  #
#                            -s __program_start                                #
#                            "D:\Program Files\IAR Systems\Embedded Workbench  #
#                            6.0\avr\LIB\DLIB\dlAVR-3s-ec_mul-n.r90"           #
#                            -e_PrintfSmall=_Printf                            #
#                                                                              #
#                           Copyright (C) 1987-2011 IAR Systems AB.            #
################################################################################





                ****************************************
                *                                      *
                *           CROSS REFERENCE            *
                *                                      *
                ****************************************

       Program entry at : CODE      00000000  Relocatable, from module : ?RESET




                ****************************************
                *                                      *
                *            RUNTIME MODEL             *
                *                                      *
                ****************************************

  R10                        = REG
  R11                        = REG
  R12                        = REG
  R13                        = REG
  R14                        = REG
  R4                         = REG
  R5                         = REG
  R6                         = REG
  R7                         = REG
  R8                         = REG
  R9                         = REG
  __64bit_doubles            = disabled
  __Heap_Handler             = Basic
  __SystemLibrary            = DLib
  __cpu                      = 3
  __cpu_name                 = ATmega1281
  __dlib_file_descriptor     = 0
  __dlib_full_locale_support = 0
  __enhanced_core            = enabled
  __has_elpm                 = true
  __memory_model             = 2
  __no_rampd                 = enabled
  __rt_version               = 3
  __tiny_avr                 = false

                ****************************************
                *                                      *
                *    AUTOMATIC SYMBOL REDIRECTIONS     *
                *                                      *
                ****************************************

                  There are no automatic symbol redirections.



                ****************************************
                *                                      *
                *              MODULE MAP              *
                *                                      *
                ****************************************


  DEFINED ABSOLUTE ENTRIES
  PROGRAM MODULE, NAME : ?ABS_ENTRY_MOD

Absolute parts
           ENTRY                   ADDRESS         REF BY
           =====                   =======         ======
           _..X_RSTACK_END         000021FF 
           _..X_RSTACK_BASE        00000200 
           _..X_CSTACK_END         000021FF 
           _..X_CSTACK_BASE        00000200 
           _..X_EXT_NV_SIZE        00000000 
           _..X_EXT_NV_BASE        000021FF 
           _..X_EXT_ROM_SIZE       00000000 
           _..X_EXT_ROM_BASE       000021FF 
           _..X_EXT_SRAM_SIZE      00000000 
           _..X_EXT_SRAM_BASE      000021FF 
           _..X_FLASH_BASE         000000CC 
           _..X_FLASH_CODE_END     0001FFFF 
           _..X_RSTACK_SIZE        00000050 
           _..X_CSTACK_SIZE        00000200 
           _..X_HUGE_HEAP_SIZE     00000000 
           _..X_FAR_HEAP_SIZE      00000000 
           _..X_NEAR_HEAP_SIZE     00000040 
           _..X_TINY_HEAP_SIZE     00000000 
           _..X_HEAP_SIZE          00000000 
           _..X_EEPROM_START       00000000 
           _..X_EEPROM_END         00000FFF 
           _..X_SRAM_END           000021FF 
           _..X_SRAM_TSIZE         00000000 
           _..X_SRAM_TBASE         00000000 
           _..X_SRAM_BASE          00000200 
           _..X_FLASH_END          0001FFFF 
           _..X_FLASH_NEND         0000FFFF 
           _..X_INTVEC_SIZE        000000CC 
    *************************************************************************

  FILE NAME : D:\Firmware\my-project-hihack\trunk\ my-project-hihack --username kaiser.ren@gmail.com\back_end\Applications\TAL_Examples\Performance_Test\IAR\Mega1281\Debug\Obj\decode.r90
  PROGRAM MODULE, NAME : decode

  SEGMENTS IN THE MODULE
  ======================
ABSOLUTE
  Relative segment, address: DATA 00000084 - 00000085 (0x2 bytes), align: 0
  Segment part 1. ROOT.       Intra module refs:   handler_ANALOG_COMP_vect
           ENTRY                   ADDRESS         REF BY
           =====                   =======         ======
           _A_TCNT1                00000084 
           LOCAL                   ADDRESS         
           =====                   =======         
           TCNT1                   00000084 
           TCNT1H                  00000085 
           TCNT1L                  00000084 
    -------------------------------------------------------------------------
ABSOLUTE
  Relative segment, address: DATA 00000081 - 00000081 (0x1 bytes), align: 0
  Segment part 2. ROOT.       Intra module refs:   ac_init
           ENTRY                   ADDRESS         REF BY
           =====                   =======         ======
           _A_TCCR1B               00000081 
           LOCAL                   ADDRESS         
           =====                   =======         
           TCCR1B                  00000081 
    -------------------------------------------------------------------------
ABSOLUTE
  Relative segment, address: DATA 0000007C - 0000007C (0x1 bytes), align: 0
  Segment part 3. ROOT.       Intra module refs:   ac_init
           ENTRY                   ADDRESS         REF BY
           =====                   =======         ======
           _A_ADMUX                0000007C 
           LOCAL                   ADDRESS         
           =====                   =======         
           ADMUX                   0000007C 
    -------------------------------------------------------------------------
ABSOLUTE
  Relative segment, address: DATA 0000007B - 0000007B (0x1 bytes), align: 0
  Segment part 4. ROOT.       Intra module refs:   ac_init
           ENTRY                   ADDRESS         REF BY
           =====                   =======         ======
           _A_ADCSRB               0000007B 
           LOCAL                   ADDRESS         
           =====                   =======         
           ADCSRB                  0000007B 
    -------------------------------------------------------------------------
ABSOLUTE
  Relative segment, address: DATA 0000007A - 0000007A (0x1 bytes), align: 0
  Segment part 5. ROOT.       Intra module refs:   ac_init
           ENTRY                   ADDRESS         REF BY
           =====                   =======         ======
           _A_ADCSRA               0000007A 
           LOCAL                   ADDRESS         
           =====                   =======         
           ADCSRA                  0000007A 
    -------------------------------------------------------------------------
ABSOLUTE
  Relative segment, address: DATA 0000005F - 0000005F (0x1 bytes), align: 0
  Segment part 6. ROOT.       Intra module refs:   handler_ANALOG_COMP_vect
                                                   mcu_clock_init (hal)
           ENTRY                   ADDRESS         REF BY
           =====                   =======         ======
           _A_SREG                 0000005F 
           LOCAL                   ADDRESS         
           =====                   =======         
           SREG                    0000005F 
    -------------------------------------------------------------------------
ABSOLUTE
  Relative segment, address: DATA 00000050 - 00000050 (0x1 bytes), align: 0
  Segment part 7. ROOT.       Intra module refs:   ac_init
                                                   handler_ANALOG_COMP_vect
           ENTRY                   ADDRESS         REF BY
           =====                   =======         ======
           _A_ACSR                 00000050 
           LOCAL                   ADDRESS         
           =====                   =======         
           ACSR                    00000050 
    -------------------------------------------------------------------------
NEAR_Z
  Relative segment, address: DATA 000004B5 - 000004BA (0x6 bytes), align: 0
  Segment part 16.            Intra module refs:   ac_init
                                                   cal_interval
                                                   dec_update_tmr
                                                   decode_machine
                                                   handler_ANALOG_COMP_vect
           ENTRY                   ADDRESS         REF BY
           =====                   =======         ======
           dec                     000004B5 
    -------------------------------------------------------------------------
NEAR_Z
  Relative segment, address: DATA 000004BB - 000004BC (0x2 bytes), align: 0
  Segment part 18.            Intra module refs:   cal_interval
                                                   dec_update_tmr
                                                   handler_ANALOG_COMP_vect
           ENTRY                   ADDRESS         REF BY
           =====                   =======         ======
           cur_stamp               000004BB 
    -------------------------------------------------------------------------
NEAR_Z
  Relative segment, address: DATA 000004BD - 000004BD (0x1 bytes), align: 0
  Segment part 19.            Intra module refs:   cal_interval
                                                   dec_update_tmr
                                                   handler_ANALOG_COMP_vect
           ENTRY                   ADDRESS         REF BY
           =====                   =======         ======
           cur_ovfw                000004BD 
    -------------------------------------------------------------------------
NEAR_Z
  Relative segment, address: DATA 000004BE - 000004BE (0x1 bytes), align: 0
  Segment part 20.            Intra module refs:   handler_ANALOG_COMP_vect
                                                   handler_TIMER1_OVF_vect
           ENTRY                   ADDRESS         REF BY
           =====                   =======         ======
           ovfw                    000004BE        main (main)
    -------------------------------------------------------------------------
NEAR_Z
  Relative segment, address: DATA 000004BF - 000004BF (0x1 bytes), align: 0
  Segment part 21.            Intra module refs:   handler_ANALOG_COMP_vect
           ENTRY                   ADDRESS         REF BY
           =====                   =======         ======
           acc_occur               000004BF        main (main)
    -------------------------------------------------------------------------
CODE
  Relative segment, address: CODE 000000EC - 0000016D (0x82 bytes), align: 1
  Segment part 22.            Intra module refs:   handler_ANALOG_COMP_vect::??INTVEC 112
           ENTRY                   ADDRESS         REF BY
           =====                   =======         ======
           handler_ANALOG_COMP_vect
                                   000000EC 
               interrupt function
               calls direct
               CSTACK = 00000000 ( 00000011 )
               RSTACK = 00000000 ( 00000002 )
    -------------------------------------------------------------------------
CODE
  Relative segment, address: CODE 0000016E - 0000018D (0x20 bytes), align: 1
  Segment part 23.            Intra module refs:   handler_TIMER1_OVF_vect::??INTVEC 80
           ENTRY                   ADDRESS         REF BY
           =====                   =======         ======
           handler_TIMER1_OVF_vect
                                   0000016E 
               interrupt function
               CSTACK = 00000000 ( 00000003 )
               RSTACK = 00000000 ( 00000002 )
    -------------------------------------------------------------------------
CODE
  Relative segment, address: CODE 0000018E - 000001CF (0x42 bytes), align: 1
  Segment part 24.
           ENTRY                   ADDRESS         REF BY
           =====                   =======         ======
           ac_init                 0000018E        hal_init (hal)
               calls direct
               RSTACK = 00000000 ( 00000002 )
    -------------------------------------------------------------------------
CODE
  Relative segment, address: CODE 000001D0 - 0000023D (0x6e bytes), align: 1
  Segment part 25.            Intra module refs:   decode_machine
           ENTRY                   ADDRESS         REF BY
           =====                   =======         ======
           cal_interval            000001D0 
               calls direct
               CSTACK = 00000000 ( 00000002 )
               RSTACK = 00000000 ( 00000002 )
    -------------------------------------------------------------------------
CODE
  Relative segment, address: CODE 0000023E - 00000257 (0x1a bytes), align: 1
  Segment part 26.            Intra module refs:   cal_interval
                                                   decode_machine
           LOCAL                   ADDRESS         
           =====                   =======         
           dec_update_tmr          0000023E 
               RSTACK = 00000000 ( 00000002 )
    -------------------------------------------------------------------------
CODE
  Relative segment, address: CODE 00000258 - 000005BF (0x368 bytes), align: 1
  Segment part 27.            Intra module refs:   Segment part 28
           ENTRY                   ADDRESS         REF BY
           =====                   =======         ======
           decode_machine          00000258        main (main)
               calls direct
               CSTACK = 00000000 ( 00000002 )
               RSTACK = 00000000 ( 00000002 )
    -------------------------------------------------------------------------
ABSOLUTE
  Relative segment, address: DATA 0000001F, align: 0
  Segment part 8. ROOT.
           ENTRY                   ADDRESS         REF BY
           =====                   =======         ======
           __?EECR                 0000001F 
    -------------------------------------------------------------------------
ABSOLUTE
  Relative segment, address: DATA 00000020, align: 0
  Segment part 9. ROOT.
           ENTRY                   ADDRESS         REF BY
           =====                   =======         ======
           __?EEDR                 00000020 
    -------------------------------------------------------------------------
ABSOLUTE
  Relative segment, address: DATA 00000021, align: 0
  Segment part 10. ROOT.
           ENTRY                   ADDRESS         REF BY
           =====                   =======         ======
           __?EEARL                00000021 
    -------------------------------------------------------------------------
ABSOLUTE
  Relative segment, address: DATA 00000022, align: 0
  Segment part 11. ROOT.
           ENTRY                   ADDRESS         REF BY
           =====                   =======         ======
           __?EEARH                00000022 
    -------------------------------------------------------------------------
INTVEC
  Common segment, address: CODE 00000000 - 00000053 (0x54 bytes), align: 1
  Segment part 12. ROOT.
           ENTRY                   ADDRESS         REF BY
           =====                   =======         ======
           handler_TIMER1_OVF_vect::??INTVEC 80
                                   00000050 
    -------------------------------------------------------------------------
INTVEC
  Common segment, address: CODE 00000000 - 00000073 (0x74 bytes), align: 1
  Segment part 13. ROOT.
           ENTRY                   ADDRESS         REF BY
           =====                   =======         ======
           handler_ANALOG_COMP_vect::??INTVEC 112
                                   00000070 
    -------------------------------------------------------------------------
INITTAB
  Relative segment, address: CODE 000013C2 - 000013C8 (0x7 bytes), align: 0
  Segment part 17.            Intra module refs:   ac_cap_para (timer)
                                                   acc_occur
                                                   cur_ovfw
                                                   cur_stamp
                                                   dec
                                                   ovfw
                                                   pwm_para (timer)
                                                   uart_1_buffer (pal_uart)
           ENTRY                   ADDRESS         REF BY
           =====                   =======         ======
           ?<Segment init: NEAR_Z>
                                   000013C2 
    -------------------------------------------------------------------------
SWITCH
  Relative segment, address: CODE 000000CC - 000000EB (0x20 bytes), align: 1
  Segment part 28.            Intra module refs:   decode_machine

    *************************************************************************

  FILE NAME : D:\Firmware\my-project-hihack\trunk\ my-project-hihack --username kaiser.ren@gmail.com\back_end\Applications\TAL_Examples\Performance_Test\IAR\Mega1281\Debug\Obj\encode.r90
    *************************************************************************

  FILE NAME : D:\Firmware\my-project-hihack\trunk\ my-project-hihack --username kaiser.ren@gmail.com\back_end\Applications\TAL_Examples\Performance_Test\IAR\Mega1281\Debug\Obj\hal.r90
  PROGRAM MODULE, NAME : hal

  SEGMENTS IN THE MODULE
  ======================
ABSOLUTE
  Relative segment, address: DATA 00000061 - 00000061 (0x1 bytes), align: 0
  Segment part 1. ROOT.       Intra module refs:   mcu_clock_init
           ENTRY                   ADDRESS         REF BY
           =====                   =======         ======
           _A_CLKPR                00000061 
           LOCAL                   ADDRESS         
           =====                   =======         
           CLKPR                   00000061 
    -------------------------------------------------------------------------
ABSOLUTE
  Relative segment, address: DATA 00000060 - 00000060 (0x1 bytes), align: 0
  Segment part 2. ROOT.       Intra module refs:   wdt_init
           ENTRY                   ADDRESS         REF BY
           =====                   =======         ======
           _A_WDTCSR               00000060 
           LOCAL                   ADDRESS         
           =====                   =======         
           WDTCSR                  00000060 
    -------------------------------------------------------------------------
ABSOLUTE
  Relative segment, address: DATA 00000054 - 00000054 (0x1 bytes), align: 0
  Segment part 4. ROOT.       Intra module refs:   wdt_init
           ENTRY                   ADDRESS         REF BY
           =====                   =======         ======
           _A_MCUSR                00000054 
           LOCAL                   ADDRESS         
           =====                   =======         
           MCUSR                   00000054 
    -------------------------------------------------------------------------
CODE
  Relative segment, address: CODE 000005C0 - 000005C3 (0x4 bytes), align: 1
  Segment part 11.            Intra module refs:   hal_init
           LOCAL                   ADDRESS         
           =====                   =======         
           pal_global_irq_enable   000005C0 
               RSTACK = 00000000 ( 00000002 )
    -------------------------------------------------------------------------
CODE
  Relative segment, address: CODE 000005C4 - 000005D7 (0x14 bytes), align: 1
  Segment part 12.            Intra module refs:   hal_init
           LOCAL                   ADDRESS         
           =====                   =======         
           mcu_clock_init          000005C4 
               RSTACK = 00000000 ( 00000002 )
    -------------------------------------------------------------------------
CODE
  Relative segment, address: CODE 000005D8 - 000005F1 (0x1a bytes), align: 1
  Segment part 13.            Intra module refs:   hal_init
           LOCAL                   ADDRESS         
           =====                   =======         
           wdt_init                000005D8 
               RSTACK = 00000000 ( 00000002 )
    -------------------------------------------------------------------------
CODE
  Relative segment, address: CODE 000005F2 - 0000060B (0x1a bytes), align: 1
  Segment part 14.
           ENTRY                   ADDRESS         REF BY
           =====                   =======         ======
           hal_init                000005F2        main (main)
               calls direct
               RSTACK = 00000000 ( 00000002 )

    *************************************************************************

  FILE NAME : D:\Firmware\my-project-hihack\trunk\ my-project-hihack --username kaiser.ren@gmail.com\back_end\Applications\TAL_Examples\Performance_Test\IAR\Mega1281\Debug\Obj\main.r90
  PROGRAM MODULE, NAME : main

  SEGMENTS IN THE MODULE
  ======================
ABSOLUTE
  Relative segment, address: DATA 00000036 - 00000036 (0x1 bytes), align: 0
  Segment part 1. ROOT.       Intra module refs:   main
           ENTRY                   ADDRESS         REF BY
           =====                   =======         ======
           _A_TIFR1                00000036 
           LOCAL                   ADDRESS         
           =====                   =======         
           TIFR1                   00000036 
    -------------------------------------------------------------------------
FAR_F
  Relative segment, address: CODE 0001DFFC - 0001DFFF (0x4 bytes), align: 0
  Segment part 2. ROOT.
           ENTRY                   ADDRESS         REF BY
           =====                   =======         ======
           Bf_Appflag              0001DFFC 
    -------------------------------------------------------------------------
CODE
  Relative segment, address: CODE 0000060C - 00000681 (0x76 bytes), align: 1
  Segment part 16.
           ENTRY                   ADDRESS         REF BY
           =====                   =======         ======
           main                    0000060C        ?cstartup_call_main (?C_STARTUP)
               calls direct
               CSTACK = 00000000 ( 00000004 )
               RSTACK = 00000000 ( 00000002 )
    -------------------------------------------------------------------------
NEAR_ID
  Relative segment, address: CODE 000013D0 - 000013F9 (0x2a bytes), align: 0
  Segment part 10.            Intra module refs:   Segment part 9
    -------------------------------------------------------------------------
INITTAB
  Relative segment, address: CODE 000013C9 - 000013CF (0x7 bytes), align: 0
  Segment part 11.            Intra module refs:   Segment part 12
                                                   Segment part 14
                                                   Segment part 3 (?xprintfsmall)
                                                   Segment part 9
           ENTRY                   ADDRESS         REF BY
           =====                   =======         ======
           ?<Segment init: NEAR_I>
                                   000013C9 
    -------------------------------------------------------------------------
NEAR_ID
  Relative segment, address: CODE 000013FA - 0000141E (0x25 bytes), align: 0
  Segment part 13.            Intra module refs:   Segment part 12
    -------------------------------------------------------------------------
NEAR_ID
  Relative segment, address: CODE 0000141F - 0000142E (0x10 bytes), align: 0
  Segment part 15.            Intra module refs:   Segment part 14
    -------------------------------------------------------------------------
NEAR_I
  Relative segment, address: DATA 00000450 - 00000479 (0x2a bytes), align: 0
  Segment part 9.             Intra module refs:   main
    -------------------------------------------------------------------------
NEAR_I
  Relative segment, address: DATA 0000047A - 0000049E (0x25 bytes), align: 0
  Segment part 12.            Intra module refs:   main
    -------------------------------------------------------------------------
NEAR_I
  Relative segment, address: DATA 0000049F - 000004AE (0x10 bytes), align: 0
  Segment part 14.            Intra module refs:   main

    *************************************************************************

  FILE NAME : D:\Firmware\my-project-hihack\trunk\ my-project-hihack --username kaiser.ren@gmail.com\back_end\Applications\TAL_Examples\Performance_Test\IAR\Mega1281\Debug\Obj\pal_board.r90
  PROGRAM MODULE, NAME : pal_board

  SEGMENTS IN THE MODULE
  ======================
ABSOLUTE
  Relative segment, address: DATA 000000B6 - 000000B6 (0x1 bytes), align: 0
  Segment part 1. ROOT.
           ENTRY                   ADDRESS         REF BY
           =====                   =======         ======
           _A_ASSR                 000000B6 
           LOCAL                   ADDRESS         
           =====                   =======         
           ASSR                    000000B6 
    -------------------------------------------------------------------------
ABSOLUTE
  Relative segment, address: DATA 000000B2 - 000000B2 (0x1 bytes), align: 0
  Segment part 2. ROOT.
           ENTRY                   ADDRESS         REF BY
           =====                   =======         ======
           _A_TCNT2                000000B2 
           LOCAL                   ADDRESS         
           =====                   =======         
           TCNT2                   000000B2 
    -------------------------------------------------------------------------
ABSOLUTE
  Relative segment, address: DATA 000000B1 - 000000B1 (0x1 bytes), align: 0
  Segment part 3. ROOT.
           ENTRY                   ADDRESS         REF BY
           =====                   =======         ======
           _A_TCCR2B               000000B1 
           LOCAL                   ADDRESS         
           =====                   =======         
           TCCR2B                  000000B1 
    -------------------------------------------------------------------------
ABSOLUTE
  Relative segment, address: DATA 00000086 - 00000087 (0x2 bytes), align: 0
  Segment part 4. ROOT.
           ENTRY                   ADDRESS         REF BY
           =====                   =======         ======
           _A_ICR1                 00000086 
           LOCAL                   ADDRESS         
           =====                   =======         
           ICR1                    00000086 
           ICR1H                   00000087 
           ICR1L                   00000086 
    -------------------------------------------------------------------------
ABSOLUTE
  Relative segment, address: DATA 00000080 - 00000080 (0x1 bytes), align: 0
  Segment part 7. ROOT.
           ENTRY                   ADDRESS         REF BY
           =====                   =======         ======
           _A_TCCR1A               00000080 
           LOCAL                   ADDRESS         
           =====                   =======         
           TCCR1A                  00000080 
    -------------------------------------------------------------------------
ABSOLUTE
  Relative segment, address: DATA 0000006F - 0000006F (0x1 bytes), align: 0
  Segment part 8. ROOT.
           ENTRY                   ADDRESS         REF BY
           =====                   =======         ======
           _A_TIMSK1               0000006F 
           LOCAL                   ADDRESS         
           =====                   =======         
           TIMSK1                  0000006F 
    -------------------------------------------------------------------------
ABSOLUTE
  Relative segment, address: DATA 00000066 - 00000066 (0x1 bytes), align: 0
  Segment part 9. ROOT.
           ENTRY                   ADDRESS         REF BY
           =====                   =======         ======
           _A_OSCCAL               00000066 
           LOCAL                   ADDRESS         
           =====                   =======         
           OSCCAL                  00000066 
    -------------------------------------------------------------------------
ABSOLUTE
  Relative segment, address: DATA 00000037 - 00000037 (0x1 bytes), align: 0
  Segment part 11. ROOT.
           ENTRY                   ADDRESS         REF BY
           =====                   =======         ======
           _A_TIFR2                00000037 
           LOCAL                   ADDRESS         
           =====                   =======         
           TIFR2                   00000037 
    -------------------------------------------------------------------------
ABSOLUTE
  Relative segment, address: DATA 0000002E - 0000002E (0x1 bytes), align: 0
  Segment part 13. ROOT.
           ENTRY                   ADDRESS         REF BY
           =====                   =======         ======
           _A_PORTE                0000002E 
           LOCAL                   ADDRESS         
           =====                   =======         
           PORTE                   0000002E 
    -------------------------------------------------------------------------
ABSOLUTE
  Relative segment, address: DATA 0000002D - 0000002D (0x1 bytes), align: 0
  Segment part 14. ROOT.
           ENTRY                   ADDRESS         REF BY
           =====                   =======         ======
           _A_DDRE                 0000002D 
           LOCAL                   ADDRESS         
           =====                   =======         
           DDRE                    0000002D 
    -------------------------------------------------------------------------
ABSOLUTE
  Relative segment, address: DATA 0000002C - 0000002C (0x1 bytes), align: 0
  Segment part 15. ROOT.
           ENTRY                   ADDRESS         REF BY
           =====                   =======         ======
           _A_PINE                 0000002C 
           LOCAL                   ADDRESS         
           =====                   =======         
           PINE                    0000002C 
    -------------------------------------------------------------------------
ABSOLUTE
  Relative segment, address: DATA 00000025 - 00000025 (0x1 bytes), align: 0
  Segment part 16. ROOT.      Intra module refs:   pal_led
                                                   pal_led_init
           ENTRY                   ADDRESS         REF BY
           =====                   =======         ======
           _A_PORTB                00000025 
           LOCAL                   ADDRESS         
           =====                   =======         
           PORTB                   00000025 
    -------------------------------------------------------------------------
ABSOLUTE
  Relative segment, address: DATA 00000024 - 00000024 (0x1 bytes), align: 0
  Segment part 17. ROOT.      Intra module refs:   pal_led_init
                                                   pwm_init (timer)
           ENTRY                   ADDRESS         REF BY
           =====                   =======         ======
           _A_DDRB                 00000024 
           LOCAL                   ADDRESS         
           =====                   =======         
           DDRB                    00000024 
    -------------------------------------------------------------------------
ABSOLUTE
  Relative segment, address: DATA 00000021 - 00000021 (0x1 bytes), align: 0
  Segment part 18. ROOT.
           ENTRY                   ADDRESS         REF BY
           =====                   =======         ======
           _A_DDRA                 00000021 
           LOCAL                   ADDRESS         
           =====                   =======         
           DDRA                    00000021 
    -------------------------------------------------------------------------
CODE
  Relative segment, address: CODE 00000682 - 0000068F (0xe bytes), align: 1
  Segment part 29.
           ENTRY                   ADDRESS         REF BY
           =====                   =======         ======
           pal_led_init            00000682        hal_init (hal)
               RSTACK = 00000000 ( 00000002 )
    -------------------------------------------------------------------------
CODE
  Relative segment, address: CODE 00000690 - 00000719 (0x8a bytes), align: 1
  Segment part 30.
           ENTRY                   ADDRESS         REF BY
           =====                   =======         ======
           pal_led                 00000690        handler_ANALOG_COMP_vect (decode)
                                                   main (main)
               RSTACK = 00000000 ( 00000004 )

    *************************************************************************

  FILE NAME : D:\Firmware\my-project-hihack\trunk\ my-project-hihack --username kaiser.ren@gmail.com\back_end\Applications\TAL_Examples\Performance_Test\IAR\Mega1281\Debug\Obj\pal_sio_hub.r90
  PROGRAM MODULE, NAME : pal_sio_hub

  SEGMENTS IN THE MODULE
  ======================
CODE
  Relative segment, address: CODE 0000071A - 0000073D (0x24 bytes), align: 1
  Segment part 7.
           ENTRY                   ADDRESS         REF BY
           =====                   =======         ======
           pal_sio_init            0000071A        hal_init (hal)
               calls direct
               CSTACK = 00000000 ( 00000002 )
               RSTACK = 00000000 ( 00000002 )
    -------------------------------------------------------------------------
CODE
  Relative segment, address: CODE 0000073E - 00000761 (0x24 bytes), align: 1
  Segment part 8.
           ENTRY                   ADDRESS         REF BY
           =====                   =======         ======
           pal_sio_tx              0000073E        _sio_putchar (sio_handler)
               calls direct
               CSTACK = 00000000 ( 00000005 )
               RSTACK = 00000000 ( 00000002 )

    *************************************************************************

  FILE NAME : D:\Firmware\my-project-hihack\trunk\ my-project-hihack --username kaiser.ren@gmail.com\back_end\Applications\TAL_Examples\Performance_Test\IAR\Mega1281\Debug\Obj\pal_uart.r90
  PROGRAM MODULE, NAME : pal_uart

  SEGMENTS IN THE MODULE
  ======================
ABSOLUTE
  Relative segment, address: DATA 000000CE - 000000CE (0x1 bytes), align: 0
  Segment part 1. ROOT.       Intra module refs:   handler_USART1_RX_vect
                                                   handler_USART1_TX_vect
                                                   sio_uart_1_tx
           ENTRY                   ADDRESS         REF BY
           =====                   =======         ======
           _A_UDR1                 000000CE 
           LOCAL                   ADDRESS         
           =====                   =======         
           UDR1                    000000CE 
    -------------------------------------------------------------------------
ABSOLUTE
  Relative segment, address: DATA 000000CC - 000000CD (0x2 bytes), align: 0
  Segment part 2. ROOT.       Intra module refs:   sio_uart_1_init
           ENTRY                   ADDRESS         REF BY
           =====                   =======         ======
           _A_UBRR1                000000CC 
           LOCAL                   ADDRESS         
           =====                   =======         
           UBRR1                   000000CC 
           UBRR1H                  000000CD 
           UBRR1L                  000000CC 
    -------------------------------------------------------------------------
ABSOLUTE
  Relative segment, address: DATA 000000CA - 000000CA (0x1 bytes), align: 0
  Segment part 3. ROOT.       Intra module refs:   sio_uart_1_init
           ENTRY                   ADDRESS         REF BY
           =====                   =======         ======
           _A_UCSR1C               000000CA 
           LOCAL                   ADDRESS         
           =====                   =======         
           UCSR1C                  000000CA 
    -------------------------------------------------------------------------
ABSOLUTE
  Relative segment, address: DATA 000000C9 - 000000C9 (0x1 bytes), align: 0
  Segment part 4. ROOT.       Intra module refs:   sio_uart_1_init
                                                   sio_uart_1_tx
           ENTRY                   ADDRESS         REF BY
           =====                   =======         ======
           _A_UCSR1B               000000C9 
           LOCAL                   ADDRESS         
           =====                   =======         
           UCSR1B                  000000C9 
    -------------------------------------------------------------------------
ABSOLUTE
  Relative segment, address: DATA 000000C8 - 000000C8 (0x1 bytes), align: 0
  Segment part 5. ROOT.       Intra module refs:   sio_uart_1_init
           ENTRY                   ADDRESS         REF BY
           =====                   =======         ======
           _A_UCSR1A               000000C8 
           LOCAL                   ADDRESS         
           =====                   =======         
           UCSR1A                  000000C8 
    -------------------------------------------------------------------------
NEAR_Z
  Relative segment, address: DATA 000004C0 - 000004D9 (0x1a bytes), align: 0
  Segment part 14.            Intra module refs:   handler_USART1_RX_vect
                                                   handler_USART1_TX_vect
                                                   sio_uart_1_tx
           ENTRY                   ADDRESS         REF BY
           =====                   =======         ======
           uart_1_buffer           000004C0 
    -------------------------------------------------------------------------
CODE
  Relative segment, address: CODE 00000762 - 000007CD (0x6c bytes), align: 1
  Segment part 16.
           ENTRY                   ADDRESS         REF BY
           =====                   =======         ======
           sio_uart_1_init         00000762        pal_sio_init (pal_sio_hub)
               CSTACK = 00000000 ( 00000008 )
               RSTACK = 00000000 ( 00000004 )
    -------------------------------------------------------------------------
CODE
  Relative segment, address: CODE 000007CE - 0000086F (0xa2 bytes), align: 1
  Segment part 17.
           ENTRY                   ADDRESS         REF BY
           =====                   =======         ======
           sio_uart_1_tx           000007CE        pal_sio_tx (pal_sio_hub)
               RSTACK = 00000000 ( 00000002 )
    -------------------------------------------------------------------------
CODE
  Relative segment, address: CODE 00000870 - 000008CB (0x5c bytes), align: 1
  Segment part 19.            Intra module refs:   handler_USART1_RX_vect::??INTVEC 144
           ENTRY                   ADDRESS         REF BY
           =====                   =======         ======
           handler_USART1_RX_vect
                                   00000870 
               interrupt function
               CSTACK = 00000000 ( 00000007 )
               RSTACK = 00000000 ( 00000002 )
    -------------------------------------------------------------------------
CODE
  Relative segment, address: CODE 000008CC - 0000092D (0x62 bytes), align: 1
  Segment part 20.            Intra module refs:   handler_USART1_TX_vect::??INTVEC 152
           ENTRY                   ADDRESS         REF BY
           =====                   =======         ======
           handler_USART1_TX_vect
                                   000008CC 
               interrupt function
               CSTACK = 00000000 ( 00000006 )
               RSTACK = 00000000 ( 00000002 )
    -------------------------------------------------------------------------
INTVEC
  Common segment, address: CODE 00000000 - 00000093 (0x94 bytes), align: 1
  Segment part 10. ROOT.
           ENTRY                   ADDRESS         REF BY
           =====                   =======         ======
           handler_USART1_RX_vect::??INTVEC 144
                                   00000090 
    -------------------------------------------------------------------------
INTVEC
  Common segment, address: CODE 00000000 - 0000009B (0x9c bytes), align: 1
  Segment part 11. ROOT.
           ENTRY                   ADDRESS         REF BY
           =====                   =======         ======
           handler_USART1_TX_vect::??INTVEC 152
                                   00000098 

    *************************************************************************

  FILE NAME : D:\Firmware\my-project-hihack\trunk\ my-project-hihack --username kaiser.ren@gmail.com\back_end\Applications\TAL_Examples\Performance_Test\IAR\Mega1281\Debug\Obj\pal_utils.r90
    *************************************************************************

  FILE NAME : D:\Firmware\my-project-hihack\trunk\ my-project-hihack --username kaiser.ren@gmail.com\back_end\Applications\TAL_Examples\Performance_Test\IAR\Mega1281\Debug\Obj\sio_handler.r90
  PROGRAM MODULE, NAME : sio_handler

  SEGMENTS IN THE MODULE
  ======================
CODE
  Relative segment, address: CODE 0000092E - 00000967 (0x3a bytes), align: 1
  Segment part 7.
           ENTRY                   ADDRESS         REF BY
           =====                   =======         ======
           _sio_putchar            0000092E        decode_machine (decode)
                                                   low_level_putchar (?__write)
               calls direct
               CSTACK = 00000000 ( 00000002 )
               RSTACK = 00000000 ( 00000002 )

    *************************************************************************

  FILE NAME : D:\Firmware\my-project-hihack\trunk\ my-project-hihack --username kaiser.ren@gmail.com\back_end\Applications\TAL_Examples\Performance_Test\IAR\Mega1281\Debug\Obj\timer.r90
  PROGRAM MODULE, NAME : timer

  SEGMENTS IN THE MODULE
  ======================
ABSOLUTE
  Relative segment, address: DATA 0000006E - 0000006E (0x1 bytes), align: 0
  Segment part 1. ROOT.       Intra module refs:   pwm_init
           ENTRY                   ADDRESS         REF BY
           =====                   =======         ======
           _A_TIMSK0               0000006E 
           LOCAL                   ADDRESS         
           =====                   =======         
           TIMSK0                  0000006E 
    -------------------------------------------------------------------------
ABSOLUTE
  Relative segment, address: DATA 00000047 - 00000047 (0x1 bytes), align: 0
  Segment part 2. ROOT.
           ENTRY                   ADDRESS         REF BY
           =====                   =======         ======
           _A_OCR0A                00000047 
           LOCAL                   ADDRESS         
           =====                   =======         
           OCR0A                   00000047 
    -------------------------------------------------------------------------
ABSOLUTE
  Relative segment, address: DATA 00000045 - 00000045 (0x1 bytes), align: 0
  Segment part 3. ROOT.       Intra module refs:   pwm_uninit
           ENTRY                   ADDRESS         REF BY
           =====                   =======         ======
           _A_TCCR0B               00000045 
           LOCAL                   ADDRESS         
           =====                   =======         
           TCCR0B                  00000045 
    -------------------------------------------------------------------------
ABSOLUTE
  Relative segment, address: DATA 00000044 - 00000044 (0x1 bytes), align: 0
  Segment part 4. ROOT.       Intra module refs:   pwm_init
           ENTRY                   ADDRESS         REF BY
           =====                   =======         ======
           _A_TCCR0A               00000044 
           LOCAL                   ADDRESS         
           =====                   =======         
           TCCR0A                  00000044 
    -------------------------------------------------------------------------
ABSOLUTE
  Relative segment, address: DATA 00000035 - 00000035 (0x1 bytes), align: 0
  Segment part 5. ROOT.       Intra module refs:   pwm_init
           ENTRY                   ADDRESS         REF BY
           =====                   =======         ======
           _A_TIFR0                00000035 
           LOCAL                   ADDRESS         
           =====                   =======         
           TIFR0                   00000035 
    -------------------------------------------------------------------------
NEAR_Z
  Relative segment, address: DATA 000004DA - 000004DE (0x5 bytes), align: 0
  Segment part 14.
           ENTRY                   ADDRESS         REF BY
           =====                   =======         ======
           ac_cap_para             000004DA        ac_init (decode)
    -------------------------------------------------------------------------
NEAR_Z
  Relative segment, address: DATA 000004DF - 000004E0 (0x2 bytes), align: 0
  Segment part 16.            Intra module refs:   handler_TIMER0_COMPA_vect
           ENTRY                   ADDRESS         REF BY
           =====                   =======         ======
           pwm_para                000004DF 
    -------------------------------------------------------------------------
CODE
  Relative segment, address: CODE 00000968 - 00000979 (0x12 bytes), align: 1
  Segment part 17.
           ENTRY                   ADDRESS         REF BY
           =====                   =======         ======
           pwm_init                00000968        hal_init (hal)
               RSTACK = 00000000 ( 00000002 )
    -------------------------------------------------------------------------
CODE
  Relative segment, address: CODE 0000097A - 0000097F (0x6 bytes), align: 1
  Segment part 19.            Intra module refs:   handler_TIMER0_COMPA_vect
           ENTRY                   ADDRESS         REF BY
           =====                   =======         ======
           pwm_uninit              0000097A 
               RSTACK = 00000000 ( 00000002 )
    -------------------------------------------------------------------------
CODE
  Relative segment, address: CODE 00000980 - 000009DD (0x5e bytes), align: 1
  Segment part 20.            Intra module refs:   handler_TIMER0_COMPA_vect::??INTVEC 84
           ENTRY                   ADDRESS         REF BY
           =====                   =======         ======
           handler_TIMER0_COMPA_vect
                                   00000980 
               interrupt function
               calls direct
               CSTACK = 00000000 ( 00000010 )
               RSTACK = 00000000 ( 00000002 )
    -------------------------------------------------------------------------
INTVEC
  Common segment, address: CODE 00000000 - 00000057 (0x58 bytes), align: 1
  Segment part 11. ROOT.
           ENTRY                   ADDRESS         REF BY
           =====                   =======         ======
           handler_TIMER0_COMPA_vect::??INTVEC 84
                                   00000054 

    *************************************************************************

  FILE NAME : D:\Firmware\my-project-hihack\trunk\ my-project-hihack --username kaiser.ren@gmail.com\back_end\Applications\TAL_Examples\Performance_Test\IAR\Mega1281\Debug\Obj\write.r90
  PROGRAM MODULE, NAME : ?__write

  SEGMENTS IN THE MODULE
  ======================
CODE
  Relative segment, address: CODE 000009DE - 000009EF (0x12 bytes), align: 1
  Segment part 7.             Intra module refs:   __write
           ENTRY                   ADDRESS         REF BY
           =====                   =======         ======
           low_level_putchar       000009DE 
               calls direct
               CSTACK = 00000000 ( 00000002 )
               RSTACK = 00000000 ( 00000002 )
    -------------------------------------------------------------------------
CODE
  Relative segment, address: CODE 000009F0 - 00000A51 (0x62 bytes), align: 1
  Segment part 8.
           ENTRY                   ADDRESS         REF BY
           =====                   =======         ======
           __write                 000009F0        putchar (?putchar)
               calls direct
               CSTACK = 00000000 ( 00000008 )
               RSTACK = 00000000 ( 00000002 )

    *************************************************************************

  FILE NAME : D:\Program Files\IAR Systems\Embedded Workbench 6.0\avr\LIB\DLIB\dlAVR-3s-ec_mul-n.r90
  LIBRARY MODULE, NAME : ?__dbg_break

  SEGMENTS IN THE MODULE
  ======================
CODE
  Relative segment, address: CODE 00000A52 - 00000A53 (0x2 bytes), align: 1
  Segment part 3.
           ENTRY                   ADDRESS         REF BY
           =====                   =======         ======
           __DebugBreak            00000A52        __exit (?__exit)

    -------------------------------------------------------------------------
  LIBRARY MODULE, NAME : ?__exit

  SEGMENTS IN THE MODULE
  ======================
CODE
  Relative segment, address: CODE 00000A54 - 00000A69 (0x16 bytes), align: 1
  Segment part 3.
           ENTRY                   ADDRESS         REF BY
           =====                   =======         ======
           __exit                  00000A54        Segment part 5 (?_exit)
               calls direct

    -------------------------------------------------------------------------
  LIBRARY MODULE, NAME : ?_exit

  SEGMENTS IN THE MODULE
  ======================
CODE
  Relative segment, address: CODE 00000A6A, align: 1
  Segment part 0.
           ENTRY                   ADDRESS         REF BY
           =====                   =======         ======
           _exit                   00000A6A        ?cstartup_call_main (?C_STARTUP)
                                                   exit (?exit)
    -------------------------------------------------------------------------
CODE
  Relative segment, address: CODE 00000A6A - 00000A6D (0x4 bytes), align: 1
  Segment part 5.             Intra module refs:   _exit

    -------------------------------------------------------------------------
  LIBRARY MODULE, NAME : ?RESET

  SEGMENTS IN THE MODULE
  ======================
INTVEC
  Common segment, address: CODE 00000000 - 00000003 (0x4 bytes), align: 1
  Segment part 0. ROOT.
           ENTRY                   ADDRESS         REF BY
           =====                   =======         ======
           __program_start         00000000        Absolute parts (?ABS_ENTRY_MOD)
           ?RESET                  00000000        Segment part 2 (?C_STARTUP)

    -------------------------------------------------------------------------
  LIBRARY MODULE, NAME : ?C_STARTUP

  SEGMENTS IN THE MODULE
  ======================
CODE
  Relative segment, address: CODE 00000A6E, align: 1
  Segment part 2.
           ENTRY                   ADDRESS         REF BY
           =====                   =======         ======
           ?C_STARTUP              00000A6E        Segment part 0 (?RESET)
           __RESTART               00000A6E 
    -------------------------------------------------------------------------
CODE
  Relative segment, address: CODE 00000A6E - 00000A79 (0xc bytes), align: 1
  Segment part 5.             Intra module refs:   Segment part 2
    -------------------------------------------------------------------------
CODE
  Relative segment, address: CODE 00000A7A - 00000A7D (0x4 bytes), align: 1
  Segment part 7.             Intra module refs:   Segment part 5
           ENTRY                   ADDRESS         REF BY
           =====                   =======         ======
           ?call_low_level_init    00000A7A 
    -------------------------------------------------------------------------
CODE
  Relative segment, address: CODE 00000A7E - 00000A85 (0x8 bytes), align: 1
  Segment part 8.
           ENTRY                   ADDRESS         REF BY
           =====                   =======         ======
           ?need_segment_init      00000A7E        ?<Segment init: NEAR_I> (main)
                                                   ?<Segment init: NEAR_Z> (decode)
    -------------------------------------------------------------------------
CODE
  Relative segment, address: CODE 00000A86 - 00000A91 (0xc bytes), align: 1
  Segment part 11.            Intra module refs:   ?call_low_level_init
           ENTRY                   ADDRESS         REF BY
           =====                   =======         ======
           ?cstartup_call_main     00000A86 

    -------------------------------------------------------------------------
  LIBRARY MODULE, NAME : ?exit

  SEGMENTS IN THE MODULE
  ======================
CODE
  Relative segment, address: CODE 00000A92 - 00000A95 (0x4 bytes), align: 1
  Segment part 3.
           ENTRY                   ADDRESS         REF BY
           =====                   =======         ======
           exit                    00000A92        ?cstartup_call_main (?C_STARTUP)
               calls direct
               RSTACK = 00000000 ( 00000002 )

    -------------------------------------------------------------------------
  LIBRARY MODULE, NAME : ?S_EC_MUL_L02

  SEGMENTS IN THE MODULE
  ======================
CODE
  Relative segment, address: CODE 00000A96 - 00000AA5 (0x10 bytes), align: 1
  Segment part 0.
           ENTRY                   ADDRESS         REF BY
           =====                   =======         ======
           ?S_EC_MUL_L02           00000A96        Segment part 13 (?xprintfsmall)

    -------------------------------------------------------------------------
  LIBRARY MODULE, NAME : ?S_SHL_L02

  SEGMENTS IN THE MODULE
  ======================
CODE
  Relative segment, address: CODE 00000AA6 - 00000AB1 (0xc bytes), align: 1
  Segment part 0.
           ENTRY                   ADDRESS         REF BY
           =====                   =======         ======
           ?S_SHL_L02              00000AA6        pal_led (pal_board)

    -------------------------------------------------------------------------
  LIBRARY MODULE, NAME : ?L_EC_MUL_L03

  SEGMENTS IN THE MODULE
  ======================
CODE
  Relative segment, address: CODE 00000AB2 - 00000AF1 (0x40 bytes), align: 1
  Segment part 0.
           ENTRY                   ADDRESS         REF BY
           =====                   =======         ======
           ?L_EC_MUL_L03           00000AB2        sio_uart_1_init (pal_uart)

    -------------------------------------------------------------------------
  LIBRARY MODULE, NAME : ?UL_DIVMOD_L03

  SEGMENTS IN THE MODULE
  ======================
CODE
  Relative segment, address: CODE 00000AF2 - 00000B37 (0x46 bytes), align: 1
  Segment part 0.
           ENTRY                   ADDRESS         REF BY
           =====                   =======         ======
           ?UL_DIVMOD_L03          00000AF2        Segment part 40 (?xprintfsmall)
                                                   sio_uart_1_init (pal_uart)

    -------------------------------------------------------------------------
  LIBRARY MODULE, NAME : ?xV_SWITCH_L06

  SEGMENTS IN THE MODULE
  ======================
CODE
  Relative segment, address: CODE 00000B38 - 00000BD3 (0x9c bytes), align: 1
  Segment part 0.
           ENTRY                   ADDRESS         REF BY
           =====                   =======         ======
           ?CV_SWITCH_L06          00000B4A        decode_machine (decode)
           ?SV_SWITCH_L06          00000B52 
           ?LV_SWITCH_L06          00000B5E 

    -------------------------------------------------------------------------
  LIBRARY MODULE, NAME : ?PROLOGUE_L09

  SEGMENTS IN THE MODULE
  ======================
CODE
  Relative segment, address: CODE 00000BD4 - 00000BD5 (0x2 bytes), align: 1
  Segment part 1.
           ENTRY                   ADDRESS         REF BY
           =====                   =======         ======
           ?PROLOGUE15_L09         00000BD4        _LitobSmall (?xprintfsmall)
    -------------------------------------------------------------------------
CODE
  Relative segment, address: CODE 00000BD6 - 00000BD7 (0x2 bytes), align: 1
  Segment part 2.             Intra module refs:   ?PROLOGUE15_L09
           ENTRY                   ADDRESS         REF BY
           =====                   =======         ======
           ?PROLOGUE14_L09         00000BD6 
    -------------------------------------------------------------------------
CODE
  Relative segment, address: CODE 00000BD8 - 00000BD9 (0x2 bytes), align: 1
  Segment part 3.             Intra module refs:   ?PROLOGUE14_L09
           ENTRY                   ADDRESS         REF BY
           =====                   =======         ======
           ?PROLOGUE13_L09         00000BD8 
    -------------------------------------------------------------------------
CODE
  Relative segment, address: CODE 00000BDA - 00000BDB (0x2 bytes), align: 1
  Segment part 4.             Intra module refs:   ?PROLOGUE13_L09
           ENTRY                   ADDRESS         REF BY
           =====                   =======         ======
           ?PROLOGUE12_L09         00000BDA 
    -------------------------------------------------------------------------
CODE
  Relative segment, address: CODE 00000BDC - 00000BDD (0x2 bytes), align: 1
  Segment part 5.             Intra module refs:   ?PROLOGUE12_L09
           ENTRY                   ADDRESS         REF BY
           =====                   =======         ======
           ?PROLOGUE11_L09         00000BDC 
    -------------------------------------------------------------------------
CODE
  Relative segment, address: CODE 00000BDE - 00000BDF (0x2 bytes), align: 1
  Segment part 6.             Intra module refs:   ?PROLOGUE11_L09
           ENTRY                   ADDRESS         REF BY
           =====                   =======         ======
           ?PROLOGUE10_L09         00000BDE 
    -------------------------------------------------------------------------
CODE
  Relative segment, address: CODE 00000BE0 - 00000BE1 (0x2 bytes), align: 1
  Segment part 7.             Intra module refs:   ?PROLOGUE10_L09
           ENTRY                   ADDRESS         REF BY
           =====                   =======         ======
           ?PROLOGUE9_L09          00000BE0 
    -------------------------------------------------------------------------
CODE
  Relative segment, address: CODE 00000BE2 - 00000BE3 (0x2 bytes), align: 1
  Segment part 8.             Intra module refs:   ?PROLOGUE9_L09
           ENTRY                   ADDRESS         REF BY
           =====                   =======         ======
           ?PROLOGUE8_L09          00000BE2        Segment part 38 (?xprintfsmall)
                                                   __write (?__write)
                                                   sio_uart_1_init (pal_uart)
    -------------------------------------------------------------------------
CODE
  Relative segment, address: CODE 00000BE4 - 00000BE5 (0x2 bytes), align: 1
  Segment part 9.             Intra module refs:   ?PROLOGUE8_L09
           ENTRY                   ADDRESS         REF BY
           =====                   =======         ======
           ?PROLOGUE7_L09          00000BE4 
    -------------------------------------------------------------------------
CODE
  Relative segment, address: CODE 00000BE6 - 00000BE7 (0x2 bytes), align: 1
  Segment part 10.            Intra module refs:   ?PROLOGUE7_L09
           ENTRY                   ADDRESS         REF BY
           =====                   =======         ======
           ?PROLOGUE6_L09          00000BE6 
    -------------------------------------------------------------------------
CODE
  Relative segment, address: CODE 00000BE8 - 00000BE9 (0x2 bytes), align: 1
  Segment part 11.            Intra module refs:   ?PROLOGUE6_L09
           ENTRY                   ADDRESS         REF BY
           =====                   =======         ======
           ?PROLOGUE5_L09          00000BE8        pal_sio_tx (pal_sio_hub)
    -------------------------------------------------------------------------
CODE
  Relative segment, address: CODE 00000BEA - 00000BEB (0x2 bytes), align: 1
  Segment part 12.            Intra module refs:   ?PROLOGUE5_L09
           ENTRY                   ADDRESS         REF BY
           =====                   =======         ======
           ?PROLOGUE4_L09          00000BEA        _Prout (?xprout)
    -------------------------------------------------------------------------
CODE
  Relative segment, address: CODE 00000BEC - 00000BED (0x2 bytes), align: 1
  Segment part 13.            Intra module refs:   ?PROLOGUE4_L09
           ENTRY                   ADDRESS         REF BY
           =====                   =======         ======
           ?PROLOGUE3_L09          00000BEC 
    -------------------------------------------------------------------------
CODE
  Relative segment, address: CODE 00000BEE - 00000BEF (0x2 bytes), align: 1
  Segment part 14.            Intra module refs:   ?PROLOGUE3_L09
           ENTRY                   ADDRESS         REF BY
           =====                   =======         ======
           ?PROLOGUE2_L09          00000BEE 
    -------------------------------------------------------------------------
CODE
  Relative segment, address: CODE 00000BF0 - 00000BF1 (0x2 bytes), align: 1
  Segment part 15.            Intra module refs:   ?PROLOGUE2_L09
           ENTRY                   ADDRESS         REF BY
           =====                   =======         ======
           ?PROLOGUE1_L09          00000BF0 
    -------------------------------------------------------------------------
CODE
  Relative segment, address: CODE 00000BF2 - 00000BF3 (0x2 bytes), align: 1
  Segment part 16.            Intra module refs:   ?PROLOGUE1_L09

    -------------------------------------------------------------------------
  LIBRARY MODULE, NAME : ?EPILOGUE_B_L09

  SEGMENTS IN THE MODULE
  ======================
CODE
  Relative segment, address: CODE 00000BF4 - 00000BF5 (0x2 bytes), align: 1
  Segment part 1.
           ENTRY                   ADDRESS         REF BY
           =====                   =======         ======
           ?EPILOGUE_B15_L09       00000BF4        _LitobSmall (?xprintfsmall)
    -------------------------------------------------------------------------
CODE
  Relative segment, address: CODE 00000BF6 - 00000BF7 (0x2 bytes), align: 1
  Segment part 2.             Intra module refs:   ?EPILOGUE_B15_L09
           ENTRY                   ADDRESS         REF BY
           =====                   =======         ======
           ?EPILOGUE_B14_L09       00000BF6 
    -------------------------------------------------------------------------
CODE
  Relative segment, address: CODE 00000BF8 - 00000BF9 (0x2 bytes), align: 1
  Segment part 3.             Intra module refs:   ?EPILOGUE_B14_L09
           ENTRY                   ADDRESS         REF BY
           =====                   =======         ======
           ?EPILOGUE_B13_L09       00000BF8 
    -------------------------------------------------------------------------
CODE
  Relative segment, address: CODE 00000BFA - 00000BFB (0x2 bytes), align: 1
  Segment part 4.             Intra module refs:   ?EPILOGUE_B13_L09
           ENTRY                   ADDRESS         REF BY
           =====                   =======         ======
           ?EPILOGUE_B12_L09       00000BFA 
    -------------------------------------------------------------------------
CODE
  Relative segment, address: CODE 00000BFC - 00000BFD (0x2 bytes), align: 1
  Segment part 5.             Intra module refs:   ?EPILOGUE_B12_L09
           ENTRY                   ADDRESS         REF BY
           =====                   =======         ======
           ?EPILOGUE_B11_L09       00000BFC 
    -------------------------------------------------------------------------
CODE
  Relative segment, address: CODE 00000BFE - 00000BFF (0x2 bytes), align: 1
  Segment part 6.             Intra module refs:   ?EPILOGUE_B11_L09
           ENTRY                   ADDRESS         REF BY
           =====                   =======         ======
           ?EPILOGUE_B10_L09       00000BFE 
    -------------------------------------------------------------------------
CODE
  Relative segment, address: CODE 00000C00 - 00000C01 (0x2 bytes), align: 1
  Segment part 7.             Intra module refs:   ?EPILOGUE_B10_L09
           ENTRY                   ADDRESS         REF BY
           =====                   =======         ======
           ?EPILOGUE_B9_L09        00000C00 
    -------------------------------------------------------------------------
CODE
  Relative segment, address: CODE 00000C02 - 00000C03 (0x2 bytes), align: 1
  Segment part 8.             Intra module refs:   ?EPILOGUE_B9_L09
           ENTRY                   ADDRESS         REF BY
           =====                   =======         ======
           ?EPILOGUE_B8_L09        00000C02        Segment part 7 (?xprintfsmall)
                                                   __write (?__write)
                                                   sio_uart_1_init (pal_uart)
    -------------------------------------------------------------------------
CODE
  Relative segment, address: CODE 00000C04 - 00000C05 (0x2 bytes), align: 1
  Segment part 9.             Intra module refs:   ?EPILOGUE_B8_L09
           ENTRY                   ADDRESS         REF BY
           =====                   =======         ======
           ?EPILOGUE_B7_L09        00000C04 
    -------------------------------------------------------------------------
CODE
  Relative segment, address: CODE 00000C06 - 00000C07 (0x2 bytes), align: 1
  Segment part 10.            Intra module refs:   ?EPILOGUE_B7_L09
           ENTRY                   ADDRESS         REF BY
           =====                   =======         ======
           ?EPILOGUE_B6_L09        00000C06 
    -------------------------------------------------------------------------
CODE
  Relative segment, address: CODE 00000C08 - 00000C09 (0x2 bytes), align: 1
  Segment part 11.            Intra module refs:   ?EPILOGUE_B6_L09
           ENTRY                   ADDRESS         REF BY
           =====                   =======         ======
           ?EPILOGUE_B5_L09        00000C08        pal_sio_tx (pal_sio_hub)
    -------------------------------------------------------------------------
CODE
  Relative segment, address: CODE 00000C0A - 00000C0B (0x2 bytes), align: 1
  Segment part 12.            Intra module refs:   ?EPILOGUE_B5_L09
           ENTRY                   ADDRESS         REF BY
           =====                   =======         ======
           ?EPILOGUE_B4_L09        00000C0A        _Prout (?xprout)
    -------------------------------------------------------------------------
CODE
  Relative segment, address: CODE 00000C0C - 00000C0D (0x2 bytes), align: 1
  Segment part 13.            Intra module refs:   ?EPILOGUE_B4_L09
           ENTRY                   ADDRESS         REF BY
           =====                   =======         ======
           ?EPILOGUE_B3_L09        00000C0C 
    -------------------------------------------------------------------------
CODE
  Relative segment, address: CODE 00000C0E - 00000C0F (0x2 bytes), align: 1
  Segment part 14.            Intra module refs:   ?EPILOGUE_B3_L09
           ENTRY                   ADDRESS         REF BY
           =====                   =======         ======
           ?EPILOGUE_B2_L09        00000C0E 
    -------------------------------------------------------------------------
CODE
  Relative segment, address: CODE 00000C10 - 00000C11 (0x2 bytes), align: 1
  Segment part 15.            Intra module refs:   ?EPILOGUE_B2_L09
           ENTRY                   ADDRESS         REF BY
           =====                   =======         ======
           ?EPILOGUE_B1_L09        00000C10 
    -------------------------------------------------------------------------
CODE
  Relative segment, address: CODE 00000C12 - 00000C1B (0xa bytes), align: 1
  Segment part 16.            Intra module refs:   ?EPILOGUE_B1_L09
           ENTRY                   ADDRESS         REF BY
           =====                   =======         ======
           ?EPILOGUE_B0_L09        00000C12 

    -------------------------------------------------------------------------
  LIBRARY MODULE, NAME : ?REGISTER_CGREGR4_L10

  SEGMENTS IN THE MODULE
  ======================
CODE
  Relative segment, address: CODE 00000C1C, align: 1
  Segment part 0.
           ENTRY                   ADDRESS         REF BY
           =====                   =======         ======
           ?Register_R4_is_cg_reg
                                   00000C1C        _LitobSmall (?xprintfsmall)
                                                   _PrintfSmall (?xprintfsmall)
                                                   _PutcharsSmall (?xprintfsmall)
                                                   __write (?__write)
                                                   pad (?xprintfsmall)
                                                   pal_sio_tx (pal_sio_hub)
                                                   sio_uart_1_init (pal_uart)

    -------------------------------------------------------------------------
  LIBRARY MODULE, NAME : ?REGISTER_CGREGR5_L10

  SEGMENTS IN THE MODULE
  ======================
CODE
  Relative segment, address: CODE 00000C1C, align: 1
  Segment part 0.
           ENTRY                   ADDRESS         REF BY
           =====                   =======         ======
           ?Register_R5_is_cg_reg
                                   00000C1C        _LitobSmall (?xprintfsmall)
                                                   _PrintfSmall (?xprintfsmall)
                                                   _PutcharsSmall (?xprintfsmall)
                                                   __write (?__write)
                                                   pad (?xprintfsmall)
                                                   sio_uart_1_init (pal_uart)

    -------------------------------------------------------------------------
  LIBRARY MODULE, NAME : ?REGISTER_CGREGR6_L10

  SEGMENTS IN THE MODULE
  ======================
CODE
  Relative segment, address: CODE 00000C1C, align: 1
  Segment part 0.
           ENTRY                   ADDRESS         REF BY
           =====                   =======         ======
           ?Register_R6_is_cg_reg
                                   00000C1C        _LitobSmall (?xprintfsmall)
                                                   _PrintfSmall (?xprintfsmall)
                                                   _PutcharsSmall (?xprintfsmall)
                                                   __write (?__write)
                                                   pad (?xprintfsmall)
                                                   sio_uart_1_init (pal_uart)

    -------------------------------------------------------------------------
  LIBRARY MODULE, NAME : ?REGISTER_CGREGR7_L10

  SEGMENTS IN THE MODULE
  ======================
CODE
  Relative segment, address: CODE 00000C1C, align: 1
  Segment part 0.
           ENTRY                   ADDRESS         REF BY
           =====                   =======         ======
           ?Register_R7_is_cg_reg
                                   00000C1C        _LitobSmall (?xprintfsmall)
                                                   _PrintfSmall (?xprintfsmall)
                                                   _PutcharsSmall (?xprintfsmall)
                                                   __write (?__write)
                                                   pad (?xprintfsmall)
                                                   sio_uart_1_init (pal_uart)

    -------------------------------------------------------------------------
  LIBRARY MODULE, NAME : ?REGISTER_CGREGR8_L10

  SEGMENTS IN THE MODULE
  ======================
CODE
  Relative segment, address: CODE 00000C1C, align: 1
  Segment part 0.
           ENTRY                   ADDRESS         REF BY
           =====                   =======         ======
           ?Register_R8_is_cg_reg
                                   00000C1C        _LitobSmall (?xprintfsmall)

    -------------------------------------------------------------------------
  LIBRARY MODULE, NAME : ?REGISTER_CGREGR9_L10

  SEGMENTS IN THE MODULE
  ======================
CODE
  Relative segment, address: CODE 00000C1C, align: 1
  Segment part 0.
           ENTRY                   ADDRESS         REF BY
           =====                   =======         ======
           ?Register_R9_is_cg_reg
                                   00000C1C        _LitobSmall (?xprintfsmall)

    -------------------------------------------------------------------------
  LIBRARY MODULE, NAME : ?REGISTER_CGREGR10_L10

  SEGMENTS IN THE MODULE
  ======================
CODE
  Relative segment, address: CODE 00000C1C, align: 1
  Segment part 0.
           ENTRY                   ADDRESS         REF BY
           =====                   =======         ======
           ?Register_R10_is_cg_reg
                                   00000C1C        _LitobSmall (?xprintfsmall)

    -------------------------------------------------------------------------
  LIBRARY MODULE, NAME : ?REGISTER_CGREGR12_L10

  SEGMENTS IN THE MODULE
  ======================
CODE
  Relative segment, address: CODE 00000C1C, align: 1
  Segment part 0.
           ENTRY                   ADDRESS         REF BY
           =====                   =======         ======
           ?Register_R12_is_cg_reg
                                   00000C1C        _LitobSmall (?xprintfsmall)

    -------------------------------------------------------------------------
  LIBRARY MODULE, NAME : ?REGISTER_CGREGR13_L10

  SEGMENTS IN THE MODULE
  ======================
CODE
  Relative segment, address: CODE 00000C1C, align: 1
  Segment part 0.
           ENTRY                   ADDRESS         REF BY
           =====                   =======         ======
           ?Register_R13_is_cg_reg
                                   00000C1C        _LitobSmall (?xprintfsmall)

    -------------------------------------------------------------------------
  LIBRARY MODULE, NAME : ?REGISTER_CGREGR14_L10

  SEGMENTS IN THE MODULE
  ======================
CODE
  Relative segment, address: CODE 00000C1C, align: 1
  Segment part 0.
           ENTRY                   ADDRESS         REF BY
           =====                   =======         ======
           ?Register_R14_is_cg_reg
                                   00000C1C        _LitobSmall (?xprintfsmall)

    -------------------------------------------------------------------------
  LIBRARY MODULE, NAME : ?low_level_init

  SEGMENTS IN THE MODULE
  ======================
CODE
  Relative segment, address: CODE 00000C1C - 00000C1F (0x4 bytes), align: 1
  Segment part 3.
           ENTRY                   ADDRESS         REF BY
           =====                   =======         ======
           __low_level_init        00000C1C        ?call_low_level_init (?C_STARTUP)
               RSTACK = 00000000 ( 00000002 )

    -------------------------------------------------------------------------
  LIBRARY MODULE, NAME : ?memchr

  SEGMENTS IN THE MODULE
  ======================
CODE
  Relative segment, address: CODE 00000C20 - 00000C3F (0x20 bytes), align: 1
  Segment part 4.
           ENTRY                   ADDRESS         REF BY
           =====                   =======         ======
           __iar_Memchr            00000C20        _PrintfSmall (?xprintfsmall)
               RSTACK = 00000000 ( 00000002 )

    -------------------------------------------------------------------------
  LIBRARY MODULE, NAME : ?memset

  SEGMENTS IN THE MODULE
  ======================
CODE
  Relative segment, address: CODE 00000C40 - 00000C51 (0x12 bytes), align: 1
  Segment part 3.
           ENTRY                   ADDRESS         REF BY
           =====                   =======         ======
           memset                  00000C40        ac_init (decode)
               RSTACK = 00000000 ( 00000002 )

    -------------------------------------------------------------------------
  LIBRARY MODULE, NAME : ?printf

  SEGMENTS IN THE MODULE
  ======================
CODE
  Relative segment, address: CODE 00000C52 - 00000C71 (0x20 bytes), align: 1
  Segment part 3.
           ENTRY                   ADDRESS         REF BY
           =====                   =======         ======
           printf                  00000C52        main (main)
               calls direct
               CSTACK = 00000000 ( 00000002 )
               RSTACK = 00000000 ( 00000002 )

    -------------------------------------------------------------------------
  LIBRARY MODULE, NAME : ?putchar

  SEGMENTS IN THE MODULE
  ======================
CODE
  Relative segment, address: CODE 00000C72 - 00000CA5 (0x34 bytes), align: 1
  Segment part 3.
           ENTRY                   ADDRESS         REF BY
           =====                   =======         ======
           putchar                 00000C72        _Prout (?xprout)
               calls direct
               CSTACK = 00000000 ( 00000003 )
               RSTACK = 00000000 ( 00000002 )

    -------------------------------------------------------------------------
  LIBRARY MODULE, NAME : ?segment_init

  SEGMENTS IN THE MODULE
  ======================
CODE
  Relative segment, address: CODE 00000CA6 - 00000CAD (0x8 bytes), align: 1
  Segment part 3.             Intra module refs:   __segment_init
           LOCAL                   ADDRESS         
           =====                   =======         
           __memclr                00000CA6 
               RSTACK = 00000000 ( 00000002 )
    -------------------------------------------------------------------------
CODE
  Relative segment, address: CODE 00000CAE - 00000CB9 (0xc bytes), align: 1
  Segment part 4.             Intra module refs:   __segment_init
           LOCAL                   ADDRESS         
           =====                   =======         
           __flashcpy              00000CAE 
               RSTACK = 00000000 ( 00000002 )
    -------------------------------------------------------------------------
CODE
  Relative segment, address: CODE 00000CBA - 00000CC5 (0xc bytes), align: 1
  Segment part 5.             Intra module refs:   __flashcpy
                                                   __memclr
    -------------------------------------------------------------------------
CODE
  Relative segment, address: CODE 00000CC6 - 00000D25 (0x60 bytes), align: 1
  Segment part 6.
           ENTRY                   ADDRESS         REF BY
           =====                   =======         ======
           __segment_init          00000CC6        ?need_segment_init (?C_STARTUP)
               calls direct
               RSTACK = 00000000 ( 00000002 )

    -------------------------------------------------------------------------
  LIBRARY MODULE, NAME : ?strchr

  SEGMENTS IN THE MODULE
  ======================
CODE
  Relative segment, address: CODE 00000D26 - 00000D39 (0x14 bytes), align: 1
  Segment part 4.
           ENTRY                   ADDRESS         REF BY
           =====                   =======         ======
           __iar_Strchr            00000D26        _PrintfSmall (?xprintfsmall)
               RSTACK = 00000000 ( 00000002 )

    -------------------------------------------------------------------------
  LIBRARY MODULE, NAME : ?strlen

  SEGMENTS IN THE MODULE
  ======================
CODE
  Relative segment, address: CODE 00000D3A - 00000D4D (0x14 bytes), align: 1
  Segment part 3.
           ENTRY                   ADDRESS         REF BY
           =====                   =======         ======
           strlen                  00000D3A        _PrintfSmall (?xprintfsmall)
               RSTACK = 00000000 ( 00000002 )

    -------------------------------------------------------------------------
  LIBRARY MODULE, NAME : ?xprintfsmall

  SEGMENTS IN THE MODULE
  ======================
CODE
  Relative segment, address: CODE 00000D4E - 0000102B (0x2de bytes), align: 1
  Segment part 6.
           ENTRY                   ADDRESS         REF BY
           =====                   =======         ======
           _PrintfSmall            00000D4E        printf (?printf)
               calls direct
               CSTACK = 00000000 ( 00000039 )
               RSTACK = 00000000 ( 00000004 )
    -------------------------------------------------------------------------
CODE
  Relative segment, address: CODE 0000102C - 00001031 (0x6 bytes), align: 1
  Segment part 7.             Intra module refs:   _PrintfSmall
                                                   _PutcharsSmall
                                                   pad
    -------------------------------------------------------------------------
CODE
  Relative segment, address: CODE 00001032 - 00001033 (0x2 bytes), align: 1
  Segment part 8.             Intra module refs:   _LitobSmall
                                                   _PrintfSmall
    -------------------------------------------------------------------------
CODE
  Relative segment, address: CODE 00001034 - 00001039 (0x6 bytes), align: 1
  Segment part 9.             Intra module refs:   Segment part 11
                                                   Segment part 24
                                                   Segment part 8
    -------------------------------------------------------------------------
CODE
  Relative segment, address: CODE 0000103A - 0000103F (0x6 bytes), align: 1
  Segment part 10.            Intra module refs:   _PrintfSmall
    -------------------------------------------------------------------------
CODE
  Relative segment, address: CODE 00001040 - 00001047 (0x8 bytes), align: 1
  Segment part 11.            Intra module refs:   _PrintfSmall
    -------------------------------------------------------------------------
CODE
  Relative segment, address: CODE 00001048 - 0000104F (0x8 bytes), align: 1
  Segment part 12.            Intra module refs:   _PrintfSmall
    -------------------------------------------------------------------------
CODE
  Relative segment, address: CODE 00001050 - 00001065 (0x16 bytes), align: 1
  Segment part 13.            Intra module refs:   _PrintfSmall
    -------------------------------------------------------------------------
CODE
  Relative segment, address: CODE 00001066 - 0000106F (0xa bytes), align: 1
  Segment part 14.            Intra module refs:   Segment part 17
                                                   _PrintfSmall
    -------------------------------------------------------------------------
CODE
  Relative segment, address: CODE 00001070 - 00001077 (0x8 bytes), align: 1
  Segment part 15.            Intra module refs:   _PrintfSmall
    -------------------------------------------------------------------------
CODE
  Relative segment, address: CODE 00001078 - 00001079 (0x2 bytes), align: 1
  Segment part 16.            Intra module refs:   _PrintfSmall
    -------------------------------------------------------------------------
CODE
  Relative segment, address: CODE 0000107A - 00001087 (0xe bytes), align: 1
  Segment part 17.            Intra module refs:   Segment part 16
                                                   _PrintfSmall
    -------------------------------------------------------------------------
CODE
  Relative segment, address: CODE 00001088 - 0000108D (0x6 bytes), align: 1
  Segment part 18.            Intra module refs:   LoadInt
                                                   Segment part 15
                                                   Segment part 16
                                                   _PrintfSmall
    -------------------------------------------------------------------------
CODE
  Relative segment, address: CODE 0000108E - 0000108F (0x2 bytes), align: 1
  Segment part 19.            Intra module refs:   _PrintfSmall
    -------------------------------------------------------------------------
CODE
  Relative segment, address: CODE 00001090 - 00001095 (0x6 bytes), align: 1
  Segment part 20.            Intra module refs:   Segment part 19
                                                   _PrintfSmall
    -------------------------------------------------------------------------
CODE
  Relative segment, address: CODE 00001096 - 0000109F (0xa bytes), align: 1
  Segment part 21.            Intra module refs:   _PrintfSmall
    -------------------------------------------------------------------------
CODE
  Relative segment, address: CODE 000010A0 - 000010A5 (0x6 bytes), align: 1
  Segment part 22.            Intra module refs:   _PrintfSmall
    -------------------------------------------------------------------------
CODE
  Relative segment, address: CODE 000010A6 - 000010A9 (0x4 bytes), align: 1
  Segment part 23.            Intra module refs:   Segment part 22
                                                   Segment part 31
    -------------------------------------------------------------------------
CODE
  Relative segment, address: CODE 000010AA - 000010B3 (0xa bytes), align: 1
  Segment part 24.            Intra module refs:   _PrintfSmall
    -------------------------------------------------------------------------
CODE
  Relative segment, address: CODE 000010B4 - 000010B5 (0x2 bytes), align: 1
  Segment part 25.            Intra module refs:   _PrintfSmall
    -------------------------------------------------------------------------
CODE
  Relative segment, address: CODE 000010B6 - 000010C1 (0xc bytes), align: 1
  Segment part 26.            Intra module refs:   Segment part 25
                                                   Segment part 28
    -------------------------------------------------------------------------
CODE
  Relative segment, address: CODE 000010C2 - 000010C7 (0x6 bytes), align: 1
  Segment part 27.            Intra module refs:   Segment part 25
                                                   _PrintfSmall
    -------------------------------------------------------------------------
CODE
  Relative segment, address: CODE 000010C8 - 000010CF (0x8 bytes), align: 1
  Segment part 28.            Intra module refs:   _PrintfSmall
    -------------------------------------------------------------------------
CODE
  Relative segment, address: CODE 000010D0 - 000010D9 (0xa bytes), align: 1
  Segment part 29.            Intra module refs:   Segment part 10
                                                   Segment part 28
    -------------------------------------------------------------------------
CODE
  Relative segment, address: CODE 000010DA - 000010DD (0x4 bytes), align: 1
  Segment part 30.            Intra module refs:   _PrintfSmall
    -------------------------------------------------------------------------
CODE
  Relative segment, address: CODE 000010DE - 000010E5 (0x8 bytes), align: 1
  Segment part 31.            Intra module refs:   Segment part 30
                                                   _PrintfSmall
    -------------------------------------------------------------------------
CODE
  Relative segment, address: CODE 000010E6 - 00001157 (0x72 bytes), align: 1
  Segment part 32.            Intra module refs:   _PrintfSmall
           LOCAL                   ADDRESS         
           =====                   =======         
           LoadInt                 000010E6 
               RSTACK = 00000000 ( 00000002 )
    -------------------------------------------------------------------------
CODE
  Relative segment, address: CODE 00001158 - 0000115D (0x6 bytes), align: 1
  Segment part 33.            Intra module refs:   LoadInt
    -------------------------------------------------------------------------
CODE
  Relative segment, address: CODE 0000115E - 00001171 (0x14 bytes), align: 1
  Segment part 34.            Intra module refs:   LoadInt
                                                   Segment part 33
    -------------------------------------------------------------------------
CODE
  Relative segment, address: CODE 00001172 - 00001177 (0x6 bytes), align: 1
  Segment part 35.            Intra module refs:   LoadInt
                                                   _PrintfSmall
    -------------------------------------------------------------------------
CODE
  Relative segment, address: CODE 00001178 - 00001181 (0xa bytes), align: 1
  Segment part 36.            Intra module refs:   LoadInt
                                                   _PrintfSmall
    -------------------------------------------------------------------------
CODE
  Relative segment, address: CODE 00001182 - 000011BD (0x3c bytes), align: 1
  Segment part 37.            Intra module refs:   Segment part 31
           LOCAL                   ADDRESS         
           =====                   =======         
           pad                     00001182 
               calls direct
               CSTACK = 00000000 ( 00000009 )
               RSTACK = 00000000 ( 00000002 )
    -------------------------------------------------------------------------
CODE
  Relative segment, address: CODE 000011BE - 000011C1 (0x4 bytes), align: 1
  Segment part 38.            Intra module refs:   _PrintfSmall
                                                   _PutcharsSmall
                                                   pad
    -------------------------------------------------------------------------
CODE
  Relative segment, address: CODE 000011C2 - 00001327 (0x166 bytes), align: 1
  Segment part 39.            Intra module refs:   _PrintfSmall
           LOCAL                   ADDRESS         
           =====                   =======         
           _LitobSmall             000011C2 
               CSTACK = 00000000 ( 00000013 )
               RSTACK = 00000000 ( 00000004 )
    -------------------------------------------------------------------------
CODE
  Relative segment, address: CODE 00001328 - 00001335 (0xe bytes), align: 1
  Segment part 40.            Intra module refs:   _LitobSmall
    -------------------------------------------------------------------------
CODE
  Relative segment, address: CODE 00001336 - 0000136F (0x3a bytes), align: 1
  Segment part 41.            Intra module refs:   _PrintfSmall
                                                   _PutcharsSmall
           LOCAL                   ADDRESS         
           =====                   =======         
           _PutcharSmall           00001336 
               calls indirect
               CSTACK = 00000000 ( 00000002 )
               RSTACK = 00000000 ( 00000002 )
    -------------------------------------------------------------------------
CODE
  Relative segment, address: CODE 00001370 - 0000139D (0x2e bytes), align: 1
  Segment part 42.            Intra module refs:   Segment part 22
                                                   pad
           LOCAL                   ADDRESS         
           =====                   =======         
           _PutcharsSmall          00001370 
               calls direct
               CSTACK = 00000000 ( 00000008 )
               RSTACK = 00000000 ( 00000002 )
    -------------------------------------------------------------------------
NEAR_ID
  Relative segment, address: CODE 0000142F - 00001434 (0x6 bytes), align: 0
  Segment part 4.             Intra module refs:   Segment part 3
    -------------------------------------------------------------------------
NEAR_I
  Relative segment, address: DATA 000004AF - 000004B4 (0x6 bytes), align: 0
  Segment part 3.             Intra module refs:   _PrintfSmall

    -------------------------------------------------------------------------
  LIBRARY MODULE, NAME : ?xprout

  SEGMENTS IN THE MODULE
  ======================
CODE
  Relative segment, address: CODE 0000139E - 000013C1 (0x24 bytes), align: 1
  Segment part 3.
           ENTRY                   ADDRESS         REF BY
           =====                   =======         ======
           _Prout                  0000139E        printf (?printf)
               calls direct
               CSTACK = 00000000 ( 00000004 )
               RSTACK = 00000000 ( 00000002 )

    *************************************************************************

  DEFINED ABSOLUTE ENTRIES
  PROGRAM MODULE, NAME : ?FILLER_BYTES

  SEGMENTS IN THE MODULE
  ======================
INTVEC
  Common segment, address: CODE 00000000 - 0000009B (0x9c bytes), align: 0
  Segment part 1.
    -------------------------------------------------------------------------
?FILL1
  Relative segment, address: CODE 0000009C - 000000CB (0x30 bytes), align: 0
  Segment part 0.




                ****************************************
                *                                      *
                *            MODULE SUMMARY            *
                *                                      *
                ****************************************

Module                  CODE          DATA
------                  ----          ----
                    (Rel)  (Abs)  (Rel)  (Abs)
?C_STARTUP             36
?EPILOGUE_B_L09        40
?FILLER_BYTES          48
  + common            156
?L_EC_MUL_L03          64
?PROLOGUE_L09          32
?RESET
  + common              4
?S_EC_MUL_L02          16
?S_SHL_L02             12
?UL_DIVMOD_L03         70
?__dbg_break            2
?__exit                22
?__write              116
?_exit                  4
?exit                   4
?low_level_init         4
?memchr                32
?memset                18
?printf                32
?putchar               52
?segment_init         128
?strchr                20
?strlen                20
?xV_SWITCH_L06        156
?xprintfsmall       1 622             6
?xprout                36
decode              1 268            11      4
  + shared              7                    4
  + common            116
hal                    76                    3
main                  213      4     95
  + shared              7                    1
pal_board             152                   14
  + shared                                   1
pal_sio_hub            72
pal_uart              460            26      6
  + common            156
sio_handler            58
timer                 118             7      5
  + common             88
N/A (command line)                  592
N/A (alignment)
----------          -----      -    ---     --
Total:              5 017      4    737     38
  + common            156


                ****************************************
                *                                      *
                *      SEGMENTS IN ADDRESS ORDER       *
                *                                      *
                ****************************************


SEGMENT              SPACE    START ADDRESS   END ADDRESS     SIZE  TYPE  ALIGN
=======              =====    =============   ===========     ====  ====  =====
INTVEC               CODE          00000000 - 0000009B          9C   com    1
?FILL1               CODE          0000009C - 000000CB          30   rel    0
SWITCH               CODE          000000CC - 000000EB          20   rel    1
CODE                 CODE          000000EC - 000013C1        12D6   rel    1
INITTAB              CODE          000013C2 - 000013CF           E   rel    0
NEAR_ID              CODE          000013D0 - 00001434          65   rel    0
FAR_F                CODE          0001DFFC - 0001DFFF           4   rel    0
ABSOLUTE             DATA               0000001F                     rel    0
                     DATA               00000020                   
                     DATA               00000021                   
                     DATA          00000024 - 00000025           2 
                     DATA          0000002C - 0000002E           3 
                     DATA          00000035 - 00000037           3 
                     DATA          00000044 - 00000045           2 
                     DATA          00000047 - 00000047           1 
                     DATA          00000050 - 00000050           1 
                     DATA          00000054 - 00000054           1 
                     DATA          0000005F - 00000061           3 
                     DATA          00000066 - 00000066           1 
                     DATA          0000006E - 0000006F           2 
                     DATA          0000007A - 0000007C           3 
                     DATA          00000080 - 00000081           2 
                     DATA          00000084 - 00000087           4 
                     DATA          000000B1 - 000000B2           2 
                     DATA          000000B6 - 000000B6           1 
                     DATA          000000C8 - 000000CA           3 
                     DATA          000000CC - 000000CE           3 
CSTACK               DATA          00000200 - 000003FF         200   dse    0
RSTACK               DATA          00000400 - 0000044F          50   dse    0
NEAR_I               DATA          00000450 - 000004B4          65   rel    0
NEAR_Z               DATA          000004B5 - 000004E0          2C   rel    0

                ****************************************
                *                                      *
                *        END OF CROSS REFERENCE        *
                *                                      *
                ****************************************

 5 125 bytes of CODE memory (+  4 absolute, 48 range fill )
   737 bytes of DATA memory (+ 38 absolute  )

Errors: none
Warnings: none

