################################################################################
#                                                                              #
#      IAR Universal Linker V5.2.5.17                                          #
#                                                                              #
#           Link time     =  18/Dec/2012  13:02:31                             #
#           Target CPU    =  A90                                               #
#           List file     =  "D:\Firmware\my-project-hihack\trunk\ my-project- #
#                            hihack --username kaiser.ren@gmail.com\back_end\A #
#                            pplications\TAL_Examples\Performance_Test\IAR\Meg #
#                            a1281\Debug\List\Mega1281.map"                    #
#           Output file 1 =  "D:\Firmware\my-project-hihack\trunk\ my-project- #
#                            hihack --username kaiser.ren@gmail.com\back_end\A #
#                            pplications\TAL_Examples\Performance_Test\IAR\Meg #
#                            a1281\Debug\Exe\Mega1281.srec"                    #
#                            Format: motorola-s28                              #
#           Output file 2 =  "D:\Firmware\my-project-hihack\trunk\ my-project- #
#                            hihack --username kaiser.ren@gmail.com\back_end\A #
#                            pplications\TAL_Examples\Performance_Test\IAR\Meg #
#                            a1281\Debug\Exe\Mega1281.hex"                     #
#                            Format: intel-extended, variant: -Y2              #
#           Output file 3 =  "D:\Firmware\my-project-hihack\trunk\ my-project- #
#                            hihack --username kaiser.ren@gmail.com\back_end\A #
#                            pplications\TAL_Examples\Performance_Test\IAR\Meg #
#                            a1281\Debug\Exe\Mega1281.d90"                     #
#                            Format: debug                                     #
#                            UBROF version 10.0.6                              #
#                            Using library modules for C-SPY (-rt)             #
#           Command line  =  -Omotorola-s28=.srec                              #
#                            "D:\Firmware\my-project-hihack\trunk\ my-project- #
#                            hihack --username kaiser.ren@gmail.com\back_end\A #
#                            pplications\TAL_Examples\Performance_Test\IAR\Meg #
#                            a1281\Debug\Obj\decode.r90"                       #
#                            "D:\Firmware\my-project-hihack\trunk\ my-project- #
#                            hihack --username kaiser.ren@gmail.com\back_end\A #
#                            pplications\TAL_Examples\Performance_Test\IAR\Meg #
#                            a1281\Debug\Obj\encode.r90"                       #
#                            "D:\Firmware\my-project-hihack\trunk\ my-project- #
#                            hihack --username kaiser.ren@gmail.com\back_end\A #
#                            pplications\TAL_Examples\Performance_Test\IAR\Meg #
#                            a1281\Debug\Obj\hal.r90"                          #
#                            "D:\Firmware\my-project-hihack\trunk\ my-project- #
#                            hihack --username kaiser.ren@gmail.com\back_end\A #
#                            pplications\TAL_Examples\Performance_Test\IAR\Meg #
#                            a1281\Debug\Obj\main.r90"                         #
#                            "D:\Firmware\my-project-hihack\trunk\ my-project- #
#                            hihack --username kaiser.ren@gmail.com\back_end\A #
#                            pplications\TAL_Examples\Performance_Test\IAR\Meg #
#                            a1281\Debug\Obj\pal_board.r90"                    #
#                            "D:\Firmware\my-project-hihack\trunk\ my-project- #
#                            hihack --username kaiser.ren@gmail.com\back_end\A #
#                            pplications\TAL_Examples\Performance_Test\IAR\Meg #
#                            a1281\Debug\Obj\pal_sio_hub.r90"                  #
#                            "D:\Firmware\my-project-hihack\trunk\ my-project- #
#                            hihack --username kaiser.ren@gmail.com\back_end\A #
#                            pplications\TAL_Examples\Performance_Test\IAR\Meg #
#                            a1281\Debug\Obj\pal_uart.r90"                     #
#                            "D:\Firmware\my-project-hihack\trunk\ my-project- #
#                            hihack --username kaiser.ren@gmail.com\back_end\A #
#                            pplications\TAL_Examples\Performance_Test\IAR\Meg #
#                            a1281\Debug\Obj\pal_utils.r90"                    #
#                            "D:\Firmware\my-project-hihack\trunk\ my-project- #
#                            hihack --username kaiser.ren@gmail.com\back_end\A #
#                            pplications\TAL_Examples\Performance_Test\IAR\Meg #
#                            a1281\Debug\Obj\sio_handler.r90"                  #
#                            "D:\Firmware\my-project-hihack\trunk\ my-project- #
#                            hihack --username kaiser.ren@gmail.com\back_end\A #
#                            pplications\TAL_Examples\Performance_Test\IAR\Meg #
#                            a1281\Debug\Obj\timer.r90"                        #
#                            "D:\Firmware\my-project-hihack\trunk\ my-project- #
#                            hihack --username kaiser.ren@gmail.com\back_end\A #
#                            pplications\TAL_Examples\Performance_Test\IAR\Meg #
#                            a1281\Debug\Obj\write.r90"                        #
#                            -o                                                #
#                            "D:\Firmware\my-project-hihack\trunk\ my-project- #
#                            hihack --username kaiser.ren@gmail.com\back_end\A #
#                            pplications\TAL_Examples\Performance_Test\IAR\Meg #
#                            a1281\Debug\Exe\Mega1281.d90"                     #
#                            -z -l                                             #
#                            "D:\Firmware\my-project-hihack\trunk\ my-project- #
#                            hihack --username kaiser.ren@gmail.com\back_end\A #
#                            pplications\TAL_Examples\Performance_Test\IAR\Meg #
#                            a1281\Debug\List\Mega1281.map"                    #
#                            -xmsn                                             #
#                            "-ID:\Program Files\IAR Systems\Embedded Workbenc #
#                            h 6.0\avr\LIB\"                                   #
#                            -f                                                #
#                            "D:\Program Files\IAR Systems\Embedded Workbench  #
#                            6.0\avr\src\template\cfgm1281.xcl"                #
#                            (-D_..X_INTVEC_SIZE=CC -D_..X_FLASH_NEND=FFFF     #
#                            -D_..X_FLASH_END=1FFFF -D_..X_SRAM_BASE=200       #
#                            -D_..X_SRAM_TBASE=0 -D_..X_SRAM_TSIZE=0           #
#                            -D_..X_SRAM_END=21FF -D_..X_EEPROM_END=FFF        #
#                            -D_..X_EEPROM_START=0) -D_..X_HEAP_SIZE=0         #
#                            -D_..X_TINY_HEAP_SIZE=0                           #
#                            -D_..X_NEAR_HEAP_SIZE=40 -D_..X_FAR_HEAP_SIZE=0   #
#                            -D_..X_HUGE_HEAP_SIZE=0 -D_..X_CSTACK_SIZE=200    #
#                            -D_..X_RSTACK_SIZE=50                             #
#                            -D_..X_FLASH_CODE_END=1FFFF -f                    #
#                            "D:\Program Files\IAR Systems\Embedded Workbench  #
#                            6.0\avr\src\template\cfg3soim.xcl"                #
#                            (-ca90 -w29                                       #
#                            -Z(CODE)INTVEC=0-(_..X_INTVEC_SIZE-1)             #
#                            -Z(CODE)TINY_F=_..X_FLASH_BASE-FF                 #
#                            -Z(CODE)NEAR_F=_..X_FLASH_BASE-_..X_FLASH_NEND    #
#                            -Z(CODE)SWITCH=_..X_FLASH_BASE-_..X_FLASH_NEND    #
#                            -Z(CODE)DIFUNCT=_..X_FLASH_BASE-_..X_FLASH_NEND   #
#                            -Z(CODE)CODE=_..X_FLASH_BASE-_..X_FLASH_END       #
#                            -P(CODE)FAR_F=[_..X_FLASH_BASE-_..X_FLASH_END]/10 #
#                            000                                               #
#                            -Z(CODE)INITTAB=_..X_FLASH_BASE-_..X_FLASH_END    #
#                            -Z(CODE)HUGE_F=_..X_FLASH_BASE-_..X_FLASH_END     #
#                            -Z(CODE)TINY_ID=_..X_FLASH_BASE-_..X_FLASH_END    #
#                            -Z(CODE)NEAR_ID=_..X_FLASH_BASE-_..X_FLASH_END    #
#                            -Z(CODE)CHECKSUM#_..X_FLASH_END                   #
#                            -Z(DATA)TINY_I,TINY_Z,TINY_N=_..X_SRAM_TBASE:+_.. #
#                            X_SRAM_TSIZE                                      #
#                            -Z(DATA)CSTACK+_..X_CSTACK_SIZE=_..X_CSTACK_BASE- #
#                            _..X_CSTACK_END                                   #
#                            -Z(DATA)HEAP+_..X_HEAP_SIZE=_..X_SRAM_BASE-_..X_S #
#                            RAM_END                                           #
#                            -Z(DATA)IOSTREAM_N#_..X_SRAM_BASE-_..X_SRAM_END   #
#                            -Z(DATA)NEAR_HEAP+_..X_NEAR_HEAP_SIZE=_..X_SRAM_B #
#                            ASE-_..X_SRAM_END                                 #
#                            -Z(DATA)RSTACK+_..X_RSTACK_SIZE=_..X_RSTACK_BASE- #
#                            _..X_RSTACK_END                                   #
#                            -Z(DATA)NEAR_I,NEAR_Z,NEAR_N=_..X_SRAM_BASE-_..X_ #
#                            SRAM_END                                          #
#                            -Z(XDATA)EEPROM_I,EEPROM_N=_..X_EEPROM_START-_..X #
#                            _EEPROM_END)                                      #
#                            -D_..X_FLASH_BASE=_..X_INTVEC_SIZE -H1895         #
#                            -h(CODE)0-(_..X_INTVEC_SIZE-1)                    #
#                            -D_..X_EXT_SRAM_BASE=_..X_SRAM_END                #
#                            -D_..X_EXT_SRAM_SIZE=0                            #
#                            -D_..X_EXT_ROM_BASE=_..X_SRAM_END                 #
#                            -D_..X_EXT_ROM_SIZE=0                             #
#                            -D_..X_EXT_NV_BASE=_..X_SRAM_END                  #
#                            -D_..X_EXT_NV_SIZE=0                              #
#                            -D_..X_CSTACK_BASE=_..X_SRAM_BASE                 #
#                            -D_..X_CSTACK_END=_..X_SRAM_END                   #
#                            -D_..X_RSTACK_BASE=_..X_SRAM_BASE                 #
#                            -D_..X_RSTACK_END=_..X_SRAM_END -rt               #
#                            "-Ointel-extended,2=D:\Firmware\my-project-hihack #
#                            \trunk\ my-project-hihack --username kaiser.ren@g #
#                            mail.com\back_end\Applications\TAL_Examples\Perfo #
#                            rmance_Test\IAR\Mega1281\Debug\Exe\Mega1281.hex"  #
#                            -s __program_start                                #
#                            "D:\Program Files\IAR Systems\Embedded Workbench  #
#                            6.0\avr\LIB\DLIB\dlAVR-3s-ec_mul-n.r90"           #
#                            -e_PrintfSmall=_Printf                            #
#                                                                              #
#                           Copyright (C) 1987-2011 IAR Systems AB.            #
################################################################################





                ****************************************
                *                                      *
                *           CROSS REFERENCE            *
                *                                      *
                ****************************************

       Program entry at : CODE      00000000  Relocatable, from module : ?RESET




                ****************************************
                *                                      *
                *            RUNTIME MODEL             *
                *                                      *
                ****************************************

  R10                        = REG
  R11                        = REG
  R12                        = REG
  R13                        = REG
  R14                        = REG
  R4                         = REG
  R5                         = REG
  R6                         = REG
  R7                         = REG
  R8                         = REG
  R9                         = REG
  __64bit_doubles            = disabled
  __Heap_Handler             = Basic
  __SystemLibrary            = DLib
  __cpu                      = 3
  __cpu_name                 = ATmega1281
  __dlib_file_descriptor     = 0
  __dlib_full_locale_support = 0
  __enhanced_core            = enabled
  __has_elpm                 = true
  __memory_model             = 2
  __no_rampd                 = enabled
  __rt_version               = 3
  __tiny_avr                 = false

                ****************************************
                *                                      *
                *    AUTOMATIC SYMBOL REDIRECTIONS     *
                *                                      *
                ****************************************

                  There are no automatic symbol redirections.



                ****************************************
                *                                      *
                *              MODULE MAP              *
                *                                      *
                ****************************************


  DEFINED ABSOLUTE ENTRIES
  PROGRAM MODULE, NAME : ?ABS_ENTRY_MOD

Absolute parts
           ENTRY                   ADDRESS         REF BY
           =====                   =======         ======
           _..X_RSTACK_END         000021FF 
           _..X_RSTACK_BASE        00000200 
           _..X_CSTACK_END         000021FF 
           _..X_CSTACK_BASE        00000200 
           _..X_EXT_NV_SIZE        00000000 
           _..X_EXT_NV_BASE        000021FF 
           _..X_EXT_ROM_SIZE       00000000 
           _..X_EXT_ROM_BASE       000021FF 
           _..X_EXT_SRAM_SIZE      00000000 
           _..X_EXT_SRAM_BASE      000021FF 
           _..X_FLASH_BASE         000000CC 
           _..X_FLASH_CODE_END     0001FFFF 
           _..X_RSTACK_SIZE        00000050 
           _..X_CSTACK_SIZE        00000200 
           _..X_HUGE_HEAP_SIZE     00000000 
           _..X_FAR_HEAP_SIZE      00000000 
           _..X_NEAR_HEAP_SIZE     00000040 
           _..X_TINY_HEAP_SIZE     00000000 
           _..X_HEAP_SIZE          00000000 
           _..X_EEPROM_START       00000000 
           _..X_EEPROM_END         00000FFF 
           _..X_SRAM_END           000021FF 
           _..X_SRAM_TSIZE         00000000 
           _..X_SRAM_TBASE         00000000 
           _..X_SRAM_BASE          00000200 
           _..X_FLASH_END          0001FFFF 
           _..X_FLASH_NEND         0000FFFF 
           _..X_INTVEC_SIZE        000000CC 
    *************************************************************************

  FILE NAME : D:\Firmware\my-project-hihack\trunk\ my-project-hihack --username kaiser.ren@gmail.com\back_end\Applications\TAL_Examples\Performance_Test\IAR\Mega1281\Debug\Obj\decode.r90
  PROGRAM MODULE, NAME : decode

  SEGMENTS IN THE MODULE
  ======================
ABSOLUTE
  Relative segment, address: DATA 00000084 - 00000085 (0x2 bytes), align: 0
  Segment part 1. ROOT.       Intra module refs:   handler_ANALOG_COMP_vect
           ENTRY                   ADDRESS         REF BY
           =====                   =======         ======
           _A_TCNT1                00000084 
           LOCAL                   ADDRESS         
           =====                   =======         
           TCNT1                   00000084 
           TCNT1H                  00000085 
           TCNT1L                  00000084 
    -------------------------------------------------------------------------
ABSOLUTE
  Relative segment, address: DATA 00000081 - 00000081 (0x1 bytes), align: 0
  Segment part 2. ROOT.       Intra module refs:   ac_init
           ENTRY                   ADDRESS         REF BY
           =====                   =======         ======
           _A_TCCR1B               00000081 
           LOCAL                   ADDRESS         
           =====                   =======         
           TCCR1B                  00000081 
    -------------------------------------------------------------------------
ABSOLUTE
  Relative segment, address: DATA 0000007C - 0000007C (0x1 bytes), align: 0
  Segment part 3. ROOT.       Intra module refs:   ac_init
           ENTRY                   ADDRESS         REF BY
           =====                   =======         ======
           _A_ADMUX                0000007C 
           LOCAL                   ADDRESS         
           =====                   =======         
           ADMUX                   0000007C 
    -------------------------------------------------------------------------
ABSOLUTE
  Relative segment, address: DATA 0000007B - 0000007B (0x1 bytes), align: 0
  Segment part 4. ROOT.       Intra module refs:   ac_init
           ENTRY                   ADDRESS         REF BY
           =====                   =======         ======
           _A_ADCSRB               0000007B 
           LOCAL                   ADDRESS         
           =====                   =======         
           ADCSRB                  0000007B 
    -------------------------------------------------------------------------
ABSOLUTE
  Relative segment, address: DATA 0000007A - 0000007A (0x1 bytes), align: 0
  Segment part 5. ROOT.       Intra module refs:   ac_init
           ENTRY                   ADDRESS         REF BY
           =====                   =======         ======
           _A_ADCSRA               0000007A 
           LOCAL                   ADDRESS         
           =====                   =======         
           ADCSRA                  0000007A 
    -------------------------------------------------------------------------
ABSOLUTE
  Relative segment, address: DATA 0000005F - 0000005F (0x1 bytes), align: 0
  Segment part 6. ROOT.       Intra module refs:   handler_ANALOG_COMP_vect
                                                   mcu_clock_init (hal)
           ENTRY                   ADDRESS         REF BY
           =====                   =======         ======
           _A_SREG                 0000005F 
           LOCAL                   ADDRESS         
           =====                   =======         
           SREG                    0000005F 
    -------------------------------------------------------------------------
ABSOLUTE
  Relative segment, address: DATA 00000050 - 00000050 (0x1 bytes), align: 0
  Segment part 7. ROOT.       Intra module refs:   ac_init
                                                   handler_ANALOG_COMP_vect
           ENTRY                   ADDRESS         REF BY
           =====                   =======         ======
           _A_ACSR                 00000050 
           LOCAL                   ADDRESS         
           =====                   =======         
           ACSR                    00000050 
    -------------------------------------------------------------------------
NEAR_Z
  Relative segment, address: DATA 000004B5 - 000004BA (0x6 bytes), align: 0
  Segment part 16.            Intra module refs:   ac_init
                                                   cal_interval
                                                   dec_update_tmr
                                                   decode_machine
                                                   handler_ANALOG_COMP_vect
           ENTRY                   ADDRESS         REF BY
           =====                   =======         ======
           dec                     000004B5 
    -------------------------------------------------------------------------
NEAR_Z
  Relative segment, address: DATA 000004BB - 000004BC (0x2 bytes), align: 0
  Segment part 18.            Intra module refs:   cal_interval
                                                   dec_update_tmr
                                                   handler_ANALOG_COMP_vect
           ENTRY                   ADDRESS         REF BY
           =====                   =======         ======
           cur_stamp               000004BB 
    -------------------------------------------------------------------------
NEAR_Z
  Relative segment, address: DATA 000004BD - 000004BD (0x1 bytes), align: 0
  Segment part 19.            Intra module refs:   cal_interval
                                                   dec_update_tmr
                                                   handler_ANALOG_COMP_vect
           ENTRY                   ADDRESS         REF BY
           =====                   =======         ======
           cur_ovfw                000004BD 
    -------------------------------------------------------------------------
NEAR_Z
  Relative segment, address: DATA 000004BE - 000004BE (0x1 bytes), align: 0
  Segment part 20.            Intra module refs:   handler_ANALOG_COMP_vect
                                                   handler_TIMER1_OVF_vect
           ENTRY                   ADDRESS         REF BY
           =====                   =======         ======
           ovfw                    000004BE        main (main)
    -------------------------------------------------------------------------
NEAR_Z
  Relative segment, address: DATA 000004BF - 000004BF (0x1 bytes), align: 0
  Segment part 21.            Intra module refs:   handler_ANALOG_COMP_vect
           ENTRY                   ADDRESS         REF BY
           =====                   =======         ======
           acc_occur               000004BF        main (main)
    -------------------------------------------------------------------------
NEAR_Z
  Relative segment, address: DATA 000004C0 - 000004C0 (0x1 bytes), align: 0
  Segment part 22.            Intra module refs:   decode_machine
           LOCAL                   ADDRESS         
           =====                   =======         
           odd                     000004C0 
    -------------------------------------------------------------------------
CODE
  Relative segment, address: CODE 00000114 - 00000195 (0x82 bytes), align: 1
  Segment part 23.            Intra module refs:   handler_ANALOG_COMP_vect::??INTVEC 112
           ENTRY                   ADDRESS         REF BY
           =====                   =======         ======
           handler_ANALOG_COMP_vect
                                   00000114 
               interrupt function
               calls direct
               CSTACK = 00000000 ( 00000011 )
               RSTACK = 00000000 ( 00000002 )
    -------------------------------------------------------------------------
CODE
  Relative segment, address: CODE 00000196 - 000001B5 (0x20 bytes), align: 1
  Segment part 24.            Intra module refs:   handler_TIMER1_OVF_vect::??INTVEC 80
           ENTRY                   ADDRESS         REF BY
           =====                   =======         ======
           handler_TIMER1_OVF_vect
                                   00000196 
               interrupt function
               CSTACK = 00000000 ( 00000003 )
               RSTACK = 00000000 ( 00000002 )
    -------------------------------------------------------------------------
CODE
  Relative segment, address: CODE 000001B6 - 000001F7 (0x42 bytes), align: 1
  Segment part 25.
           ENTRY                   ADDRESS         REF BY
           =====                   =======         ======
           ac_init                 000001B6        hal_init (hal)
               calls direct
               RSTACK = 00000000 ( 00000002 )
    -------------------------------------------------------------------------
CODE
  Relative segment, address: CODE 000001F8 - 00000265 (0x6e bytes), align: 1
  Segment part 26.            Intra module refs:   decode_machine
           ENTRY                   ADDRESS         REF BY
           =====                   =======         ======
           cal_interval            000001F8 
               calls direct
               CSTACK = 00000000 ( 00000002 )
               RSTACK = 00000000 ( 00000002 )
    -------------------------------------------------------------------------
CODE
  Relative segment, address: CODE 00000266 - 0000027F (0x1a bytes), align: 1
  Segment part 27.            Intra module refs:   cal_interval
                                                   decode_machine
           LOCAL                   ADDRESS         
           =====                   =======         
           dec_update_tmr          00000266 
               RSTACK = 00000000 ( 00000002 )
    -------------------------------------------------------------------------
CODE
  Relative segment, address: CODE 00000280 - 000006DF (0x460 bytes), align: 1
  Segment part 28.            Intra module refs:   Segment part 29
           ENTRY                   ADDRESS         REF BY
           =====                   =======         ======
           decode_machine          00000280        main (main)
               calls direct
               CSTACK = 00000000 ( 00000002 )
               RSTACK = 00000000 ( 00000004 )
    -------------------------------------------------------------------------
ABSOLUTE
  Relative segment, address: DATA 0000001F, align: 0
  Segment part 8. ROOT.
           ENTRY                   ADDRESS         REF BY
           =====                   =======         ======
           __?EECR                 0000001F 
    -------------------------------------------------------------------------
ABSOLUTE
  Relative segment, address: DATA 00000020, align: 0
  Segment part 9. ROOT.
           ENTRY                   ADDRESS         REF BY
           =====                   =======         ======
           __?EEDR                 00000020 
    -------------------------------------------------------------------------
ABSOLUTE
  Relative segment, address: DATA 00000021, align: 0
  Segment part 10. ROOT.
           ENTRY                   ADDRESS         REF BY
           =====                   =======         ======
           __?EEARL                00000021 
    -------------------------------------------------------------------------
ABSOLUTE
  Relative segment, address: DATA 00000022, align: 0
  Segment part 11. ROOT.
           ENTRY                   ADDRESS         REF BY
           =====                   =======         ======
           __?EEARH                00000022 
    -------------------------------------------------------------------------
INTVEC
  Common segment, address: CODE 00000000 - 00000053 (0x54 bytes), align: 1
  Segment part 12. ROOT.
           ENTRY                   ADDRESS         REF BY
           =====                   =======         ======
           handler_TIMER1_OVF_vect::??INTVEC 80
                                   00000050 
    -------------------------------------------------------------------------
INTVEC
  Common segment, address: CODE 00000000 - 00000073 (0x74 bytes), align: 1
  Segment part 13. ROOT.
           ENTRY                   ADDRESS         REF BY
           =====                   =======         ======
           handler_ANALOG_COMP_vect::??INTVEC 112
                                   00000070 
    -------------------------------------------------------------------------
INITTAB
  Relative segment, address: CODE 000017FE - 00001804 (0x7 bytes), align: 0
  Segment part 17.            Intra module refs:   ac_cap_para (timer)
                                                   acc_occur
                                                   cur_ovfw
                                                   cur_stamp
                                                   dec
                                                   enc (encode)
                                                   odd
                                                   odd (encode)
                                                   ovfw
                                                   ticker (encode)
                                                   tmr0_occur (encode)
                                                   uart_1_buffer (pal_uart)
           ENTRY                   ADDRESS         REF BY
           =====                   =======         ======
           ?<Segment init: NEAR_Z>
                                   000017FE 
    -------------------------------------------------------------------------
SWITCH
  Relative segment, address: CODE 000000CC - 000000EF (0x24 bytes), align: 1
  Segment part 29.            Intra module refs:   decode_machine

    *************************************************************************

  FILE NAME : D:\Firmware\my-project-hihack\trunk\ my-project-hihack --username kaiser.ren@gmail.com\back_end\Applications\TAL_Examples\Performance_Test\IAR\Mega1281\Debug\Obj\encode.r90
  PROGRAM MODULE, NAME : encode

  SEGMENTS IN THE MODULE
  ======================
ABSOLUTE
  Relative segment, address: DATA 0000006E - 0000006E (0x1 bytes), align: 0
  Segment part 1. ROOT.       Intra module refs:   pwm_init (timer)
                                                   tmr0_init
           ENTRY                   ADDRESS         REF BY
           =====                   =======         ======
           _A_TIMSK0               0000006E 
           LOCAL                   ADDRESS         
           =====                   =======         
           TIMSK0                  0000006E 
    -------------------------------------------------------------------------
ABSOLUTE
  Relative segment, address: DATA 00000047 - 00000047 (0x1 bytes), align: 0
  Segment part 2. ROOT.       Intra module refs:   tmr0_init
           ENTRY                   ADDRESS         REF BY
           =====                   =======         ======
           _A_OCR0A                00000047 
           LOCAL                   ADDRESS         
           =====                   =======         
           OCR0A                   00000047 
    -------------------------------------------------------------------------
ABSOLUTE
  Relative segment, address: DATA 00000045 - 00000045 (0x1 bytes), align: 0
  Segment part 3. ROOT.       Intra module refs:   tmr0_init
           ENTRY                   ADDRESS         REF BY
           =====                   =======         ======
           _A_TCCR0B               00000045 
           LOCAL                   ADDRESS         
           =====                   =======         
           TCCR0B                  00000045 
    -------------------------------------------------------------------------
ABSOLUTE
  Relative segment, address: DATA 00000044 - 00000044 (0x1 bytes), align: 0
  Segment part 4. ROOT.       Intra module refs:   pwm_init (timer)
                                                   tmr0_init
           ENTRY                   ADDRESS         REF BY
           =====                   =======         ======
           _A_TCCR0A               00000044 
           LOCAL                   ADDRESS         
           =====                   =======         
           TCCR0A                  00000044 
    -------------------------------------------------------------------------
ABSOLUTE
  Relative segment, address: DATA 00000035 - 00000035 (0x1 bytes), align: 0
  Segment part 5. ROOT.       Intra module refs:   pwm_init (timer)
                                                   tmr0_init
           ENTRY                   ADDRESS         REF BY
           =====                   =======         ======
           _A_TIFR0                00000035 
           LOCAL                   ADDRESS         
           =====                   =======         
           TIFR0                   00000035 
    -------------------------------------------------------------------------
ABSOLUTE
  Relative segment, address: DATA 00000031 - 00000031 (0x1 bytes), align: 0
  Segment part 6. ROOT.       Intra module refs:   handler_TIMER0_COMPA_vect
           ENTRY                   ADDRESS         REF BY
           =====                   =======         ======
           _A_PORTF                00000031 
           LOCAL                   ADDRESS         
           =====                   =======         
           PORTF                   00000031 
    -------------------------------------------------------------------------
ABSOLUTE
  Relative segment, address: DATA 00000030 - 00000030 (0x1 bytes), align: 0
  Segment part 7. ROOT.       Intra module refs:   tmr0_init
           ENTRY                   ADDRESS         REF BY
           =====                   =======         ======
           _A_DDRF                 00000030 
           LOCAL                   ADDRESS         
           =====                   =======         
           DDRF                    00000030 
    -------------------------------------------------------------------------
NEAR_Z
  Relative segment, address: DATA 000004C1 - 000004C5 (0x5 bytes), align: 0
  Segment part 15.            Intra module refs:   encode_machine
                                                   findParam
                                                   handler_TIMER0_COMPA_vect
                                                   tmr0_init
           ENTRY                   ADDRESS         REF BY
           =====                   =======         ======
           enc                     000004C1 
    -------------------------------------------------------------------------
NEAR_Z
  Relative segment, address: DATA 000004C6 - 000004C6 (0x1 bytes), align: 0
  Segment part 17.            Intra module refs:   handler_TIMER0_COMPA_vect
           ENTRY                   ADDRESS         REF BY
           =====                   =======         ======
           tmr0_occur              000004C6        main (main)
    -------------------------------------------------------------------------
NEAR_Z
  Relative segment, address: DATA 000004C7 - 000004C7 (0x1 bytes), align: 0
  Segment part 18.            Intra module refs:   encode_machine
                                                   findParam
                                                   handler_TIMER0_COMPA_vect
           ENTRY                   ADDRESS         REF BY
           =====                   =======         ======
           ticker                  000004C7 
    -------------------------------------------------------------------------
NEAR_Z
  Relative segment, address: DATA 000004C8 - 000004C8 (0x1 bytes), align: 0
  Segment part 19.            Intra module refs:   encode_machine
                                                   findParam
           LOCAL                   ADDRESS         
           =====                   =======         
           odd                     000004C8 
    -------------------------------------------------------------------------
CODE
  Relative segment, address: CODE 000006E0 - 00000713 (0x34 bytes), align: 1
  Segment part 20.            Intra module refs:   handler_TIMER0_COMPA_vect::??INTVEC 84
           ENTRY                   ADDRESS         REF BY
           =====                   =======         ======
           handler_TIMER0_COMPA_vect
                                   000006E0 
               interrupt function
               CSTACK = 00000000 ( 00000003 )
               RSTACK = 00000000 ( 00000002 )
    -------------------------------------------------------------------------
CODE
  Relative segment, address: CODE 00000714 - 0000073D (0x2a bytes), align: 1
  Segment part 21.
           ENTRY                   ADDRESS         REF BY
           =====                   =======         ======
           tmr0_init               00000714        main (main)
               calls direct
               RSTACK = 00000000 ( 00000002 )
    -------------------------------------------------------------------------
CODE
  Relative segment, address: CODE 0000073E - 000007AD (0x70 bytes), align: 1
  Segment part 22.            Intra module refs:   encode_machine
           ENTRY                   ADDRESS         REF BY
           =====                   =======         ======
           findParam               0000073E 
               CSTACK = 00000000 ( 00000002 )
               RSTACK = 00000000 ( 00000004 )
    -------------------------------------------------------------------------
CODE
  Relative segment, address: CODE 000007AE - 0000094B (0x19e bytes), align: 1
  Segment part 23.            Intra module refs:   Segment part 24
           ENTRY                   ADDRESS         REF BY
           =====                   =======         ======
           encode_machine          000007AE        main (main)
               calls direct
               CSTACK = 00000000 ( 00000002 )
               RSTACK = 00000000 ( 00000004 )
    -------------------------------------------------------------------------
INTVEC
  Common segment, address: CODE 00000000 - 00000057 (0x58 bytes), align: 1
  Segment part 12. ROOT.
           ENTRY                   ADDRESS         REF BY
           =====                   =======         ======
           handler_TIMER0_COMPA_vect::??INTVEC 84
                                   00000054 
    -------------------------------------------------------------------------
SWITCH
  Relative segment, address: CODE 000000F0 - 00000113 (0x24 bytes), align: 1
  Segment part 24.            Intra module refs:   encode_machine

    *************************************************************************

  FILE NAME : D:\Firmware\my-project-hihack\trunk\ my-project-hihack --username kaiser.ren@gmail.com\back_end\Applications\TAL_Examples\Performance_Test\IAR\Mega1281\Debug\Obj\hal.r90
  PROGRAM MODULE, NAME : hal

  SEGMENTS IN THE MODULE
  ======================
ABSOLUTE
  Relative segment, address: DATA 00000061 - 00000061 (0x1 bytes), align: 0
  Segment part 1. ROOT.       Intra module refs:   mcu_clock_init
           ENTRY                   ADDRESS         REF BY
           =====                   =======         ======
           _A_CLKPR                00000061 
           LOCAL                   ADDRESS         
           =====                   =======         
           CLKPR                   00000061 
    -------------------------------------------------------------------------
ABSOLUTE
  Relative segment, address: DATA 00000060 - 00000060 (0x1 bytes), align: 0
  Segment part 2. ROOT.       Intra module refs:   wdt_init
           ENTRY                   ADDRESS         REF BY
           =====                   =======         ======
           _A_WDTCSR               00000060 
           LOCAL                   ADDRESS         
           =====                   =======         
           WDTCSR                  00000060 
    -------------------------------------------------------------------------
ABSOLUTE
  Relative segment, address: DATA 00000054 - 00000054 (0x1 bytes), align: 0
  Segment part 4. ROOT.       Intra module refs:   wdt_init
           ENTRY                   ADDRESS         REF BY
           =====                   =======         ======
           _A_MCUSR                00000054 
           LOCAL                   ADDRESS         
           =====                   =======         
           MCUSR                   00000054 
    -------------------------------------------------------------------------
CODE
  Relative segment, address: CODE 0000094C - 0000094F (0x4 bytes), align: 1
  Segment part 11.            Intra module refs:   hal_init
           LOCAL                   ADDRESS         
           =====                   =======         
           pal_global_irq_enable   0000094C 
               RSTACK = 00000000 ( 00000002 )
    -------------------------------------------------------------------------
CODE
  Relative segment, address: CODE 00000950 - 00000963 (0x14 bytes), align: 1
  Segment part 12.            Intra module refs:   hal_init
           LOCAL                   ADDRESS         
           =====                   =======         
           mcu_clock_init          00000950 
               RSTACK = 00000000 ( 00000002 )
    -------------------------------------------------------------------------
CODE
  Relative segment, address: CODE 00000964 - 0000097D (0x1a bytes), align: 1
  Segment part 13.            Intra module refs:   hal_init
           LOCAL                   ADDRESS         
           =====                   =======         
           wdt_init                00000964 
               RSTACK = 00000000 ( 00000002 )
    -------------------------------------------------------------------------
CODE
  Relative segment, address: CODE 0000097E - 00000997 (0x1a bytes), align: 1
  Segment part 14.
           ENTRY                   ADDRESS         REF BY
           =====                   =======         ======
           hal_init                0000097E        main (main)
               calls direct
               RSTACK = 00000000 ( 00000002 )

    *************************************************************************

  FILE NAME : D:\Firmware\my-project-hihack\trunk\ my-project-hihack --username kaiser.ren@gmail.com\back_end\Applications\TAL_Examples\Performance_Test\IAR\Mega1281\Debug\Obj\main.r90
  PROGRAM MODULE, NAME : main

  SEGMENTS IN THE MODULE
  ======================
ABSOLUTE
  Relative segment, address: DATA 00000036 - 00000036 (0x1 bytes), align: 0
  Segment part 1. ROOT.       Intra module refs:   main
           ENTRY                   ADDRESS         REF BY
           =====                   =======         ======
           _A_TIFR1                00000036 
           LOCAL                   ADDRESS         
           =====                   =======         
           TIFR1                   00000036 
    -------------------------------------------------------------------------
FAR_F
  Relative segment, address: CODE 0001DFFC - 0001DFFF (0x4 bytes), align: 0
  Segment part 2. ROOT.
           ENTRY                   ADDRESS         REF BY
           =====                   =======         ======
           Bf_Appflag              0001DFFC 
    -------------------------------------------------------------------------
CODE
  Relative segment, address: CODE 00000998 - 00000A23 (0x8c bytes), align: 1
  Segment part 16.
           ENTRY                   ADDRESS         REF BY
           =====                   =======         ======
           main                    00000998        ?cstartup_call_main (?C_STARTUP)
               calls direct
               CSTACK = 00000000 ( 00000004 )
               RSTACK = 00000000 ( 00000002 )
    -------------------------------------------------------------------------
NEAR_ID
  Relative segment, address: CODE 0000180C - 00001835 (0x2a bytes), align: 0
  Segment part 10.            Intra module refs:   Segment part 9
    -------------------------------------------------------------------------
INITTAB
  Relative segment, address: CODE 00001805 - 0000180B (0x7 bytes), align: 0
  Segment part 11.            Intra module refs:   Segment part 12
                                                   Segment part 14
                                                   Segment part 3 (?xprintfsmall)
                                                   Segment part 9
           ENTRY                   ADDRESS         REF BY
           =====                   =======         ======
           ?<Segment init: NEAR_I>
                                   00001805 
    -------------------------------------------------------------------------
NEAR_ID
  Relative segment, address: CODE 00001836 - 0000185A (0x25 bytes), align: 0
  Segment part 13.            Intra module refs:   Segment part 12
    -------------------------------------------------------------------------
NEAR_ID
  Relative segment, address: CODE 0000185B - 0000186A (0x10 bytes), align: 0
  Segment part 15.            Intra module refs:   Segment part 14
    -------------------------------------------------------------------------
NEAR_I
  Relative segment, address: DATA 00000450 - 00000479 (0x2a bytes), align: 0
  Segment part 9.             Intra module refs:   main
    -------------------------------------------------------------------------
NEAR_I
  Relative segment, address: DATA 0000047A - 0000049E (0x25 bytes), align: 0
  Segment part 12.            Intra module refs:   main
    -------------------------------------------------------------------------
NEAR_I
  Relative segment, address: DATA 0000049F - 000004AE (0x10 bytes), align: 0
  Segment part 14.            Intra module refs:   main

    *************************************************************************

  FILE NAME : D:\Firmware\my-project-hihack\trunk\ my-project-hihack --username kaiser.ren@gmail.com\back_end\Applications\TAL_Examples\Performance_Test\IAR\Mega1281\Debug\Obj\pal_board.r90
  PROGRAM MODULE, NAME : pal_board

  SEGMENTS IN THE MODULE
  ======================
ABSOLUTE
  Relative segment, address: DATA 000000B6 - 000000B6 (0x1 bytes), align: 0
  Segment part 1. ROOT.
           ENTRY                   ADDRESS         REF BY
           =====                   =======         ======
           _A_ASSR                 000000B6 
           LOCAL                   ADDRESS         
           =====                   =======         
           ASSR                    000000B6 
    -------------------------------------------------------------------------
ABSOLUTE
  Relative segment, address: DATA 000000B2 - 000000B2 (0x1 bytes), align: 0
  Segment part 2. ROOT.
           ENTRY                   ADDRESS         REF BY
           =====                   =======         ======
           _A_TCNT2                000000B2 
           LOCAL                   ADDRESS         
           =====                   =======         
           TCNT2                   000000B2 
    -------------------------------------------------------------------------
ABSOLUTE
  Relative segment, address: DATA 000000B1 - 000000B1 (0x1 bytes), align: 0
  Segment part 3. ROOT.
           ENTRY                   ADDRESS         REF BY
           =====                   =======         ======
           _A_TCCR2B               000000B1 
           LOCAL                   ADDRESS         
           =====                   =======         
           TCCR2B                  000000B1 
    -------------------------------------------------------------------------
ABSOLUTE
  Relative segment, address: DATA 00000086 - 00000087 (0x2 bytes), align: 0
  Segment part 4. ROOT.
           ENTRY                   ADDRESS         REF BY
           =====                   =======         ======
           _A_ICR1                 00000086 
           LOCAL                   ADDRESS         
           =====                   =======         
           ICR1                    00000086 
           ICR1H                   00000087 
           ICR1L                   00000086 
    -------------------------------------------------------------------------
ABSOLUTE
  Relative segment, address: DATA 00000080 - 00000080 (0x1 bytes), align: 0
  Segment part 7. ROOT.
           ENTRY                   ADDRESS         REF BY
           =====                   =======         ======
           _A_TCCR1A               00000080 
           LOCAL                   ADDRESS         
           =====                   =======         
           TCCR1A                  00000080 
    -------------------------------------------------------------------------
ABSOLUTE
  Relative segment, address: DATA 0000006F - 0000006F (0x1 bytes), align: 0
  Segment part 8. ROOT.
           ENTRY                   ADDRESS         REF BY
           =====                   =======         ======
           _A_TIMSK1               0000006F 
           LOCAL                   ADDRESS         
           =====                   =======         
           TIMSK1                  0000006F 
    -------------------------------------------------------------------------
ABSOLUTE
  Relative segment, address: DATA 00000066 - 00000066 (0x1 bytes), align: 0
  Segment part 9. ROOT.
           ENTRY                   ADDRESS         REF BY
           =====                   =======         ======
           _A_OSCCAL               00000066 
           LOCAL                   ADDRESS         
           =====                   =======         
           OSCCAL                  00000066 
    -------------------------------------------------------------------------
ABSOLUTE
  Relative segment, address: DATA 00000037 - 00000037 (0x1 bytes), align: 0
  Segment part 11. ROOT.
           ENTRY                   ADDRESS         REF BY
           =====                   =======         ======
           _A_TIFR2                00000037 
           LOCAL                   ADDRESS         
           =====                   =======         
           TIFR2                   00000037 
    -------------------------------------------------------------------------
ABSOLUTE
  Relative segment, address: DATA 0000002E - 0000002E (0x1 bytes), align: 0
  Segment part 13. ROOT.
           ENTRY                   ADDRESS         REF BY
           =====                   =======         ======
           _A_PORTE                0000002E 
           LOCAL                   ADDRESS         
           =====                   =======         
           PORTE                   0000002E 
    -------------------------------------------------------------------------
ABSOLUTE
  Relative segment, address: DATA 0000002D - 0000002D (0x1 bytes), align: 0
  Segment part 14. ROOT.
           ENTRY                   ADDRESS         REF BY
           =====                   =======         ======
           _A_DDRE                 0000002D 
           LOCAL                   ADDRESS         
           =====                   =======         
           DDRE                    0000002D 
    -------------------------------------------------------------------------
ABSOLUTE
  Relative segment, address: DATA 0000002C - 0000002C (0x1 bytes), align: 0
  Segment part 15. ROOT.
           ENTRY                   ADDRESS         REF BY
           =====                   =======         ======
           _A_PINE                 0000002C 
           LOCAL                   ADDRESS         
           =====                   =======         
           PINE                    0000002C 
    -------------------------------------------------------------------------
ABSOLUTE
  Relative segment, address: DATA 00000025 - 00000025 (0x1 bytes), align: 0
  Segment part 16. ROOT.      Intra module refs:   pal_led
                                                   pal_led_init
           ENTRY                   ADDRESS         REF BY
           =====                   =======         ======
           _A_PORTB                00000025 
           LOCAL                   ADDRESS         
           =====                   =======         
           PORTB                   00000025 
    -------------------------------------------------------------------------
ABSOLUTE
  Relative segment, address: DATA 00000024 - 00000024 (0x1 bytes), align: 0
  Segment part 17. ROOT.      Intra module refs:   pal_led_init
                                                   pwm_init (timer)
           ENTRY                   ADDRESS         REF BY
           =====                   =======         ======
           _A_DDRB                 00000024 
           LOCAL                   ADDRESS         
           =====                   =======         
           DDRB                    00000024 
    -------------------------------------------------------------------------
ABSOLUTE
  Relative segment, address: DATA 00000021 - 00000021 (0x1 bytes), align: 0
  Segment part 18. ROOT.
           ENTRY                   ADDRESS         REF BY
           =====                   =======         ======
           _A_DDRA                 00000021 
           LOCAL                   ADDRESS         
           =====                   =======         
           DDRA                    00000021 
    -------------------------------------------------------------------------
CODE
  Relative segment, address: CODE 00000A24 - 00000A31 (0xe bytes), align: 1
  Segment part 29.
           ENTRY                   ADDRESS         REF BY
           =====                   =======         ======
           pal_led_init            00000A24        hal_init (hal)
               RSTACK = 00000000 ( 00000002 )
    -------------------------------------------------------------------------
CODE
  Relative segment, address: CODE 00000A32 - 00000ABB (0x8a bytes), align: 1
  Segment part 30.
           ENTRY                   ADDRESS         REF BY
           =====                   =======         ======
           pal_led                 00000A32        handler_ANALOG_COMP_vect (decode)
                                                   main (main)
               RSTACK = 00000000 ( 00000004 )

    *************************************************************************

  FILE NAME : D:\Firmware\my-project-hihack\trunk\ my-project-hihack --username kaiser.ren@gmail.com\back_end\Applications\TAL_Examples\Performance_Test\IAR\Mega1281\Debug\Obj\pal_sio_hub.r90
  PROGRAM MODULE, NAME : pal_sio_hub

  SEGMENTS IN THE MODULE
  ======================
CODE
  Relative segment, address: CODE 00000ABC - 00000ADF (0x24 bytes), align: 1
  Segment part 7.
           ENTRY                   ADDRESS         REF BY
           =====                   =======         ======
           pal_sio_init            00000ABC        hal_init (hal)
               calls direct
               CSTACK = 00000000 ( 00000002 )
               RSTACK = 00000000 ( 00000002 )
    -------------------------------------------------------------------------
CODE
  Relative segment, address: CODE 00000AE0 - 00000B03 (0x24 bytes), align: 1
  Segment part 8.
           ENTRY                   ADDRESS         REF BY
           =====                   =======         ======
           pal_sio_tx              00000AE0        _sio_putchar (sio_handler)
               calls direct
               CSTACK = 00000000 ( 00000005 )
               RSTACK = 00000000 ( 00000002 )
    -------------------------------------------------------------------------
CODE
  Relative segment, address: CODE 00000B04 - 00000B27 (0x24 bytes), align: 1
  Segment part 9.
           ENTRY                   ADDRESS         REF BY
           =====                   =======         ======
           pal_sio_rx              00000B04        _sio_getchar_nowait (sio_handler)
               calls direct
               CSTACK = 00000000 ( 00000005 )
               RSTACK = 00000000 ( 00000002 )

    *************************************************************************

  FILE NAME : D:\Firmware\my-project-hihack\trunk\ my-project-hihack --username kaiser.ren@gmail.com\back_end\Applications\TAL_Examples\Performance_Test\IAR\Mega1281\Debug\Obj\pal_uart.r90
  PROGRAM MODULE, NAME : pal_uart

  SEGMENTS IN THE MODULE
  ======================
ABSOLUTE
  Relative segment, address: DATA 000000CE - 000000CE (0x1 bytes), align: 0
  Segment part 1. ROOT.       Intra module refs:   handler_USART1_RX_vect
                                                   handler_USART1_TX_vect
                                                   sio_uart_1_tx
           ENTRY                   ADDRESS         REF BY
           =====                   =======         ======
           _A_UDR1                 000000CE 
           LOCAL                   ADDRESS         
           =====                   =======         
           UDR1                    000000CE 
    -------------------------------------------------------------------------
ABSOLUTE
  Relative segment, address: DATA 000000CC - 000000CD (0x2 bytes), align: 0
  Segment part 2. ROOT.       Intra module refs:   sio_uart_1_init
           ENTRY                   ADDRESS         REF BY
           =====                   =======         ======
           _A_UBRR1                000000CC 
           LOCAL                   ADDRESS         
           =====                   =======         
           UBRR1                   000000CC 
           UBRR1H                  000000CD 
           UBRR1L                  000000CC 
    -------------------------------------------------------------------------
ABSOLUTE
  Relative segment, address: DATA 000000CA - 000000CA (0x1 bytes), align: 0
  Segment part 3. ROOT.       Intra module refs:   sio_uart_1_init
           ENTRY                   ADDRESS         REF BY
           =====                   =======         ======
           _A_UCSR1C               000000CA 
           LOCAL                   ADDRESS         
           =====                   =======         
           UCSR1C                  000000CA 
    -------------------------------------------------------------------------
ABSOLUTE
  Relative segment, address: DATA 000000C9 - 000000C9 (0x1 bytes), align: 0
  Segment part 4. ROOT.       Intra module refs:   sio_uart_1_init
                                                   sio_uart_1_rx
                                                   sio_uart_1_tx
           ENTRY                   ADDRESS         REF BY
           =====                   =======         ======
           _A_UCSR1B               000000C9 
           LOCAL                   ADDRESS         
           =====                   =======         
           UCSR1B                  000000C9 
    -------------------------------------------------------------------------
ABSOLUTE
  Relative segment, address: DATA 000000C8 - 000000C8 (0x1 bytes), align: 0
  Segment part 5. ROOT.       Intra module refs:   sio_uart_1_init
           ENTRY                   ADDRESS         REF BY
           =====                   =======         ======
           _A_UCSR1A               000000C8 
           LOCAL                   ADDRESS         
           =====                   =======         
           UCSR1A                  000000C8 
    -------------------------------------------------------------------------
NEAR_Z
  Relative segment, address: DATA 000004C9 - 000004E2 (0x1a bytes), align: 0
  Segment part 14.            Intra module refs:   handler_USART1_RX_vect
                                                   handler_USART1_TX_vect
                                                   sio_uart_1_rx
                                                   sio_uart_1_tx
           ENTRY                   ADDRESS         REF BY
           =====                   =======         ======
           uart_1_buffer           000004C9 
    -------------------------------------------------------------------------
CODE
  Relative segment, address: CODE 00000B28 - 00000B93 (0x6c bytes), align: 1
  Segment part 16.
           ENTRY                   ADDRESS         REF BY
           =====                   =======         ======
           sio_uart_1_init         00000B28        pal_sio_init (pal_sio_hub)
               CSTACK = 00000000 ( 00000008 )
               RSTACK = 00000000 ( 00000004 )
    -------------------------------------------------------------------------
CODE
  Relative segment, address: CODE 00000B94 - 00000C35 (0xa2 bytes), align: 1
  Segment part 17.
           ENTRY                   ADDRESS         REF BY
           =====                   =======         ======
           sio_uart_1_tx           00000B94        pal_sio_tx (pal_sio_hub)
               RSTACK = 00000000 ( 00000002 )
    -------------------------------------------------------------------------
CODE
  Relative segment, address: CODE 00000C36 - 00000CCD (0x98 bytes), align: 1
  Segment part 18.
           ENTRY                   ADDRESS         REF BY
           =====                   =======         ======
           sio_uart_1_rx           00000C36        pal_sio_rx (pal_sio_hub)
               RSTACK = 00000000 ( 00000002 )
    -------------------------------------------------------------------------
CODE
  Relative segment, address: CODE 00000CCE - 00000D29 (0x5c bytes), align: 1
  Segment part 19.            Intra module refs:   handler_USART1_RX_vect::??INTVEC 144
           ENTRY                   ADDRESS         REF BY
           =====                   =======         ======
           handler_USART1_RX_vect
                                   00000CCE 
               interrupt function
               CSTACK = 00000000 ( 00000007 )
               RSTACK = 00000000 ( 00000002 )
    -------------------------------------------------------------------------
CODE
  Relative segment, address: CODE 00000D2A - 00000D8B (0x62 bytes), align: 1
  Segment part 20.            Intra module refs:   handler_USART1_TX_vect::??INTVEC 152
           ENTRY                   ADDRESS         REF BY
           =====                   =======         ======
           handler_USART1_TX_vect
                                   00000D2A 
               interrupt function
               CSTACK = 00000000 ( 00000006 )
               RSTACK = 00000000 ( 00000002 )
    -------------------------------------------------------------------------
INTVEC
  Common segment, address: CODE 00000000 - 00000093 (0x94 bytes), align: 1
  Segment part 10. ROOT.
           ENTRY                   ADDRESS         REF BY
           =====                   =======         ======
           handler_USART1_RX_vect::??INTVEC 144
                                   00000090 
    -------------------------------------------------------------------------
INTVEC
  Common segment, address: CODE 00000000 - 0000009B (0x9c bytes), align: 1
  Segment part 11. ROOT.
           ENTRY                   ADDRESS         REF BY
           =====                   =======         ======
           handler_USART1_TX_vect::??INTVEC 152
                                   00000098 

    *************************************************************************

  FILE NAME : D:\Firmware\my-project-hihack\trunk\ my-project-hihack --username kaiser.ren@gmail.com\back_end\Applications\TAL_Examples\Performance_Test\IAR\Mega1281\Debug\Obj\pal_utils.r90
    *************************************************************************

  FILE NAME : D:\Firmware\my-project-hihack\trunk\ my-project-hihack --username kaiser.ren@gmail.com\back_end\Applications\TAL_Examples\Performance_Test\IAR\Mega1281\Debug\Obj\sio_handler.r90
  PROGRAM MODULE, NAME : sio_handler

  SEGMENTS IN THE MODULE
  ======================
CODE
  Relative segment, address: CODE 00000D8C - 00000DC5 (0x3a bytes), align: 1
  Segment part 7.
           ENTRY                   ADDRESS         REF BY
           =====                   =======         ======
           _sio_putchar            00000D8C        decode_machine (decode)
                                                   low_level_putchar (?__write)
               calls direct
               CSTACK = 00000000 ( 00000002 )
               RSTACK = 00000000 ( 00000002 )
    -------------------------------------------------------------------------
CODE
  Relative segment, address: CODE 00000DC6 - 00000DEB (0x26 bytes), align: 1
  Segment part 9.
           ENTRY                   ADDRESS         REF BY
           =====                   =======         ======
           _sio_getchar_nowait     00000DC6        encode_machine (encode)
               calls direct
               CSTACK = 00000000 ( 00000001 )
               RSTACK = 00000000 ( 00000002 )

    *************************************************************************

  FILE NAME : D:\Firmware\my-project-hihack\trunk\ my-project-hihack --username kaiser.ren@gmail.com\back_end\Applications\TAL_Examples\Performance_Test\IAR\Mega1281\Debug\Obj\timer.r90
  PROGRAM MODULE, NAME : timer

  SEGMENTS IN THE MODULE
  ======================
NEAR_Z
  Relative segment, address: DATA 000004E3 - 000004E7 (0x5 bytes), align: 0
  Segment part 13.
           ENTRY                   ADDRESS         REF BY
           =====                   =======         ======
           ac_cap_para             000004E3        ac_init (decode)
    -------------------------------------------------------------------------
CODE
  Relative segment, address: CODE 00000DEC - 00000DFD (0x12 bytes), align: 1
  Segment part 16.
           ENTRY                   ADDRESS         REF BY
           =====                   =======         ======
           pwm_init                00000DEC        hal_init (hal)
               RSTACK = 00000000 ( 00000002 )

    *************************************************************************

  FILE NAME : D:\Firmware\my-project-hihack\trunk\ my-project-hihack --username kaiser.ren@gmail.com\back_end\Applications\TAL_Examples\Performance_Test\IAR\Mega1281\Debug\Obj\write.r90
  PROGRAM MODULE, NAME : ?__write

  SEGMENTS IN THE MODULE
  ======================
CODE
  Relative segment, address: CODE 00000DFE - 00000E0F (0x12 bytes), align: 1
  Segment part 7.             Intra module refs:   __write
           ENTRY                   ADDRESS         REF BY
           =====                   =======         ======
           low_level_putchar       00000DFE 
               calls direct
               CSTACK = 00000000 ( 00000002 )
               RSTACK = 00000000 ( 00000002 )
    -------------------------------------------------------------------------
CODE
  Relative segment, address: CODE 00000E10 - 00000E71 (0x62 bytes), align: 1
  Segment part 8.
           ENTRY                   ADDRESS         REF BY
           =====                   =======         ======
           __write                 00000E10        putchar (?putchar)
               calls direct
               CSTACK = 00000000 ( 00000008 )
               RSTACK = 00000000 ( 00000002 )

    *************************************************************************

  FILE NAME : D:\Program Files\IAR Systems\Embedded Workbench 6.0\avr\LIB\DLIB\dlAVR-3s-ec_mul-n.r90
  LIBRARY MODULE, NAME : ?__dbg_break

  SEGMENTS IN THE MODULE
  ======================
CODE
  Relative segment, address: CODE 00000E72 - 00000E73 (0x2 bytes), align: 1
  Segment part 3.
           ENTRY                   ADDRESS         REF BY
           =====                   =======         ======
           __DebugBreak            00000E72        __exit (?__exit)

    -------------------------------------------------------------------------
  LIBRARY MODULE, NAME : ?__exit

  SEGMENTS IN THE MODULE
  ======================
CODE
  Relative segment, address: CODE 00000E74 - 00000E89 (0x16 bytes), align: 1
  Segment part 3.
           ENTRY                   ADDRESS         REF BY
           =====                   =======         ======
           __exit                  00000E74        Segment part 5 (?_exit)
               calls direct

    -------------------------------------------------------------------------
  LIBRARY MODULE, NAME : ?_exit

  SEGMENTS IN THE MODULE
  ======================
CODE
  Relative segment, address: CODE 00000E8A, align: 1
  Segment part 0.
           ENTRY                   ADDRESS         REF BY
           =====                   =======         ======
           _exit                   00000E8A        ?cstartup_call_main (?C_STARTUP)
                                                   exit (?exit)
    -------------------------------------------------------------------------
CODE
  Relative segment, address: CODE 00000E8A - 00000E8D (0x4 bytes), align: 1
  Segment part 5.             Intra module refs:   _exit

    -------------------------------------------------------------------------
  LIBRARY MODULE, NAME : ?RESET

  SEGMENTS IN THE MODULE
  ======================
INTVEC
  Common segment, address: CODE 00000000 - 00000003 (0x4 bytes), align: 1
  Segment part 0. ROOT.
           ENTRY                   ADDRESS         REF BY
           =====                   =======         ======
           __program_start         00000000        Absolute parts (?ABS_ENTRY_MOD)
           ?RESET                  00000000        Segment part 2 (?C_STARTUP)

    -------------------------------------------------------------------------
  LIBRARY MODULE, NAME : ?C_STARTUP

  SEGMENTS IN THE MODULE
  ======================
CODE
  Relative segment, address: CODE 00000E8E, align: 1
  Segment part 2.
           ENTRY                   ADDRESS         REF BY
           =====                   =======         ======
           ?C_STARTUP              00000E8E        Segment part 0 (?RESET)
           __RESTART               00000E8E 
    -------------------------------------------------------------------------
CODE
  Relative segment, address: CODE 00000E8E - 00000E99 (0xc bytes), align: 1
  Segment part 5.             Intra module refs:   Segment part 2
    -------------------------------------------------------------------------
CODE
  Relative segment, address: CODE 00000E9A - 00000E9D (0x4 bytes), align: 1
  Segment part 7.             Intra module refs:   Segment part 5
           ENTRY                   ADDRESS         REF BY
           =====                   =======         ======
           ?call_low_level_init    00000E9A 
    -------------------------------------------------------------------------
CODE
  Relative segment, address: CODE 00000E9E - 00000EA5 (0x8 bytes), align: 1
  Segment part 8.
           ENTRY                   ADDRESS         REF BY
           =====                   =======         ======
           ?need_segment_init      00000E9E        ?<Segment init: NEAR_I> (main)
                                                   ?<Segment init: NEAR_Z> (decode)
    -------------------------------------------------------------------------
CODE
  Relative segment, address: CODE 00000EA6 - 00000EB1 (0xc bytes), align: 1
  Segment part 11.            Intra module refs:   ?call_low_level_init
           ENTRY                   ADDRESS         REF BY
           =====                   =======         ======
           ?cstartup_call_main     00000EA6 

    -------------------------------------------------------------------------
  LIBRARY MODULE, NAME : ?exit

  SEGMENTS IN THE MODULE
  ======================
CODE
  Relative segment, address: CODE 00000EB2 - 00000EB5 (0x4 bytes), align: 1
  Segment part 3.
           ENTRY                   ADDRESS         REF BY
           =====                   =======         ======
           exit                    00000EB2        ?cstartup_call_main (?C_STARTUP)
               calls direct
               RSTACK = 00000000 ( 00000002 )

    -------------------------------------------------------------------------
  LIBRARY MODULE, NAME : ?UC_DIVMOD_L01

  SEGMENTS IN THE MODULE
  ======================
CODE
  Relative segment, address: CODE 00000EB6 - 00000ED1 (0x1c bytes), align: 1
  Segment part 0.
           ENTRY                   ADDRESS         REF BY
           =====                   =======         ======
           ?UC_DIVMOD_L01          00000EB6        decode_machine (decode)
                                                   encode_machine (encode)
                                                   findParam (encode)

    -------------------------------------------------------------------------
  LIBRARY MODULE, NAME : ?S_EC_MUL_L02

  SEGMENTS IN THE MODULE
  ======================
CODE
  Relative segment, address: CODE 00000ED2 - 00000EE1 (0x10 bytes), align: 1
  Segment part 0.
           ENTRY                   ADDRESS         REF BY
           =====                   =======         ======
           ?S_EC_MUL_L02           00000ED2        Segment part 13 (?xprintfsmall)

    -------------------------------------------------------------------------
  LIBRARY MODULE, NAME : ?S_SHL_L02

  SEGMENTS IN THE MODULE
  ======================
CODE
  Relative segment, address: CODE 00000EE2 - 00000EED (0xc bytes), align: 1
  Segment part 0.
           ENTRY                   ADDRESS         REF BY
           =====                   =======         ======
           ?S_SHL_L02              00000EE2        findParam (encode)
                                                   pal_led (pal_board)

    -------------------------------------------------------------------------
  LIBRARY MODULE, NAME : ?L_EC_MUL_L03

  SEGMENTS IN THE MODULE
  ======================
CODE
  Relative segment, address: CODE 00000EEE - 00000F2D (0x40 bytes), align: 1
  Segment part 0.
           ENTRY                   ADDRESS         REF BY
           =====                   =======         ======
           ?L_EC_MUL_L03           00000EEE        sio_uart_1_init (pal_uart)

    -------------------------------------------------------------------------
  LIBRARY MODULE, NAME : ?UL_DIVMOD_L03

  SEGMENTS IN THE MODULE
  ======================
CODE
  Relative segment, address: CODE 00000F2E - 00000F73 (0x46 bytes), align: 1
  Segment part 0.
           ENTRY                   ADDRESS         REF BY
           =====                   =======         ======
           ?UL_DIVMOD_L03          00000F2E        Segment part 40 (?xprintfsmall)
                                                   sio_uart_1_init (pal_uart)

    -------------------------------------------------------------------------
  LIBRARY MODULE, NAME : ?xV_SWITCH_L06

  SEGMENTS IN THE MODULE
  ======================
CODE
  Relative segment, address: CODE 00000F74 - 0000100F (0x9c bytes), align: 1
  Segment part 0.
           ENTRY                   ADDRESS         REF BY
           =====                   =======         ======
           ?CV_SWITCH_L06          00000F86        decode_machine (decode)
                                                   encode_machine (encode)
           ?SV_SWITCH_L06          00000F8E 
           ?LV_SWITCH_L06          00000F9A 

    -------------------------------------------------------------------------
  LIBRARY MODULE, NAME : ?PROLOGUE_L09

  SEGMENTS IN THE MODULE
  ======================
CODE
  Relative segment, address: CODE 00001010 - 00001011 (0x2 bytes), align: 1
  Segment part 1.
           ENTRY                   ADDRESS         REF BY
           =====                   =======         ======
           ?PROLOGUE15_L09         00001010        _LitobSmall (?xprintfsmall)
    -------------------------------------------------------------------------
CODE
  Relative segment, address: CODE 00001012 - 00001013 (0x2 bytes), align: 1
  Segment part 2.             Intra module refs:   ?PROLOGUE15_L09
           ENTRY                   ADDRESS         REF BY
           =====                   =======         ======
           ?PROLOGUE14_L09         00001012 
    -------------------------------------------------------------------------
CODE
  Relative segment, address: CODE 00001014 - 00001015 (0x2 bytes), align: 1
  Segment part 3.             Intra module refs:   ?PROLOGUE14_L09
           ENTRY                   ADDRESS         REF BY
           =====                   =======         ======
           ?PROLOGUE13_L09         00001014 
    -------------------------------------------------------------------------
CODE
  Relative segment, address: CODE 00001016 - 00001017 (0x2 bytes), align: 1
  Segment part 4.             Intra module refs:   ?PROLOGUE13_L09
           ENTRY                   ADDRESS         REF BY
           =====                   =======         ======
           ?PROLOGUE12_L09         00001016 
    -------------------------------------------------------------------------
CODE
  Relative segment, address: CODE 00001018 - 00001019 (0x2 bytes), align: 1
  Segment part 5.             Intra module refs:   ?PROLOGUE12_L09
           ENTRY                   ADDRESS         REF BY
           =====                   =======         ======
           ?PROLOGUE11_L09         00001018 
    -------------------------------------------------------------------------
CODE
  Relative segment, address: CODE 0000101A - 0000101B (0x2 bytes), align: 1
  Segment part 6.             Intra module refs:   ?PROLOGUE11_L09
           ENTRY                   ADDRESS         REF BY
           =====                   =======         ======
           ?PROLOGUE10_L09         0000101A 
    -------------------------------------------------------------------------
CODE
  Relative segment, address: CODE 0000101C - 0000101D (0x2 bytes), align: 1
  Segment part 7.             Intra module refs:   ?PROLOGUE10_L09
           ENTRY                   ADDRESS         REF BY
           =====                   =======         ======
           ?PROLOGUE9_L09          0000101C 
    -------------------------------------------------------------------------
CODE
  Relative segment, address: CODE 0000101E - 0000101F (0x2 bytes), align: 1
  Segment part 8.             Intra module refs:   ?PROLOGUE9_L09
           ENTRY                   ADDRESS         REF BY
           =====                   =======         ======
           ?PROLOGUE8_L09          0000101E        Segment part 38 (?xprintfsmall)
                                                   __write (?__write)
                                                   sio_uart_1_init (pal_uart)
    -------------------------------------------------------------------------
CODE
  Relative segment, address: CODE 00001020 - 00001021 (0x2 bytes), align: 1
  Segment part 9.             Intra module refs:   ?PROLOGUE8_L09
           ENTRY                   ADDRESS         REF BY
           =====                   =======         ======
           ?PROLOGUE7_L09          00001020 
    -------------------------------------------------------------------------
CODE
  Relative segment, address: CODE 00001022 - 00001023 (0x2 bytes), align: 1
  Segment part 10.            Intra module refs:   ?PROLOGUE7_L09
           ENTRY                   ADDRESS         REF BY
           =====                   =======         ======
           ?PROLOGUE6_L09          00001022 
    -------------------------------------------------------------------------
CODE
  Relative segment, address: CODE 00001024 - 00001025 (0x2 bytes), align: 1
  Segment part 11.            Intra module refs:   ?PROLOGUE6_L09
           ENTRY                   ADDRESS         REF BY
           =====                   =======         ======
           ?PROLOGUE5_L09          00001024        pal_sio_rx (pal_sio_hub)
                                                   pal_sio_tx (pal_sio_hub)
    -------------------------------------------------------------------------
CODE
  Relative segment, address: CODE 00001026 - 00001027 (0x2 bytes), align: 1
  Segment part 12.            Intra module refs:   ?PROLOGUE5_L09
           ENTRY                   ADDRESS         REF BY
           =====                   =======         ======
           ?PROLOGUE4_L09          00001026        _Prout (?xprout)
    -------------------------------------------------------------------------
CODE
  Relative segment, address: CODE 00001028 - 00001029 (0x2 bytes), align: 1
  Segment part 13.            Intra module refs:   ?PROLOGUE4_L09
           ENTRY                   ADDRESS         REF BY
           =====                   =======         ======
           ?PROLOGUE3_L09          00001028 
    -------------------------------------------------------------------------
CODE
  Relative segment, address: CODE 0000102A - 0000102B (0x2 bytes), align: 1
  Segment part 14.            Intra module refs:   ?PROLOGUE3_L09
           ENTRY                   ADDRESS         REF BY
           =====                   =======         ======
           ?PROLOGUE2_L09          0000102A 
    -------------------------------------------------------------------------
CODE
  Relative segment, address: CODE 0000102C - 0000102D (0x2 bytes), align: 1
  Segment part 15.            Intra module refs:   ?PROLOGUE2_L09
           ENTRY                   ADDRESS         REF BY
           =====                   =======         ======
           ?PROLOGUE1_L09          0000102C 
    -------------------------------------------------------------------------
CODE
  Relative segment, address: CODE 0000102E - 0000102F (0x2 bytes), align: 1
  Segment part 16.            Intra module refs:   ?PROLOGUE1_L09

    -------------------------------------------------------------------------
  LIBRARY MODULE, NAME : ?EPILOGUE_B_L09

  SEGMENTS IN THE MODULE
  ======================
CODE
  Relative segment, address: CODE 00001030 - 00001031 (0x2 bytes), align: 1
  Segment part 1.
           ENTRY                   ADDRESS         REF BY
           =====                   =======         ======
           ?EPILOGUE_B15_L09       00001030        _LitobSmall (?xprintfsmall)
    -------------------------------------------------------------------------
CODE
  Relative segment, address: CODE 00001032 - 00001033 (0x2 bytes), align: 1
  Segment part 2.             Intra module refs:   ?EPILOGUE_B15_L09
           ENTRY                   ADDRESS         REF BY
           =====                   =======         ======
           ?EPILOGUE_B14_L09       00001032 
    -------------------------------------------------------------------------
CODE
  Relative segment, address: CODE 00001034 - 00001035 (0x2 bytes), align: 1
  Segment part 3.             Intra module refs:   ?EPILOGUE_B14_L09
           ENTRY                   ADDRESS         REF BY
           =====                   =======         ======
           ?EPILOGUE_B13_L09       00001034 
    -------------------------------------------------------------------------
CODE
  Relative segment, address: CODE 00001036 - 00001037 (0x2 bytes), align: 1
  Segment part 4.             Intra module refs:   ?EPILOGUE_B13_L09
           ENTRY                   ADDRESS         REF BY
           =====                   =======         ======
           ?EPILOGUE_B12_L09       00001036 
    -------------------------------------------------------------------------
CODE
  Relative segment, address: CODE 00001038 - 00001039 (0x2 bytes), align: 1
  Segment part 5.             Intra module refs:   ?EPILOGUE_B12_L09
           ENTRY                   ADDRESS         REF BY
           =====                   =======         ======
           ?EPILOGUE_B11_L09       00001038 
    -------------------------------------------------------------------------
CODE
  Relative segment, address: CODE 0000103A - 0000103B (0x2 bytes), align: 1
  Segment part 6.             Intra module refs:   ?EPILOGUE_B11_L09
           ENTRY                   ADDRESS         REF BY
           =====                   =======         ======
           ?EPILOGUE_B10_L09       0000103A 
    -------------------------------------------------------------------------
CODE
  Relative segment, address: CODE 0000103C - 0000103D (0x2 bytes), align: 1
  Segment part 7.             Intra module refs:   ?EPILOGUE_B10_L09
           ENTRY                   ADDRESS         REF BY
           =====                   =======         ======
           ?EPILOGUE_B9_L09        0000103C 
    -------------------------------------------------------------------------
CODE
  Relative segment, address: CODE 0000103E - 0000103F (0x2 bytes), align: 1
  Segment part 8.             Intra module refs:   ?EPILOGUE_B9_L09
           ENTRY                   ADDRESS         REF BY
           =====                   =======         ======
           ?EPILOGUE_B8_L09        0000103E        Segment part 7 (?xprintfsmall)
                                                   __write (?__write)
                                                   sio_uart_1_init (pal_uart)
    -------------------------------------------------------------------------
CODE
  Relative segment, address: CODE 00001040 - 00001041 (0x2 bytes), align: 1
  Segment part 9.             Intra module refs:   ?EPILOGUE_B8_L09
           ENTRY                   ADDRESS         REF BY
           =====                   =======         ======
           ?EPILOGUE_B7_L09        00001040 
    -------------------------------------------------------------------------
CODE
  Relative segment, address: CODE 00001042 - 00001043 (0x2 bytes), align: 1
  Segment part 10.            Intra module refs:   ?EPILOGUE_B7_L09
           ENTRY                   ADDRESS         REF BY
           =====                   =======         ======
           ?EPILOGUE_B6_L09        00001042 
    -------------------------------------------------------------------------
CODE
  Relative segment, address: CODE 00001044 - 00001045 (0x2 bytes), align: 1
  Segment part 11.            Intra module refs:   ?EPILOGUE_B6_L09
           ENTRY                   ADDRESS         REF BY
           =====                   =======         ======
           ?EPILOGUE_B5_L09        00001044        pal_sio_rx (pal_sio_hub)
                                                   pal_sio_tx (pal_sio_hub)
    -------------------------------------------------------------------------
CODE
  Relative segment, address: CODE 00001046 - 00001047 (0x2 bytes), align: 1
  Segment part 12.            Intra module refs:   ?EPILOGUE_B5_L09
           ENTRY                   ADDRESS         REF BY
           =====                   =======         ======
           ?EPILOGUE_B4_L09        00001046        _Prout (?xprout)
    -------------------------------------------------------------------------
CODE
  Relative segment, address: CODE 00001048 - 00001049 (0x2 bytes), align: 1
  Segment part 13.            Intra module refs:   ?EPILOGUE_B4_L09
           ENTRY                   ADDRESS         REF BY
           =====                   =======         ======
           ?EPILOGUE_B3_L09        00001048 
    -------------------------------------------------------------------------
CODE
  Relative segment, address: CODE 0000104A - 0000104B (0x2 bytes), align: 1
  Segment part 14.            Intra module refs:   ?EPILOGUE_B3_L09
           ENTRY                   ADDRESS         REF BY
           =====                   =======         ======
           ?EPILOGUE_B2_L09        0000104A 
    -------------------------------------------------------------------------
CODE
  Relative segment, address: CODE 0000104C - 0000104D (0x2 bytes), align: 1
  Segment part 15.            Intra module refs:   ?EPILOGUE_B2_L09
           ENTRY                   ADDRESS         REF BY
           =====                   =======         ======
           ?EPILOGUE_B1_L09        0000104C 
    -------------------------------------------------------------------------
CODE
  Relative segment, address: CODE 0000104E - 00001057 (0xa bytes), align: 1
  Segment part 16.            Intra module refs:   ?EPILOGUE_B1_L09
           ENTRY                   ADDRESS         REF BY
           =====                   =======         ======
           ?EPILOGUE_B0_L09        0000104E 

    -------------------------------------------------------------------------
  LIBRARY MODULE, NAME : ?REGISTER_CGREGR4_L10

  SEGMENTS IN THE MODULE
  ======================
CODE
  Relative segment, address: CODE 00001058, align: 1
  Segment part 0.
           ENTRY                   ADDRESS         REF BY
           =====                   =======         ======
           ?Register_R4_is_cg_reg
                                   00001058        _LitobSmall (?xprintfsmall)
                                                   _PrintfSmall (?xprintfsmall)
                                                   _PutcharsSmall (?xprintfsmall)
                                                   __write (?__write)
                                                   pad (?xprintfsmall)
                                                   pal_sio_rx (pal_sio_hub)
                                                   pal_sio_tx (pal_sio_hub)
                                                   sio_uart_1_init (pal_uart)

    -------------------------------------------------------------------------
  LIBRARY MODULE, NAME : ?REGISTER_CGREGR5_L10

  SEGMENTS IN THE MODULE
  ======================
CODE
  Relative segment, address: CODE 00001058, align: 1
  Segment part 0.
           ENTRY                   ADDRESS         REF BY
           =====                   =======         ======
           ?Register_R5_is_cg_reg
                                   00001058        _LitobSmall (?xprintfsmall)
                                                   _PrintfSmall (?xprintfsmall)
                                                   _PutcharsSmall (?xprintfsmall)
                                                   __write (?__write)
                                                   pad (?xprintfsmall)
                                                   sio_uart_1_init (pal_uart)

    -------------------------------------------------------------------------
  LIBRARY MODULE, NAME : ?REGISTER_CGREGR6_L10

  SEGMENTS IN THE MODULE
  ======================
CODE
  Relative segment, address: CODE 00001058, align: 1
  Segment part 0.
           ENTRY                   ADDRESS         REF BY
           =====                   =======         ======
           ?Register_R6_is_cg_reg
                                   00001058        _LitobSmall (?xprintfsmall)
                                                   _PrintfSmall (?xprintfsmall)
                                                   _PutcharsSmall (?xprintfsmall)
                                                   __write (?__write)
                                                   pad (?xprintfsmall)
                                                   sio_uart_1_init (pal_uart)

    -------------------------------------------------------------------------
  LIBRARY MODULE, NAME : ?REGISTER_CGREGR7_L10

  SEGMENTS IN THE MODULE
  ======================
CODE
  Relative segment, address: CODE 00001058, align: 1
  Segment part 0.
           ENTRY                   ADDRESS         REF BY
           =====                   =======         ======
           ?Register_R7_is_cg_reg
                                   00001058        _LitobSmall (?xprintfsmall)
                                                   _PrintfSmall (?xprintfsmall)
                                                   _PutcharsSmall (?xprintfsmall)
                                                   __write (?__write)
                                                   pad (?xprintfsmall)
                                                   sio_uart_1_init (pal_uart)

    -------------------------------------------------------------------------
  LIBRARY MODULE, NAME : ?REGISTER_CGREGR8_L10

  SEGMENTS IN THE MODULE
  ======================
CODE
  Relative segment, address: CODE 00001058, align: 1
  Segment part 0.
           ENTRY                   ADDRESS         REF BY
           =====                   =======         ======
           ?Register_R8_is_cg_reg
                                   00001058        _LitobSmall (?xprintfsmall)

    -------------------------------------------------------------------------
  LIBRARY MODULE, NAME : ?REGISTER_CGREGR9_L10

  SEGMENTS IN THE MODULE
  ======================
CODE
  Relative segment, address: CODE 00001058, align: 1
  Segment part 0.
           ENTRY                   ADDRESS         REF BY
           =====                   =======         ======
           ?Register_R9_is_cg_reg
                                   00001058        _LitobSmall (?xprintfsmall)

    -------------------------------------------------------------------------
  LIBRARY MODULE, NAME : ?REGISTER_CGREGR10_L10

  SEGMENTS IN THE MODULE
  ======================
CODE
  Relative segment, address: CODE 00001058, align: 1
  Segment part 0.
           ENTRY                   ADDRESS         REF BY
           =====                   =======         ======
           ?Register_R10_is_cg_reg
                                   00001058        _LitobSmall (?xprintfsmall)

    -------------------------------------------------------------------------
  LIBRARY MODULE, NAME : ?REGISTER_CGREGR12_L10

  SEGMENTS IN THE MODULE
  ======================
CODE
  Relative segment, address: CODE 00001058, align: 1
  Segment part 0.
           ENTRY                   ADDRESS         REF BY
           =====                   =======         ======
           ?Register_R12_is_cg_reg
                                   00001058        _LitobSmall (?xprintfsmall)

    -------------------------------------------------------------------------
  LIBRARY MODULE, NAME : ?REGISTER_CGREGR13_L10

  SEGMENTS IN THE MODULE
  ======================
CODE
  Relative segment, address: CODE 00001058, align: 1
  Segment part 0.
           ENTRY                   ADDRESS         REF BY
           =====                   =======         ======
           ?Register_R13_is_cg_reg
                                   00001058        _LitobSmall (?xprintfsmall)

    -------------------------------------------------------------------------
  LIBRARY MODULE, NAME : ?REGISTER_CGREGR14_L10

  SEGMENTS IN THE MODULE
  ======================
CODE
  Relative segment, address: CODE 00001058, align: 1
  Segment part 0.
           ENTRY                   ADDRESS         REF BY
           =====                   =======         ======
           ?Register_R14_is_cg_reg
                                   00001058        _LitobSmall (?xprintfsmall)

    -------------------------------------------------------------------------
  LIBRARY MODULE, NAME : ?low_level_init

  SEGMENTS IN THE MODULE
  ======================
CODE
  Relative segment, address: CODE 00001058 - 0000105B (0x4 bytes), align: 1
  Segment part 3.
           ENTRY                   ADDRESS         REF BY
           =====                   =======         ======
           __low_level_init        00001058        ?call_low_level_init (?C_STARTUP)
               RSTACK = 00000000 ( 00000002 )

    -------------------------------------------------------------------------
  LIBRARY MODULE, NAME : ?memchr

  SEGMENTS IN THE MODULE
  ======================
CODE
  Relative segment, address: CODE 0000105C - 0000107B (0x20 bytes), align: 1
  Segment part 4.
           ENTRY                   ADDRESS         REF BY
           =====                   =======         ======
           __iar_Memchr            0000105C        _PrintfSmall (?xprintfsmall)
               RSTACK = 00000000 ( 00000002 )

    -------------------------------------------------------------------------
  LIBRARY MODULE, NAME : ?memset

  SEGMENTS IN THE MODULE
  ======================
CODE
  Relative segment, address: CODE 0000107C - 0000108D (0x12 bytes), align: 1
  Segment part 3.
           ENTRY                   ADDRESS         REF BY
           =====                   =======         ======
           memset                  0000107C        ac_init (decode)
                                                   tmr0_init (encode)
               RSTACK = 00000000 ( 00000002 )

    -------------------------------------------------------------------------
  LIBRARY MODULE, NAME : ?printf

  SEGMENTS IN THE MODULE
  ======================
CODE
  Relative segment, address: CODE 0000108E - 000010AD (0x20 bytes), align: 1
  Segment part 3.
           ENTRY                   ADDRESS         REF BY
           =====                   =======         ======
           printf                  0000108E        main (main)
               calls direct
               CSTACK = 00000000 ( 00000002 )
               RSTACK = 00000000 ( 00000002 )

    -------------------------------------------------------------------------
  LIBRARY MODULE, NAME : ?putchar

  SEGMENTS IN THE MODULE
  ======================
CODE
  Relative segment, address: CODE 000010AE - 000010E1 (0x34 bytes), align: 1
  Segment part 3.
           ENTRY                   ADDRESS         REF BY
           =====                   =======         ======
           putchar                 000010AE        _Prout (?xprout)
               calls direct
               CSTACK = 00000000 ( 00000003 )
               RSTACK = 00000000 ( 00000002 )

    -------------------------------------------------------------------------
  LIBRARY MODULE, NAME : ?segment_init

  SEGMENTS IN THE MODULE
  ======================
CODE
  Relative segment, address: CODE 000010E2 - 000010E9 (0x8 bytes), align: 1
  Segment part 3.             Intra module refs:   __segment_init
           LOCAL                   ADDRESS         
           =====                   =======         
           __memclr                000010E2 
               RSTACK = 00000000 ( 00000002 )
    -------------------------------------------------------------------------
CODE
  Relative segment, address: CODE 000010EA - 000010F5 (0xc bytes), align: 1
  Segment part 4.             Intra module refs:   __segment_init
           LOCAL                   ADDRESS         
           =====                   =======         
           __flashcpy              000010EA 
               RSTACK = 00000000 ( 00000002 )
    -------------------------------------------------------------------------
CODE
  Relative segment, address: CODE 000010F6 - 00001101 (0xc bytes), align: 1
  Segment part 5.             Intra module refs:   __flashcpy
                                                   __memclr
    -------------------------------------------------------------------------
CODE
  Relative segment, address: CODE 00001102 - 00001161 (0x60 bytes), align: 1
  Segment part 6.
           ENTRY                   ADDRESS         REF BY
           =====                   =======         ======
           __segment_init          00001102        ?need_segment_init (?C_STARTUP)
               calls direct
               RSTACK = 00000000 ( 00000002 )

    -------------------------------------------------------------------------
  LIBRARY MODULE, NAME : ?strchr

  SEGMENTS IN THE MODULE
  ======================
CODE
  Relative segment, address: CODE 00001162 - 00001175 (0x14 bytes), align: 1
  Segment part 4.
           ENTRY                   ADDRESS         REF BY
           =====                   =======         ======
           __iar_Strchr            00001162        _PrintfSmall (?xprintfsmall)
               RSTACK = 00000000 ( 00000002 )

    -------------------------------------------------------------------------
  LIBRARY MODULE, NAME : ?strlen

  SEGMENTS IN THE MODULE
  ======================
CODE
  Relative segment, address: CODE 00001176 - 00001189 (0x14 bytes), align: 1
  Segment part 3.
           ENTRY                   ADDRESS         REF BY
           =====                   =======         ======
           strlen                  00001176        _PrintfSmall (?xprintfsmall)
               RSTACK = 00000000 ( 00000002 )

    -------------------------------------------------------------------------
  LIBRARY MODULE, NAME : ?xprintfsmall

  SEGMENTS IN THE MODULE
  ======================
CODE
  Relative segment, address: CODE 0000118A - 00001467 (0x2de bytes), align: 1
  Segment part 6.
           ENTRY                   ADDRESS         REF BY
           =====                   =======         ======
           _PrintfSmall            0000118A        printf (?printf)
               calls direct
               CSTACK = 00000000 ( 00000039 )
               RSTACK = 00000000 ( 00000004 )
    -------------------------------------------------------------------------
CODE
  Relative segment, address: CODE 00001468 - 0000146D (0x6 bytes), align: 1
  Segment part 7.             Intra module refs:   _PrintfSmall
                                                   _PutcharsSmall
                                                   pad
    -------------------------------------------------------------------------
CODE
  Relative segment, address: CODE 0000146E - 0000146F (0x2 bytes), align: 1
  Segment part 8.             Intra module refs:   _LitobSmall
                                                   _PrintfSmall
    -------------------------------------------------------------------------
CODE
  Relative segment, address: CODE 00001470 - 00001475 (0x6 bytes), align: 1
  Segment part 9.             Intra module refs:   Segment part 11
                                                   Segment part 24
                                                   Segment part 8
    -------------------------------------------------------------------------
CODE
  Relative segment, address: CODE 00001476 - 0000147B (0x6 bytes), align: 1
  Segment part 10.            Intra module refs:   _PrintfSmall
    -------------------------------------------------------------------------
CODE
  Relative segment, address: CODE 0000147C - 00001483 (0x8 bytes), align: 1
  Segment part 11.            Intra module refs:   _PrintfSmall
    -------------------------------------------------------------------------
CODE
  Relative segment, address: CODE 00001484 - 0000148B (0x8 bytes), align: 1
  Segment part 12.            Intra module refs:   _PrintfSmall
    -------------------------------------------------------------------------
CODE
  Relative segment, address: CODE 0000148C - 000014A1 (0x16 bytes), align: 1
  Segment part 13.            Intra module refs:   _PrintfSmall
    -------------------------------------------------------------------------
CODE
  Relative segment, address: CODE 000014A2 - 000014AB (0xa bytes), align: 1
  Segment part 14.            Intra module refs:   Segment part 17
                                                   _PrintfSmall
    -------------------------------------------------------------------------
CODE
  Relative segment, address: CODE 000014AC - 000014B3 (0x8 bytes), align: 1
  Segment part 15.            Intra module refs:   _PrintfSmall
    -------------------------------------------------------------------------
CODE
  Relative segment, address: CODE 000014B4 - 000014B5 (0x2 bytes), align: 1
  Segment part 16.            Intra module refs:   _PrintfSmall
    -------------------------------------------------------------------------
CODE
  Relative segment, address: CODE 000014B6 - 000014C3 (0xe bytes), align: 1
  Segment part 17.            Intra module refs:   Segment part 16
                                                   _PrintfSmall
    -------------------------------------------------------------------------
CODE
  Relative segment, address: CODE 000014C4 - 000014C9 (0x6 bytes), align: 1
  Segment part 18.            Intra module refs:   LoadInt
                                                   Segment part 15
                                                   Segment part 16
                                                   _PrintfSmall
    -------------------------------------------------------------------------
CODE
  Relative segment, address: CODE 000014CA - 000014CB (0x2 bytes), align: 1
  Segment part 19.            Intra module refs:   _PrintfSmall
    -------------------------------------------------------------------------
CODE
  Relative segment, address: CODE 000014CC - 000014D1 (0x6 bytes), align: 1
  Segment part 20.            Intra module refs:   Segment part 19
                                                   _PrintfSmall
    -------------------------------------------------------------------------
CODE
  Relative segment, address: CODE 000014D2 - 000014DB (0xa bytes), align: 1
  Segment part 21.            Intra module refs:   _PrintfSmall
    -------------------------------------------------------------------------
CODE
  Relative segment, address: CODE 000014DC - 000014E1 (0x6 bytes), align: 1
  Segment part 22.            Intra module refs:   _PrintfSmall
    -------------------------------------------------------------------------
CODE
  Relative segment, address: CODE 000014E2 - 000014E5 (0x4 bytes), align: 1
  Segment part 23.            Intra module refs:   Segment part 22
                                                   Segment part 31
    -------------------------------------------------------------------------
CODE
  Relative segment, address: CODE 000014E6 - 000014EF (0xa bytes), align: 1
  Segment part 24.            Intra module refs:   _PrintfSmall
    -------------------------------------------------------------------------
CODE
  Relative segment, address: CODE 000014F0 - 000014F1 (0x2 bytes), align: 1
  Segment part 25.            Intra module refs:   _PrintfSmall
    -------------------------------------------------------------------------
CODE
  Relative segment, address: CODE 000014F2 - 000014FD (0xc bytes), align: 1
  Segment part 26.            Intra module refs:   Segment part 25
                                                   Segment part 28
    -------------------------------------------------------------------------
CODE
  Relative segment, address: CODE 000014FE - 00001503 (0x6 bytes), align: 1
  Segment part 27.            Intra module refs:   Segment part 25
                                                   _PrintfSmall
    -------------------------------------------------------------------------
CODE
  Relative segment, address: CODE 00001504 - 0000150B (0x8 bytes), align: 1
  Segment part 28.            Intra module refs:   _PrintfSmall
    -------------------------------------------------------------------------
CODE
  Relative segment, address: CODE 0000150C - 00001515 (0xa bytes), align: 1
  Segment part 29.            Intra module refs:   Segment part 10
                                                   Segment part 28
    -------------------------------------------------------------------------
CODE
  Relative segment, address: CODE 00001516 - 00001519 (0x4 bytes), align: 1
  Segment part 30.            Intra module refs:   _PrintfSmall
    -------------------------------------------------------------------------
CODE
  Relative segment, address: CODE 0000151A - 00001521 (0x8 bytes), align: 1
  Segment part 31.            Intra module refs:   Segment part 30
                                                   _PrintfSmall
    -------------------------------------------------------------------------
CODE
  Relative segment, address: CODE 00001522 - 00001593 (0x72 bytes), align: 1
  Segment part 32.            Intra module refs:   _PrintfSmall
           LOCAL                   ADDRESS         
           =====                   =======         
           LoadInt                 00001522 
               RSTACK = 00000000 ( 00000002 )
    -------------------------------------------------------------------------
CODE
  Relative segment, address: CODE 00001594 - 00001599 (0x6 bytes), align: 1
  Segment part 33.            Intra module refs:   LoadInt
    -------------------------------------------------------------------------
CODE
  Relative segment, address: CODE 0000159A - 000015AD (0x14 bytes), align: 1
  Segment part 34.            Intra module refs:   LoadInt
                                                   Segment part 33
    -------------------------------------------------------------------------
CODE
  Relative segment, address: CODE 000015AE - 000015B3 (0x6 bytes), align: 1
  Segment part 35.            Intra module refs:   LoadInt
                                                   _PrintfSmall
    -------------------------------------------------------------------------
CODE
  Relative segment, address: CODE 000015B4 - 000015BD (0xa bytes), align: 1
  Segment part 36.            Intra module refs:   LoadInt
                                                   _PrintfSmall
    -------------------------------------------------------------------------
CODE
  Relative segment, address: CODE 000015BE - 000015F9 (0x3c bytes), align: 1
  Segment part 37.            Intra module refs:   Segment part 31
           LOCAL                   ADDRESS         
           =====                   =======         
           pad                     000015BE 
               calls direct
               CSTACK = 00000000 ( 00000009 )
               RSTACK = 00000000 ( 00000002 )
    -------------------------------------------------------------------------
CODE
  Relative segment, address: CODE 000015FA - 000015FD (0x4 bytes), align: 1
  Segment part 38.            Intra module refs:   _PrintfSmall
                                                   _PutcharsSmall
                                                   pad
    -------------------------------------------------------------------------
CODE
  Relative segment, address: CODE 000015FE - 00001763 (0x166 bytes), align: 1
  Segment part 39.            Intra module refs:   _PrintfSmall
           LOCAL                   ADDRESS         
           =====                   =======         
           _LitobSmall             000015FE 
               CSTACK = 00000000 ( 00000013 )
               RSTACK = 00000000 ( 00000004 )
    -------------------------------------------------------------------------
CODE
  Relative segment, address: CODE 00001764 - 00001771 (0xe bytes), align: 1
  Segment part 40.            Intra module refs:   _LitobSmall
    -------------------------------------------------------------------------
CODE
  Relative segment, address: CODE 00001772 - 000017AB (0x3a bytes), align: 1
  Segment part 41.            Intra module refs:   _PrintfSmall
                                                   _PutcharsSmall
           LOCAL                   ADDRESS         
           =====                   =======         
           _PutcharSmall           00001772 
               calls indirect
               CSTACK = 00000000 ( 00000002 )
               RSTACK = 00000000 ( 00000002 )
    -------------------------------------------------------------------------
CODE
  Relative segment, address: CODE 000017AC - 000017D9 (0x2e bytes), align: 1
  Segment part 42.            Intra module refs:   Segment part 22
                                                   pad
           LOCAL                   ADDRESS         
           =====                   =======         
           _PutcharsSmall          000017AC 
               calls direct
               CSTACK = 00000000 ( 00000008 )
               RSTACK = 00000000 ( 00000002 )
    -------------------------------------------------------------------------
NEAR_ID
  Relative segment, address: CODE 0000186B - 00001870 (0x6 bytes), align: 0
  Segment part 4.             Intra module refs:   Segment part 3
    -------------------------------------------------------------------------
NEAR_I
  Relative segment, address: DATA 000004AF - 000004B4 (0x6 bytes), align: 0
  Segment part 3.             Intra module refs:   _PrintfSmall

    -------------------------------------------------------------------------
  LIBRARY MODULE, NAME : ?xprout

  SEGMENTS IN THE MODULE
  ======================
CODE
  Relative segment, address: CODE 000017DA - 000017FD (0x24 bytes), align: 1
  Segment part 3.
           ENTRY                   ADDRESS         REF BY
           =====                   =======         ======
           _Prout                  000017DA        printf (?printf)
               calls direct
               CSTACK = 00000000 ( 00000004 )
               RSTACK = 00000000 ( 00000002 )

    *************************************************************************

  DEFINED ABSOLUTE ENTRIES
  PROGRAM MODULE, NAME : ?FILLER_BYTES

  SEGMENTS IN THE MODULE
  ======================
INTVEC
  Common segment, address: CODE 00000000 - 0000009B (0x9c bytes), align: 0
  Segment part 1.
    -------------------------------------------------------------------------
?FILL1
  Relative segment, address: CODE 0000009C - 000000CB (0x30 bytes), align: 0
  Segment part 0.




                ****************************************
                *                                      *
                *            MODULE SUMMARY            *
                *                                      *
                ****************************************

Module                  CODE          DATA
------                  ----          ----
                    (Rel)  (Abs)  (Rel)  (Abs)
?C_STARTUP             36
?EPILOGUE_B_L09        40
?FILLER_BYTES          48
  + common            156
?L_EC_MUL_L03          64
?PROLOGUE_L09          32
?RESET
  + common              4
?S_EC_MUL_L02          16
?S_SHL_L02             12
?UC_DIVMOD_L01         28
?UL_DIVMOD_L03         70
?__dbg_break            2
?__exit                22
?__write              116
?_exit                  4
?exit                   4
?low_level_init         4
?memchr                32
?memset                18
?printf                32
?putchar               52
?segment_init         128
?strchr                20
?strlen                20
?xV_SWITCH_L06        156
?xprintfsmall       1 622             6
?xprout                36
decode              1 520            12      4
  + shared              7                    4
  + common            116
encode                656             8      2
  + shared             88                    5
  + common
hal                    76                    3
main                  235      4     95
  + shared              7                    1
pal_board             152                   14
  + shared                                   1
pal_sio_hub           108
pal_uart              612            26      6
  + common            156
sio_handler            96
timer                  18             5
N/A (command line)                  592
N/A (alignment)
----------          -----      -    ---     --
Total:              6 101      4    744     40
  + common            156


                ****************************************
                *                                      *
                *      SEGMENTS IN ADDRESS ORDER       *
                *                                      *
                ****************************************


SEGMENT              SPACE    START ADDRESS   END ADDRESS     SIZE  TYPE  ALIGN
=======              =====    =============   ===========     ====  ====  =====
INTVEC               CODE          00000000 - 0000009B          9C   com    1
?FILL1               CODE          0000009C - 000000CB          30   rel    0
SWITCH               CODE          000000CC - 00000113          48   rel    1
CODE                 CODE          00000114 - 000017FD        16EA   rel    1
INITTAB              CODE          000017FE - 0000180B           E   rel    0
NEAR_ID              CODE          0000180C - 00001870          65   rel    0
FAR_F                CODE          0001DFFC - 0001DFFF           4   rel    0
ABSOLUTE             DATA               0000001F                     rel    0
                     DATA               00000020                   
                     DATA               00000021                   
                     DATA          00000024 - 00000025           2 
                     DATA          0000002C - 0000002E           3 
                     DATA          00000030 - 00000031           2 
                     DATA          00000035 - 00000037           3 
                     DATA          00000044 - 00000045           2 
                     DATA          00000047 - 00000047           1 
                     DATA          00000050 - 00000050           1 
                     DATA          00000054 - 00000054           1 
                     DATA          0000005F - 00000061           3 
                     DATA          00000066 - 00000066           1 
                     DATA          0000006E - 0000006F           2 
                     DATA          0000007A - 0000007C           3 
                     DATA          00000080 - 00000081           2 
                     DATA          00000084 - 00000087           4 
                     DATA          000000B1 - 000000B2           2 
                     DATA          000000B6 - 000000B6           1 
                     DATA          000000C8 - 000000CA           3 
                     DATA          000000CC - 000000CE           3 
CSTACK               DATA          00000200 - 000003FF         200   dse    0
RSTACK               DATA          00000400 - 0000044F          50   dse    0
NEAR_I               DATA          00000450 - 000004B4          65   rel    0
NEAR_Z               DATA          000004B5 - 000004E7          33   rel    0

                ****************************************
                *                                      *
                *        END OF CROSS REFERENCE        *
                *                                      *
                ****************************************

 6 209 bytes of CODE memory (+  4 absolute, 48 range fill )
   744 bytes of DATA memory (+ 40 absolute  )

Errors: none
Warnings: none

